ARM GAS  /var/folders/hl/qgbwny5j0fd895c2c41bk3tw0000gp/T//cc9kFYNb.s 			page 1


   1              		.cpu cortex-m7
   2              		.eabi_attribute 28, 1
   3              		.eabi_attribute 20, 1
   4              		.eabi_attribute 21, 1
   5              		.eabi_attribute 23, 3
   6              		.eabi_attribute 24, 1
   7              		.eabi_attribute 25, 1
   8              		.eabi_attribute 26, 1
   9              		.eabi_attribute 30, 2
  10              		.eabi_attribute 34, 1
  11              		.eabi_attribute 18, 4
  12              		.file	"ShyTest.cpp"
  13              		.text
  14              	.Ltext0:
  15              		.cfi_sections	.debug_frame
  16              		.section	.text._ZN5daisy8patch_sm12DaisyPatchSMD2Ev,"axG",%progbits,_ZN5daisy8patch_sm12DaisyPatch
  17              		.align	1
  18              		.p2align 2,,3
  19              		.weak	_ZN5daisy8patch_sm12DaisyPatchSMD2Ev
  20              		.arch armv7e-m
  21              		.syntax unified
  22              		.thumb
  23              		.thumb_func
  24              		.fpu fpv5-d16
  26              	_ZN5daisy8patch_sm12DaisyPatchSMD2Ev:
  27              	.LVL0:
  28              	.LFB2529:
  29              		.file 1 "../../libDaisy//src/daisy_patch_sm.h"
   1:../../libDaisy//src/daisy_patch_sm.h **** #pragma once
   2:../../libDaisy//src/daisy_patch_sm.h **** 
   3:../../libDaisy//src/daisy_patch_sm.h **** #include "daisy.h"
   4:../../libDaisy//src/daisy_patch_sm.h **** 
   5:../../libDaisy//src/daisy_patch_sm.h **** namespace daisy
   6:../../libDaisy//src/daisy_patch_sm.h **** {
   7:../../libDaisy//src/daisy_patch_sm.h **** namespace patch_sm
   8:../../libDaisy//src/daisy_patch_sm.h **** {
   9:../../libDaisy//src/daisy_patch_sm.h ****     /** Accessors for the Analog Controls. 
  10:../../libDaisy//src/daisy_patch_sm.h ****      *  These cover the 8x Bipolar CV inputs
  11:../../libDaisy//src/daisy_patch_sm.h ****      *  as well as the 4x 0-3V3 ADC inputs on
  12:../../libDaisy//src/daisy_patch_sm.h ****      *  the hardware 
  13:../../libDaisy//src/daisy_patch_sm.h ****      * 
  14:../../libDaisy//src/daisy_patch_sm.h ****      *  When reading a value with DaisyPatchSM::GetAdcValue()
  15:../../libDaisy//src/daisy_patch_sm.h ****      * 
  16:../../libDaisy//src/daisy_patch_sm.h ****      *  patch.GetAdcValue(patch_sm::CV_1);
  17:../../libDaisy//src/daisy_patch_sm.h ****      */
  18:../../libDaisy//src/daisy_patch_sm.h ****     enum
  19:../../libDaisy//src/daisy_patch_sm.h ****     {
  20:../../libDaisy//src/daisy_patch_sm.h ****         CV_1 = 0,
  21:../../libDaisy//src/daisy_patch_sm.h ****         CV_2,
  22:../../libDaisy//src/daisy_patch_sm.h ****         CV_3,
  23:../../libDaisy//src/daisy_patch_sm.h ****         CV_4,
  24:../../libDaisy//src/daisy_patch_sm.h ****         CV_5,
  25:../../libDaisy//src/daisy_patch_sm.h ****         CV_6,
  26:../../libDaisy//src/daisy_patch_sm.h ****         CV_7,
  27:../../libDaisy//src/daisy_patch_sm.h ****         CV_8,
  28:../../libDaisy//src/daisy_patch_sm.h ****         ADC_9,
  29:../../libDaisy//src/daisy_patch_sm.h ****         ADC_10,
ARM GAS  /var/folders/hl/qgbwny5j0fd895c2c41bk3tw0000gp/T//cc9kFYNb.s 			page 2


  30:../../libDaisy//src/daisy_patch_sm.h ****         ADC_11,
  31:../../libDaisy//src/daisy_patch_sm.h ****         ADC_12,
  32:../../libDaisy//src/daisy_patch_sm.h ****         ADC_LAST,
  33:../../libDaisy//src/daisy_patch_sm.h ****     };
  34:../../libDaisy//src/daisy_patch_sm.h **** 
  35:../../libDaisy//src/daisy_patch_sm.h ****     /** Enum for addressing the CV Outputs via the WriteCvOut function. */
  36:../../libDaisy//src/daisy_patch_sm.h ****     enum
  37:../../libDaisy//src/daisy_patch_sm.h ****     {
  38:../../libDaisy//src/daisy_patch_sm.h ****         CV_OUT_BOTH = 0,
  39:../../libDaisy//src/daisy_patch_sm.h ****         CV_OUT_1,
  40:../../libDaisy//src/daisy_patch_sm.h ****         CV_OUT_2,
  41:../../libDaisy//src/daisy_patch_sm.h ****     };
  42:../../libDaisy//src/daisy_patch_sm.h **** 
  43:../../libDaisy//src/daisy_patch_sm.h **** 
  44:../../libDaisy//src/daisy_patch_sm.h ****     /** @brief Board support file for DaisyPatchSM hardware
  45:../../libDaisy//src/daisy_patch_sm.h ****      *  @author shensley
  46:../../libDaisy//src/daisy_patch_sm.h ****      *  @ingroup boards
  47:../../libDaisy//src/daisy_patch_sm.h ****      * 
  48:../../libDaisy//src/daisy_patch_sm.h ****      *  Daisy Patch SM is a complete Eurorack module DSP engine.
  49:../../libDaisy//src/daisy_patch_sm.h ****      *  Based on the Daisy Seed, with circuits added for 
  50:../../libDaisy//src/daisy_patch_sm.h ****      *  interfacing directly with eurorack modular synthesizers.
  51:../../libDaisy//src/daisy_patch_sm.h ****      */
  52:../../libDaisy//src/daisy_patch_sm.h ****     class DaisyPatchSM
  53:../../libDaisy//src/daisy_patch_sm.h ****     {
  54:../../libDaisy//src/daisy_patch_sm.h ****       public:
  55:../../libDaisy//src/daisy_patch_sm.h ****         /** Helper for mapping pins, and accessing them using the `GetPin` function */
  56:../../libDaisy//src/daisy_patch_sm.h ****         enum class PinBank
  57:../../libDaisy//src/daisy_patch_sm.h ****         {
  58:../../libDaisy//src/daisy_patch_sm.h ****             A,
  59:../../libDaisy//src/daisy_patch_sm.h ****             B,
  60:../../libDaisy//src/daisy_patch_sm.h ****             C,
  61:../../libDaisy//src/daisy_patch_sm.h ****             D
  62:../../libDaisy//src/daisy_patch_sm.h ****         };
  63:../../libDaisy//src/daisy_patch_sm.h **** 
  64:../../libDaisy//src/daisy_patch_sm.h ****         DaisyPatchSM() {}
  65:../../libDaisy//src/daisy_patch_sm.h ****         ~DaisyPatchSM() {}
  30              		.loc 1 65 9 view -0
  31              		.cfi_startproc
  32              		@ args = 0, pretend = 0, frame = 0
  33              		@ frame_needed = 0, uses_anonymous_args = 0
  34              		@ link register save eliminated.
  35              	.LBB671:
  36              	.LBI671:
  37              		.file 2 "../../libDaisy//src/hid/gatein.h"
   1:../../libDaisy//src/hid/gatein.h **** #pragma once
   2:../../libDaisy//src/hid/gatein.h **** #ifndef DSY_GATEIN_H
   3:../../libDaisy//src/hid/gatein.h **** #define DSY_GATEIN_H
   4:../../libDaisy//src/hid/gatein.h **** #include "per/gpio.h"
   5:../../libDaisy//src/hid/gatein.h **** 
   6:../../libDaisy//src/hid/gatein.h **** namespace daisy
   7:../../libDaisy//src/hid/gatein.h **** {
   8:../../libDaisy//src/hid/gatein.h **** /**
   9:../../libDaisy//src/hid/gatein.h ****    @brief Generic Class for handling gate inputs through GPIO.
  10:../../libDaisy//src/hid/gatein.h ****    @author Stephen Hensley
  11:../../libDaisy//src/hid/gatein.h ****    @date    March 2020
  12:../../libDaisy//src/hid/gatein.h ****    @ingroup controls
  13:../../libDaisy//src/hid/gatein.h **** */
ARM GAS  /var/folders/hl/qgbwny5j0fd895c2c41bk3tw0000gp/T//cc9kFYNb.s 			page 3


  14:../../libDaisy//src/hid/gatein.h **** class GateIn
  15:../../libDaisy//src/hid/gatein.h **** {
  16:../../libDaisy//src/hid/gatein.h ****   public:
  17:../../libDaisy//src/hid/gatein.h ****     /** GateIn 
  18:../../libDaisy//src/hid/gatein.h ****     Constructor 
  19:../../libDaisy//src/hid/gatein.h ****     */
  20:../../libDaisy//src/hid/gatein.h ****     GateIn() {}
  21:../../libDaisy//src/hid/gatein.h ****     /** GateIn~
  22:../../libDaisy//src/hid/gatein.h ****     Destructor 
  23:../../libDaisy//src/hid/gatein.h ****     */
  24:../../libDaisy//src/hid/gatein.h ****     ~GateIn() {}
  38              		.loc 2 24 5 view .LVU1
  39              		.loc 2 24 5 is_stmt 0 view .LVU2
  40              	.LBE671:
  41              	.LBB672:
  42              	.LBI672:
  43              		.loc 2 24 5 is_stmt 1 view .LVU3
  44              		.loc 2 24 5 is_stmt 0 view .LVU4
  45              	.LBE672:
  46              	.LBB673:
  47              	.LBI673:
  48              		.file 3 "../../libDaisy//src/dev/codec_pcm3060.h"
   1:../../libDaisy//src/dev/codec_pcm3060.h **** #pragma once
   2:../../libDaisy//src/dev/codec_pcm3060.h **** #ifndef DSY_CODEC_PCM3060_H
   3:../../libDaisy//src/dev/codec_pcm3060.h **** #define DSY_CODEC_PCM3060_H
   4:../../libDaisy//src/dev/codec_pcm3060.h **** #include "per/i2c.h"
   5:../../libDaisy//src/dev/codec_pcm3060.h **** namespace daisy
   6:../../libDaisy//src/dev/codec_pcm3060.h **** {
   7:../../libDaisy//src/dev/codec_pcm3060.h **** /**
   8:../../libDaisy//src/dev/codec_pcm3060.h ****  * @brief Driver for the TI PCM3060 Audio Codec.
   9:../../libDaisy//src/dev/codec_pcm3060.h ****  * @addtogroup codec
  10:../../libDaisy//src/dev/codec_pcm3060.h ****  * 
  11:../../libDaisy//src/dev/codec_pcm3060.h ****  * For now this is a limited interface that uses I2C to communicate with the PCM3060
  12:../../libDaisy//src/dev/codec_pcm3060.h ****  * The device can also be accessed with SPI, which is not yet supported.
  13:../../libDaisy//src/dev/codec_pcm3060.h ****  * 
  14:../../libDaisy//src/dev/codec_pcm3060.h ****  * For now all registers are set to their defaults, and the Init function will 
  15:../../libDaisy//src/dev/codec_pcm3060.h ****  * perform a MRST and SRST before setting the format to 24bit LJ, and disabling 
  16:../../libDaisy//src/dev/codec_pcm3060.h ****  * power save for both the ADC and DAC.
  17:../../libDaisy//src/dev/codec_pcm3060.h ****  *
  18:../../libDaisy//src/dev/codec_pcm3060.h ****  */
  19:../../libDaisy//src/dev/codec_pcm3060.h **** class Pcm3060
  20:../../libDaisy//src/dev/codec_pcm3060.h **** {
  21:../../libDaisy//src/dev/codec_pcm3060.h ****   public:
  22:../../libDaisy//src/dev/codec_pcm3060.h ****     enum class Result
  23:../../libDaisy//src/dev/codec_pcm3060.h ****     {
  24:../../libDaisy//src/dev/codec_pcm3060.h ****         OK,
  25:../../libDaisy//src/dev/codec_pcm3060.h ****         ERR,
  26:../../libDaisy//src/dev/codec_pcm3060.h ****     };
  27:../../libDaisy//src/dev/codec_pcm3060.h **** 
  28:../../libDaisy//src/dev/codec_pcm3060.h ****     Pcm3060() {}
  29:../../libDaisy//src/dev/codec_pcm3060.h ****     ~Pcm3060() {}
  49              		.loc 3 29 5 is_stmt 1 view .LVU5
  50              		.loc 3 29 5 is_stmt 0 view .LVU6
  51              	.LBE673:
  52              	.LBB674:
  53              	.LBI674:
  54              		.file 4 "../../libDaisy//src/hid/usb.h"
ARM GAS  /var/folders/hl/qgbwny5j0fd895c2c41bk3tw0000gp/T//cc9kFYNb.s 			page 4


   1:../../libDaisy//src/hid/usb.h **** #pragma once
   2:../../libDaisy//src/hid/usb.h **** #ifndef DSY_HID_USB_H
   3:../../libDaisy//src/hid/usb.h **** #define DSY_HID_USB_H
   4:../../libDaisy//src/hid/usb.h **** #include <stdint.h>
   5:../../libDaisy//src/hid/usb.h **** #include <stdlib.h>
   6:../../libDaisy//src/hid/usb.h **** 
   7:../../libDaisy//src/hid/usb.h **** namespace daisy
   8:../../libDaisy//src/hid/usb.h **** /** @addtogroup human_interface
   9:../../libDaisy//src/hid/usb.h ****     @{
  10:../../libDaisy//src/hid/usb.h **** */
  11:../../libDaisy//src/hid/usb.h **** 
  12:../../libDaisy//src/hid/usb.h **** {
  13:../../libDaisy//src/hid/usb.h **** /** 
  14:../../libDaisy//src/hid/usb.h ****     @brief Interface for initializing and using the USB Peripherals on the daisy
  15:../../libDaisy//src/hid/usb.h ****     @author Stephen Hensley
  16:../../libDaisy//src/hid/usb.h ****     @date December 2019
  17:../../libDaisy//src/hid/usb.h **** */
  18:../../libDaisy//src/hid/usb.h **** class UsbHandle
  19:../../libDaisy//src/hid/usb.h **** {
  20:../../libDaisy//src/hid/usb.h ****   public:
  21:../../libDaisy//src/hid/usb.h ****     /** Return values for USBHandle Functions */
  22:../../libDaisy//src/hid/usb.h ****     enum class Result
  23:../../libDaisy//src/hid/usb.h ****     {
  24:../../libDaisy//src/hid/usb.h ****         OK,
  25:../../libDaisy//src/hid/usb.h ****         ERR,
  26:../../libDaisy//src/hid/usb.h ****     };
  27:../../libDaisy//src/hid/usb.h **** 
  28:../../libDaisy//src/hid/usb.h ****     /** Specified which of the two USB Peripherals to initialize. */
  29:../../libDaisy//src/hid/usb.h ****     enum UsbPeriph
  30:../../libDaisy//src/hid/usb.h ****     {
  31:../../libDaisy//src/hid/usb.h ****         FS_INTERNAL, /**< Internal pin */
  32:../../libDaisy//src/hid/usb.h ****         FS_EXTERNAL, /**< FS External D+ pin is Pin 38 (GPIO32). FS External D- pin is Pin 37 (GPIO
  33:../../libDaisy//src/hid/usb.h ****         FS_BOTH,     /**< Both */
  34:../../libDaisy//src/hid/usb.h ****     };
  35:../../libDaisy//src/hid/usb.h **** 
  36:../../libDaisy//src/hid/usb.h **** 
  37:../../libDaisy//src/hid/usb.h ****     /** Function called upon reception of a buffer */
  38:../../libDaisy//src/hid/usb.h ****     typedef void (*ReceiveCallback)(uint8_t* buff, uint32_t* len);
  39:../../libDaisy//src/hid/usb.h **** 
  40:../../libDaisy//src/hid/usb.h ****     UsbHandle() {}
  41:../../libDaisy//src/hid/usb.h **** 
  42:../../libDaisy//src/hid/usb.h ****     ~UsbHandle() {}
  55              		.loc 4 42 5 is_stmt 1 view .LVU7
  56              		.loc 4 42 5 is_stmt 0 view .LVU8
  57              	.LBE674:
  58              	.LBB675:
  59              	.LBI675:
  60              		.file 5 "../../libDaisy//src/per/adc.h"
   1:../../libDaisy//src/per/adc.h **** #pragma once
   2:../../libDaisy//src/per/adc.h **** #ifndef DSY_ADC_H
   3:../../libDaisy//src/per/adc.h **** #define DSY_ADC_H /**< Macro */
   4:../../libDaisy//src/per/adc.h **** #include <stdint.h>
   5:../../libDaisy//src/per/adc.h **** #include <stdlib.h>
   6:../../libDaisy//src/per/adc.h **** #include "daisy_core.h"
   7:../../libDaisy//src/per/adc.h **** #include "per/gpio.h"
   8:../../libDaisy//src/per/adc.h **** 
   9:../../libDaisy//src/per/adc.h **** #define DSY_ADC_MAX_CHANNELS 16 /**< Maximum number of ADC channels */
ARM GAS  /var/folders/hl/qgbwny5j0fd895c2c41bk3tw0000gp/T//cc9kFYNb.s 			page 5


  10:../../libDaisy//src/per/adc.h **** 
  11:../../libDaisy//src/per/adc.h **** namespace daisy
  12:../../libDaisy//src/per/adc.h **** {
  13:../../libDaisy//src/per/adc.h **** /** @addtogroup per_analog
  14:../../libDaisy//src/per/adc.h ****     @{
  15:../../libDaisy//src/per/adc.h **** */
  16:../../libDaisy//src/per/adc.h **** 
  17:../../libDaisy//src/per/adc.h **** /* While there may not be many configuration options here,
  18:../../libDaisy//src/per/adc.h **** using a struct like this allows us to add more configuration
  19:../../libDaisy//src/per/adc.h **** later without breaking existing functionality.
  20:../../libDaisy//src/per/adc.h **** */
  21:../../libDaisy//src/per/adc.h **** 
  22:../../libDaisy//src/per/adc.h **** /** @brief   Configuration Structure for an ADC Channel 
  23:../../libDaisy//src/per/adc.h ****  *  @details This can be used to configure a a single input, 
  24:../../libDaisy//src/per/adc.h ****  *           or a multiplexed input, allowing up to 8 inputs on 
  25:../../libDaisy//src/per/adc.h ****  *           one channel.
  26:../../libDaisy//src/per/adc.h ****  *  @note    Sharing data lines to multiple muxes _is_ possible, but
  27:../../libDaisy//src/per/adc.h ****  *           each channel sharing data lines must be set to the maximum
  28:../../libDaisy//src/per/adc.h ****  *           number of channels, even if some multiplexers have fewer
  29:../../libDaisy//src/per/adc.h ****  *           inputs connected.
  30:../../libDaisy//src/per/adc.h **** */
  31:../../libDaisy//src/per/adc.h **** struct AdcChannelConfig
  32:../../libDaisy//src/per/adc.h **** {
  33:../../libDaisy//src/per/adc.h ****     /** Which pin to use for multiplexing */
  34:../../libDaisy//src/per/adc.h ****     enum MuxPin
  35:../../libDaisy//src/per/adc.h ****     {
  36:../../libDaisy//src/per/adc.h ****         MUX_SEL_0,    /**< & */
  37:../../libDaisy//src/per/adc.h ****         MUX_SEL_1,    /**< & */
  38:../../libDaisy//src/per/adc.h ****         MUX_SEL_2,    /**< & */
  39:../../libDaisy//src/per/adc.h ****         MUX_SEL_LAST, /**< & */
  40:../../libDaisy//src/per/adc.h ****     };
  41:../../libDaisy//src/per/adc.h **** 
  42:../../libDaisy//src/per/adc.h ****     /** Initializes a single ADC pin as an ADC. 
  43:../../libDaisy//src/per/adc.h ****     \param pin Pin to init.
  44:../../libDaisy//src/per/adc.h ****      */
  45:../../libDaisy//src/per/adc.h ****     void InitSingle(dsy_gpio_pin pin);
  46:../../libDaisy//src/per/adc.h **** 
  47:../../libDaisy//src/per/adc.h ****     /** 
  48:../../libDaisy//src/per/adc.h ****     Initializes a single ADC pin as a Multiplexed ADC.
  49:../../libDaisy//src/per/adc.h ****     Requires a CD405X Multiplexer connected to the pin.
  50:../../libDaisy//src/per/adc.h ****     You only need to supply the mux pins that are required,
  51:../../libDaisy//src/per/adc.h ****     e.g. a 4052 mux would only require mux_0 and mux_1.
  52:../../libDaisy//src/per/adc.h ****     Internal Callbacks handle the pin addressing.
  53:../../libDaisy//src/per/adc.h ****     \param mux_channels must be 1-8
  54:../../libDaisy//src/per/adc.h ****     \param mux_0 First mux pin
  55:../../libDaisy//src/per/adc.h ****     \param mux_1 Second mux pin
  56:../../libDaisy//src/per/adc.h ****     \param mux_2 Third mux pin
  57:../../libDaisy//src/per/adc.h ****     \param adc_pin &
  58:../../libDaisy//src/per/adc.h ****     */
  59:../../libDaisy//src/per/adc.h ****     void InitMux(dsy_gpio_pin adc_pin,
  60:../../libDaisy//src/per/adc.h ****                  size_t       mux_channels,
  61:../../libDaisy//src/per/adc.h ****                  dsy_gpio_pin mux_0,
  62:../../libDaisy//src/per/adc.h ****                  dsy_gpio_pin mux_1 = {DSY_GPIOX, 0},
  63:../../libDaisy//src/per/adc.h ****                  dsy_gpio_pin mux_2 = {DSY_GPIOX, 0});
  64:../../libDaisy//src/per/adc.h **** 
  65:../../libDaisy//src/per/adc.h ****     dsy_gpio pin_;                   /**< & */
  66:../../libDaisy//src/per/adc.h ****     dsy_gpio mux_pin_[MUX_SEL_LAST]; /**< & */
ARM GAS  /var/folders/hl/qgbwny5j0fd895c2c41bk3tw0000gp/T//cc9kFYNb.s 			page 6


  67:../../libDaisy//src/per/adc.h ****     uint8_t  mux_channels_;          /**< & */
  68:../../libDaisy//src/per/adc.h **** };
  69:../../libDaisy//src/per/adc.h **** 
  70:../../libDaisy//src/per/adc.h **** /**
  71:../../libDaisy//src/per/adc.h ****    @brief Handler for analog to digital conversion
  72:../../libDaisy//src/per/adc.h **** */
  73:../../libDaisy//src/per/adc.h **** class AdcHandle
  74:../../libDaisy//src/per/adc.h **** {
  75:../../libDaisy//src/per/adc.h ****   public:
  76:../../libDaisy//src/per/adc.h ****     /** Supported oversampling amounts */
  77:../../libDaisy//src/per/adc.h ****     enum OverSampling
  78:../../libDaisy//src/per/adc.h ****     {
  79:../../libDaisy//src/per/adc.h ****         OVS_NONE, /**< & */
  80:../../libDaisy//src/per/adc.h ****         OVS_4,    /**< & */
  81:../../libDaisy//src/per/adc.h ****         OVS_8,    /**< & */
  82:../../libDaisy//src/per/adc.h ****         OVS_16,   /**< & */
  83:../../libDaisy//src/per/adc.h ****         OVS_32,   /**< & */
  84:../../libDaisy//src/per/adc.h ****         OVS_64,   /**< & */
  85:../../libDaisy//src/per/adc.h ****         OVS_128,  /**< & */
  86:../../libDaisy//src/per/adc.h ****         OVS_256,  /**< & */
  87:../../libDaisy//src/per/adc.h ****         OVS_512,  /**< & */
  88:../../libDaisy//src/per/adc.h ****         OVS_1024, /**< & */
  89:../../libDaisy//src/per/adc.h ****         OVS_LAST, /**< & */
  90:../../libDaisy//src/per/adc.h ****     };
  91:../../libDaisy//src/per/adc.h **** 
  92:../../libDaisy//src/per/adc.h ****     AdcHandle() {}
  93:../../libDaisy//src/per/adc.h ****     ~AdcHandle() {}
  61              		.loc 5 93 5 is_stmt 1 view .LVU9
  62              		.loc 5 93 5 is_stmt 0 view .LVU10
  63              	.LBE675:
  64              	.LBB676:
  65              	.LBI676:
  66              		.file 6 "../../libDaisy//src/hid/audio.h"
   1:../../libDaisy//src/hid/audio.h **** #ifndef DSY_AUDIO_H
   2:../../libDaisy//src/hid/audio.h **** #define DSY_AUDIO_H /**< & */
   3:../../libDaisy//src/hid/audio.h **** 
   4:../../libDaisy//src/hid/audio.h **** #include "per/sai.h"
   5:../../libDaisy//src/hid/audio.h **** 
   6:../../libDaisy//src/hid/audio.h **** namespace daisy
   7:../../libDaisy//src/hid/audio.h **** {
   8:../../libDaisy//src/hid/audio.h **** /** @brief Audio Engine Handle
   9:../../libDaisy//src/hid/audio.h ****  *  @ingroup audio 
  10:../../libDaisy//src/hid/audio.h ****  *  @details This class allows for higher level access to an audio engine.
  11:../../libDaisy//src/hid/audio.h ****  *           If you're using a SOM like the DaisySeed or DaisyPatchSM (or any 
  12:../../libDaisy//src/hid/audio.h ****  *            board that includes one of those objects) then the intialization
  13:../../libDaisy//src/hid/audio.h ****  *            is already taken  care of.
  14:../../libDaisy//src/hid/audio.h ****  *           If you're setting up your own custom hardware, or need to make changes
  15:../../libDaisy//src/hid/audio.h ****  *           you will have to take the following steps:
  16:../../libDaisy//src/hid/audio.h ****  *             1. Create and Initialize an SaiHandle or two depending on your requirements
  17:../../libDaisy//src/hid/audio.h ****  *             2. Initialize the Audio Handle with the desired settings and the Initialized SaiHand
  18:../../libDaisy//src/hid/audio.h ****  *             3. If the connected codec requires special configuration or initialization, do so
  19:../../libDaisy//src/hid/audio.h ****  *             4. Write a callback method using either the AudioCallback or the InterleavingAudioCa
  20:../../libDaisy//src/hid/audio.h ****  *             5. Start the Audio using one of the StartAudio function
  21:../../libDaisy//src/hid/audio.h ****  */
  22:../../libDaisy//src/hid/audio.h **** class AudioHandle
  23:../../libDaisy//src/hid/audio.h **** {
  24:../../libDaisy//src/hid/audio.h ****   public:
ARM GAS  /var/folders/hl/qgbwny5j0fd895c2c41bk3tw0000gp/T//cc9kFYNb.s 			page 7


  25:../../libDaisy//src/hid/audio.h ****     /** Manually configurable details about the Audio Engine */
  26:../../libDaisy//src/hid/audio.h ****     /** TODO: Figure out how to get samplerate in here. */
  27:../../libDaisy//src/hid/audio.h ****     struct Config
  28:../../libDaisy//src/hid/audio.h ****     {
  29:../../libDaisy//src/hid/audio.h ****         /** number of samples to process per callback */
  30:../../libDaisy//src/hid/audio.h ****         size_t blocksize;
  31:../../libDaisy//src/hid/audio.h **** 
  32:../../libDaisy//src/hid/audio.h ****         /**< Sample rate of audio */
  33:../../libDaisy//src/hid/audio.h ****         SaiHandle::Config::SampleRate samplerate;
  34:../../libDaisy//src/hid/audio.h **** 
  35:../../libDaisy//src/hid/audio.h ****         /** factor for adjustment before and after callback for hardware that may have extra headro
  36:../../libDaisy//src/hid/audio.h ****         float postgain;
  37:../../libDaisy//src/hid/audio.h **** 
  38:../../libDaisy//src/hid/audio.h ****         /** factor for additional one-sided compensation to audio path for hardware that may
  39:../../libDaisy//src/hid/audio.h ****          *  have unequal input/output ranges
  40:../../libDaisy//src/hid/audio.h ****          */
  41:../../libDaisy//src/hid/audio.h ****         float output_compensation;
  42:../../libDaisy//src/hid/audio.h **** 
  43:../../libDaisy//src/hid/audio.h ****         /** Sets default values for config struct */
  44:../../libDaisy//src/hid/audio.h ****         Config()
  45:../../libDaisy//src/hid/audio.h ****         : blocksize(48),
  46:../../libDaisy//src/hid/audio.h ****           samplerate(SaiHandle::Config::SampleRate::SAI_48KHZ),
  47:../../libDaisy//src/hid/audio.h ****           postgain(1.f),
  48:../../libDaisy//src/hid/audio.h ****           output_compensation(1.f)
  49:../../libDaisy//src/hid/audio.h ****         {
  50:../../libDaisy//src/hid/audio.h ****         }
  51:../../libDaisy//src/hid/audio.h ****     };
  52:../../libDaisy//src/hid/audio.h **** 
  53:../../libDaisy//src/hid/audio.h ****     enum class Result
  54:../../libDaisy//src/hid/audio.h ****     {
  55:../../libDaisy//src/hid/audio.h ****         OK,
  56:../../libDaisy//src/hid/audio.h ****         ERR,
  57:../../libDaisy//src/hid/audio.h ****     };
  58:../../libDaisy//src/hid/audio.h **** 
  59:../../libDaisy//src/hid/audio.h ****     /** Non-Interleaving input buffer
  60:../../libDaisy//src/hid/audio.h ****      * Buffer arranged by float[chn][sample] 
  61:../../libDaisy//src/hid/audio.h ****      * const so that the user can't modify the input
  62:../../libDaisy//src/hid/audio.h ****      */
  63:../../libDaisy//src/hid/audio.h ****     typedef const float* const* InputBuffer;
  64:../../libDaisy//src/hid/audio.h **** 
  65:../../libDaisy//src/hid/audio.h ****     /** Non-Interleaving output buffer
  66:../../libDaisy//src/hid/audio.h ****      * Arranged by float[chn][sample] 
  67:../../libDaisy//src/hid/audio.h ****      */
  68:../../libDaisy//src/hid/audio.h ****     typedef float** OutputBuffer;
  69:../../libDaisy//src/hid/audio.h **** 
  70:../../libDaisy//src/hid/audio.h ****     /** Type for a Non-Interleaving audio callback 
  71:../../libDaisy//src/hid/audio.h ****      * Non-Interleaving audio callbacks in daisy will be of this type
  72:../../libDaisy//src/hid/audio.h ****      */
  73:../../libDaisy//src/hid/audio.h ****     typedef void (*AudioCallback)(InputBuffer  in,
  74:../../libDaisy//src/hid/audio.h ****                                   OutputBuffer out,
  75:../../libDaisy//src/hid/audio.h ****                                   size_t       size);
  76:../../libDaisy//src/hid/audio.h **** 
  77:../../libDaisy//src/hid/audio.h ****     /** Interleaving Input buffer
  78:../../libDaisy//src/hid/audio.h ****      ** audio is prepared as { L0, R0, L1, R1, . . . LN, RN }]
  79:../../libDaisy//src/hid/audio.h ****      ** this is const, as the user shouldn't modify it
  80:../../libDaisy//src/hid/audio.h ****     */
  81:../../libDaisy//src/hid/audio.h ****     typedef const float* InterleavingInputBuffer;
ARM GAS  /var/folders/hl/qgbwny5j0fd895c2c41bk3tw0000gp/T//cc9kFYNb.s 			page 8


  82:../../libDaisy//src/hid/audio.h **** 
  83:../../libDaisy//src/hid/audio.h ****     /** Interleaving Output buffer 
  84:../../libDaisy//src/hid/audio.h ****      ** audio is prepared as { L0, R0, L1, R1, . . . LN, RN }
  85:../../libDaisy//src/hid/audio.h ****     */
  86:../../libDaisy//src/hid/audio.h ****     typedef float* InterleavingOutputBuffer;
  87:../../libDaisy//src/hid/audio.h **** 
  88:../../libDaisy//src/hid/audio.h ****     /** Interleaving Audio Callback 
  89:../../libDaisy//src/hid/audio.h ****      * Interleaving audio callbacks in daisy must be of this type
  90:../../libDaisy//src/hid/audio.h ****      */
  91:../../libDaisy//src/hid/audio.h ****     typedef void (*InterleavingAudioCallback)(InterleavingInputBuffer  in,
  92:../../libDaisy//src/hid/audio.h ****                                               InterleavingOutputBuffer out,
  93:../../libDaisy//src/hid/audio.h ****                                               size_t                   size);
  94:../../libDaisy//src/hid/audio.h **** 
  95:../../libDaisy//src/hid/audio.h ****     AudioHandle() : pimpl_(nullptr) {}
  96:../../libDaisy//src/hid/audio.h ****     ~AudioHandle() {}
  67              		.loc 6 96 5 is_stmt 1 view .LVU11
  68              		.loc 6 96 5 is_stmt 0 view .LVU12
  69              	.LBE676:
  70              	.LBB677:
  71              	.LBI677:
  72              		.file 7 "../../libDaisy//src/sys/system.h"
   1:../../libDaisy//src/sys/system.h **** #ifndef DSY_SYSTEM_H
   2:../../libDaisy//src/sys/system.h **** #define DSY_SYSTEM_H
   3:../../libDaisy//src/sys/system.h **** 
   4:../../libDaisy//src/sys/system.h **** #ifndef UNIT_TEST // for unit tests, a dummy implementation is provided below
   5:../../libDaisy//src/sys/system.h **** 
   6:../../libDaisy//src/sys/system.h **** #include <cstdint>
   7:../../libDaisy//src/sys/system.h **** #include "per/tim.h"
   8:../../libDaisy//src/sys/system.h **** 
   9:../../libDaisy//src/sys/system.h **** namespace daisy
  10:../../libDaisy//src/sys/system.h **** {
  11:../../libDaisy//src/sys/system.h **** /** A handle for interacting with the Core System. 
  12:../../libDaisy//src/sys/system.h ****  ** This includes the Clock tree, MPU, global DMA initialization,
  13:../../libDaisy//src/sys/system.h ****  ** cache handling, and any other necessary global initiailzation
  14:../../libDaisy//src/sys/system.h ****  **
  15:../../libDaisy//src/sys/system.h ****  ** @author shensley
  16:../../libDaisy//src/sys/system.h ****  ** @ingroup system
  17:../../libDaisy//src/sys/system.h ****  */
  18:../../libDaisy//src/sys/system.h **** class System
  19:../../libDaisy//src/sys/system.h **** {
  20:../../libDaisy//src/sys/system.h ****   public:
  21:../../libDaisy//src/sys/system.h ****     /** Contains settings for initializing the System */
  22:../../libDaisy//src/sys/system.h ****     struct Config
  23:../../libDaisy//src/sys/system.h ****     {
  24:../../libDaisy//src/sys/system.h ****         /** Specifies the system clock frequency that feeds APB/AHB clocks, etc. */
  25:../../libDaisy//src/sys/system.h ****         enum class SysClkFreq
  26:../../libDaisy//src/sys/system.h ****         {
  27:../../libDaisy//src/sys/system.h ****             FREQ_400MHZ,
  28:../../libDaisy//src/sys/system.h ****             FREQ_480MHZ,
  29:../../libDaisy//src/sys/system.h ****         };
  30:../../libDaisy//src/sys/system.h **** 
  31:../../libDaisy//src/sys/system.h ****         /** Method to call on the struct to set to defaults
  32:../../libDaisy//src/sys/system.h ****          ** CPU Freq set to 400MHz
  33:../../libDaisy//src/sys/system.h ****          ** Cache Enabled 
  34:../../libDaisy//src/sys/system.h ****          ** */
  35:../../libDaisy//src/sys/system.h ****         void Defaults()
  36:../../libDaisy//src/sys/system.h ****         {
ARM GAS  /var/folders/hl/qgbwny5j0fd895c2c41bk3tw0000gp/T//cc9kFYNb.s 			page 9


  37:../../libDaisy//src/sys/system.h ****             cpu_freq    = SysClkFreq::FREQ_400MHZ;
  38:../../libDaisy//src/sys/system.h ****             use_dcache  = true;
  39:../../libDaisy//src/sys/system.h ****             use_icache  = true;
  40:../../libDaisy//src/sys/system.h ****             skip_clocks = false;
  41:../../libDaisy//src/sys/system.h ****         }
  42:../../libDaisy//src/sys/system.h **** 
  43:../../libDaisy//src/sys/system.h ****         /** Method to call on the struct to set to boost mode:
  44:../../libDaisy//src/sys/system.h ****          ** CPU Freq set to 480MHz
  45:../../libDaisy//src/sys/system.h ****          ** Cache Enabled 
  46:../../libDaisy//src/sys/system.h ****          ** */
  47:../../libDaisy//src/sys/system.h ****         void Boost()
  48:../../libDaisy//src/sys/system.h ****         {
  49:../../libDaisy//src/sys/system.h ****             cpu_freq    = SysClkFreq::FREQ_480MHZ;
  50:../../libDaisy//src/sys/system.h ****             use_dcache  = true;
  51:../../libDaisy//src/sys/system.h ****             use_icache  = true;
  52:../../libDaisy//src/sys/system.h ****             skip_clocks = false;
  53:../../libDaisy//src/sys/system.h ****         }
  54:../../libDaisy//src/sys/system.h **** 
  55:../../libDaisy//src/sys/system.h ****         SysClkFreq cpu_freq;
  56:../../libDaisy//src/sys/system.h ****         bool       use_dcache;
  57:../../libDaisy//src/sys/system.h ****         bool       use_icache;
  58:../../libDaisy//src/sys/system.h ****         bool       skip_clocks;
  59:../../libDaisy//src/sys/system.h ****     };
  60:../../libDaisy//src/sys/system.h **** 
  61:../../libDaisy//src/sys/system.h ****     /** Describes the different regions of memory available to the Daisy
  62:../../libDaisy//src/sys/system.h ****      * 
  63:../../libDaisy//src/sys/system.h ****      */
  64:../../libDaisy//src/sys/system.h ****     enum MemoryRegion
  65:../../libDaisy//src/sys/system.h ****     {
  66:../../libDaisy//src/sys/system.h ****         INTERNAL_FLASH = 0,
  67:../../libDaisy//src/sys/system.h ****         ITCMRAM,
  68:../../libDaisy//src/sys/system.h ****         DTCMRAM,
  69:../../libDaisy//src/sys/system.h ****         SRAM_D1,
  70:../../libDaisy//src/sys/system.h ****         SRAM_D2,
  71:../../libDaisy//src/sys/system.h ****         SRAM_D3,
  72:../../libDaisy//src/sys/system.h ****         SDRAM,
  73:../../libDaisy//src/sys/system.h ****         QSPI,
  74:../../libDaisy//src/sys/system.h ****         INVALID_ADDRESS,
  75:../../libDaisy//src/sys/system.h ****     };
  76:../../libDaisy//src/sys/system.h **** 
  77:../../libDaisy//src/sys/system.h ****     System() {}
  78:../../libDaisy//src/sys/system.h ****     ~System() {}
  73              		.loc 7 78 5 is_stmt 1 view .LVU13
  74              		.loc 7 78 5 is_stmt 0 view .LVU14
  75              	.LBE677:
  76              		.loc 1 65 26 view .LVU15
  77 0000 7047     		bx	lr
  78              		.cfi_endproc
  79              	.LFE2529:
  81              		.weak	_ZN5daisy8patch_sm12DaisyPatchSMD1Ev
  82              		.thumb_set _ZN5daisy8patch_sm12DaisyPatchSMD1Ev,_ZN5daisy8patch_sm12DaisyPatchSMD2Ev
  83 0002 00BF     		.section	.text._ZN5daisy11OledDisplayINS_13SSD130xDriverILj128ELj64ENS_19SSD130xI2CTransportEEEED2
  84              		.align	1
  85              		.p2align 2,,3
  86              		.weak	_ZN5daisy11OledDisplayINS_13SSD130xDriverILj128ELj64ENS_19SSD130xI2CTransportEEEED2Ev
  87              		.syntax unified
  88              		.thumb
ARM GAS  /var/folders/hl/qgbwny5j0fd895c2c41bk3tw0000gp/T//cc9kFYNb.s 			page 10


  89              		.thumb_func
  90              		.fpu fpv5-d16
  92              	_ZN5daisy11OledDisplayINS_13SSD130xDriverILj128ELj64ENS_19SSD130xI2CTransportEEEED2Ev:
  93              	.LVL1:
  94              	.LFB5220:
  95              		.file 8 "../../libDaisy//src/hid/disp/oled_display.h"
   1:../../libDaisy//src/hid/disp/oled_display.h **** #pragma once
   2:../../libDaisy//src/hid/disp/oled_display.h **** #ifndef DSY_OLED_DISPLAY_H
   3:../../libDaisy//src/hid/disp/oled_display.h **** #define DSY_OLED_DISPLAY_H /**< Macro */
   4:../../libDaisy//src/hid/disp/oled_display.h **** 
   5:../../libDaisy//src/hid/disp/oled_display.h **** #include "display.h"
   6:../../libDaisy//src/hid/disp/oled_display.h **** 
   7:../../libDaisy//src/hid/disp/oled_display.h **** namespace daisy
   8:../../libDaisy//src/hid/disp/oled_display.h **** {
   9:../../libDaisy//src/hid/disp/oled_display.h **** /** 
  10:../../libDaisy//src/hid/disp/oled_display.h ****  * This class is for drawing to a monochrome OLED display. 
  11:../../libDaisy//src/hid/disp/oled_display.h ****  * @ingroup device
  12:../../libDaisy//src/hid/disp/oled_display.h **** */
  13:../../libDaisy//src/hid/disp/oled_display.h **** template <typename DisplayDriver>
  14:../../libDaisy//src/hid/disp/oled_display.h **** class OledDisplay : public OneBitGraphicsDisplayImpl<OledDisplay<DisplayDriver>>
  15:../../libDaisy//src/hid/disp/oled_display.h **** {
  16:../../libDaisy//src/hid/disp/oled_display.h ****   public:
  17:../../libDaisy//src/hid/disp/oled_display.h ****     OledDisplay() {}
  18:../../libDaisy//src/hid/disp/oled_display.h ****     virtual ~OledDisplay() {}
  96              		.loc 8 18 13 is_stmt 1 view -0
  97              		.cfi_startproc
  98              		@ args = 0, pretend = 0, frame = 0
  99              		@ frame_needed = 0, uses_anonymous_args = 0
 100              		@ link register save eliminated.
 101              	.LBB678:
 102              	.LBI678:
 103              		.file 9 "../../libDaisy//src/hid/disp/display.h"
   1:../../libDaisy//src/hid/disp/display.h **** #pragma once
   2:../../libDaisy//src/hid/disp/display.h **** #ifndef DSY_DISPLAY_H
   3:../../libDaisy//src/hid/disp/display.h **** #define DSY_DISPLAY_H /**< Macro */
   4:../../libDaisy//src/hid/disp/display.h **** #include <cmath>
   5:../../libDaisy//src/hid/disp/display.h **** #include "util/oled_fonts.h"
   6:../../libDaisy//src/hid/disp/display.h **** #include "daisy_core.h"
   7:../../libDaisy//src/hid/disp/display.h **** #include "graphics_common.h"
   8:../../libDaisy//src/hid/disp/display.h **** 
   9:../../libDaisy//src/hid/disp/display.h **** #ifndef deg2rad
  10:../../libDaisy//src/hid/disp/display.h **** #define deg2rad(deg) ((deg)*3.141592 / 180.0)
  11:../../libDaisy//src/hid/disp/display.h **** #endif
  12:../../libDaisy//src/hid/disp/display.h **** 
  13:../../libDaisy//src/hid/disp/display.h **** namespace daisy
  14:../../libDaisy//src/hid/disp/display.h **** {
  15:../../libDaisy//src/hid/disp/display.h **** /** 
  16:../../libDaisy//src/hid/disp/display.h ****  * This interface is used as a base class for all types of 1bit-per-pixel
  17:../../libDaisy//src/hid/disp/display.h ****  * graphics displays.
  18:../../libDaisy//src/hid/disp/display.h **** */
  19:../../libDaisy//src/hid/disp/display.h **** class OneBitGraphicsDisplay
  20:../../libDaisy//src/hid/disp/display.h **** {
  21:../../libDaisy//src/hid/disp/display.h ****   public:
  22:../../libDaisy//src/hid/disp/display.h ****     OneBitGraphicsDisplay() {}
  23:../../libDaisy//src/hid/disp/display.h ****     virtual ~OneBitGraphicsDisplay() {}
  24:../../libDaisy//src/hid/disp/display.h **** 
  25:../../libDaisy//src/hid/disp/display.h ****     virtual uint16_t Height() const = 0;
ARM GAS  /var/folders/hl/qgbwny5j0fd895c2c41bk3tw0000gp/T//cc9kFYNb.s 			page 11


  26:../../libDaisy//src/hid/disp/display.h ****     virtual uint16_t Width() const  = 0;
  27:../../libDaisy//src/hid/disp/display.h **** 
  28:../../libDaisy//src/hid/disp/display.h ****     Rectangle GetBounds() const
  29:../../libDaisy//src/hid/disp/display.h ****     {
  30:../../libDaisy//src/hid/disp/display.h ****         return Rectangle(int16_t(Width()), int16_t(Height()));
  31:../../libDaisy//src/hid/disp/display.h ****     }
  32:../../libDaisy//src/hid/disp/display.h **** 
  33:../../libDaisy//src/hid/disp/display.h **** 
  34:../../libDaisy//src/hid/disp/display.h ****     size_t CurrentX() { return currentX_; };
  35:../../libDaisy//src/hid/disp/display.h ****     size_t CurrentY() { return currentY_; };
  36:../../libDaisy//src/hid/disp/display.h **** 
  37:../../libDaisy//src/hid/disp/display.h ****     /** 
  38:../../libDaisy//src/hid/disp/display.h ****     Fills the entire display with either on/off.
  39:../../libDaisy//src/hid/disp/display.h ****     \param on Sets on or off.
  40:../../libDaisy//src/hid/disp/display.h ****     */
  41:../../libDaisy//src/hid/disp/display.h ****     virtual void Fill(bool on) = 0;
  42:../../libDaisy//src/hid/disp/display.h **** 
  43:../../libDaisy//src/hid/disp/display.h ****     /**
  44:../../libDaisy//src/hid/disp/display.h ****     Sets the pixel at the specified coordinate to be on/off.
  45:../../libDaisy//src/hid/disp/display.h ****     \param x   x Coordinate
  46:../../libDaisy//src/hid/disp/display.h ****     \param y   y coordinate
  47:../../libDaisy//src/hid/disp/display.h ****     \param on  on or off
  48:../../libDaisy//src/hid/disp/display.h ****     */
  49:../../libDaisy//src/hid/disp/display.h ****     virtual void DrawPixel(uint_fast8_t x, uint_fast8_t y, bool on) = 0;
  50:../../libDaisy//src/hid/disp/display.h **** 
  51:../../libDaisy//src/hid/disp/display.h ****     /**
  52:../../libDaisy//src/hid/disp/display.h ****     Draws a line from (x1, y1) to (y1, y2)
  53:../../libDaisy//src/hid/disp/display.h ****     \param x1  x Coordinate of the starting point
  54:../../libDaisy//src/hid/disp/display.h ****     \param y1  y Coordinate of the starting point
  55:../../libDaisy//src/hid/disp/display.h ****     \param x2  x Coordinate of the ending point
  56:../../libDaisy//src/hid/disp/display.h ****     \param y2  y Coordinate of the ending point
  57:../../libDaisy//src/hid/disp/display.h ****     \param on  on or off
  58:../../libDaisy//src/hid/disp/display.h ****     */
  59:../../libDaisy//src/hid/disp/display.h ****     virtual void DrawLine(uint_fast8_t x1,
  60:../../libDaisy//src/hid/disp/display.h ****                           uint_fast8_t y1,
  61:../../libDaisy//src/hid/disp/display.h ****                           uint_fast8_t x2,
  62:../../libDaisy//src/hid/disp/display.h ****                           uint_fast8_t y2,
  63:../../libDaisy//src/hid/disp/display.h ****                           bool         on)
  64:../../libDaisy//src/hid/disp/display.h ****         = 0;
  65:../../libDaisy//src/hid/disp/display.h **** 
  66:../../libDaisy//src/hid/disp/display.h ****     /**
  67:../../libDaisy//src/hid/disp/display.h ****     Draws a rectangle based on two coordinates.
  68:../../libDaisy//src/hid/disp/display.h ****     \param x1 x Coordinate of the first point
  69:../../libDaisy//src/hid/disp/display.h ****     \param y1 y Coordinate of the first point
  70:../../libDaisy//src/hid/disp/display.h ****     \param x2 x Coordinate of the second point
  71:../../libDaisy//src/hid/disp/display.h ****     \param y2 y Coordinate of the second point
  72:../../libDaisy//src/hid/disp/display.h ****     \param on on or off
  73:../../libDaisy//src/hid/disp/display.h ****     \param fill fill the rectangle or draw only the outline
  74:../../libDaisy//src/hid/disp/display.h ****     */
  75:../../libDaisy//src/hid/disp/display.h ****     virtual void DrawRect(uint_fast8_t x1,
  76:../../libDaisy//src/hid/disp/display.h ****                           uint_fast8_t y1,
  77:../../libDaisy//src/hid/disp/display.h ****                           uint_fast8_t x2,
  78:../../libDaisy//src/hid/disp/display.h ****                           uint_fast8_t y2,
  79:../../libDaisy//src/hid/disp/display.h ****                           bool         on,
  80:../../libDaisy//src/hid/disp/display.h ****                           bool         fill = false)
  81:../../libDaisy//src/hid/disp/display.h ****         = 0;
  82:../../libDaisy//src/hid/disp/display.h **** 
ARM GAS  /var/folders/hl/qgbwny5j0fd895c2c41bk3tw0000gp/T//cc9kFYNb.s 			page 12


  83:../../libDaisy//src/hid/disp/display.h ****     /**
  84:../../libDaisy//src/hid/disp/display.h ****     Draws a rectangle.
  85:../../libDaisy//src/hid/disp/display.h ****     \param rect the rectangle
  86:../../libDaisy//src/hid/disp/display.h ****     \param on   on or off
  87:../../libDaisy//src/hid/disp/display.h ****     \param fill fill the rectangle or draw only the outline
  88:../../libDaisy//src/hid/disp/display.h ****     */
  89:../../libDaisy//src/hid/disp/display.h ****     void DrawRect(const Rectangle& rect, bool on, bool fill = false)
  90:../../libDaisy//src/hid/disp/display.h ****     {
  91:../../libDaisy//src/hid/disp/display.h ****         DrawRect(rect.GetX(),
  92:../../libDaisy//src/hid/disp/display.h ****                  rect.GetY(),
  93:../../libDaisy//src/hid/disp/display.h ****                  rect.GetRight(),
  94:../../libDaisy//src/hid/disp/display.h ****                  rect.GetBottom(),
  95:../../libDaisy//src/hid/disp/display.h ****                  on,
  96:../../libDaisy//src/hid/disp/display.h ****                  fill);
  97:../../libDaisy//src/hid/disp/display.h ****     }
  98:../../libDaisy//src/hid/disp/display.h **** 
  99:../../libDaisy//src/hid/disp/display.h ****     /**
 100:../../libDaisy//src/hid/disp/display.h ****     Draws an arc around the specified coordinate
 101:../../libDaisy//src/hid/disp/display.h ****     \param x           x Coordinate of the center of the arc
 102:../../libDaisy//src/hid/disp/display.h ****     \param y           y Coordinate of the center of the arc
 103:../../libDaisy//src/hid/disp/display.h ****     \param radius      radius of the arc
 104:../../libDaisy//src/hid/disp/display.h ****     \param start_angle angle where to start the arc
 105:../../libDaisy//src/hid/disp/display.h ****     \param sweep       total angle of the arc
 106:../../libDaisy//src/hid/disp/display.h ****     \param on  on or off
 107:../../libDaisy//src/hid/disp/display.h ****     */
 108:../../libDaisy//src/hid/disp/display.h ****     virtual void DrawArc(uint_fast8_t x,
 109:../../libDaisy//src/hid/disp/display.h ****                          uint_fast8_t y,
 110:../../libDaisy//src/hid/disp/display.h ****                          uint_fast8_t radius,
 111:../../libDaisy//src/hid/disp/display.h ****                          int_fast16_t start_angle,
 112:../../libDaisy//src/hid/disp/display.h ****                          int_fast16_t sweep,
 113:../../libDaisy//src/hid/disp/display.h ****                          bool         on)
 114:../../libDaisy//src/hid/disp/display.h ****         = 0;
 115:../../libDaisy//src/hid/disp/display.h **** 
 116:../../libDaisy//src/hid/disp/display.h ****     /**
 117:../../libDaisy//src/hid/disp/display.h ****     Draws a circle around the specified coordinate
 118:../../libDaisy//src/hid/disp/display.h ****     \param x           x Coordinate of the center of the circle
 119:../../libDaisy//src/hid/disp/display.h ****     \param y           y Coordinate of the center of the circle
 120:../../libDaisy//src/hid/disp/display.h ****     \param radius      radius of the circle
 121:../../libDaisy//src/hid/disp/display.h ****     \param on  on or off
 122:../../libDaisy//src/hid/disp/display.h ****     */
 123:../../libDaisy//src/hid/disp/display.h ****     void
 124:../../libDaisy//src/hid/disp/display.h ****     DrawCircle(uint_fast8_t x, uint_fast8_t y, uint_fast8_t radius, bool on)
 125:../../libDaisy//src/hid/disp/display.h ****     {
 126:../../libDaisy//src/hid/disp/display.h ****         DrawArc(x, y, radius, 0, 360, on);
 127:../../libDaisy//src/hid/disp/display.h ****     };
 128:../../libDaisy//src/hid/disp/display.h **** 
 129:../../libDaisy//src/hid/disp/display.h ****     /** 
 130:../../libDaisy//src/hid/disp/display.h ****     Writes the character with the specific FontDef
 131:../../libDaisy//src/hid/disp/display.h ****     to the display buffer at the current Cursor position.
 132:../../libDaisy//src/hid/disp/display.h ****     \param ch character to be written
 133:../../libDaisy//src/hid/disp/display.h ****     \param font font to be written in
 134:../../libDaisy//src/hid/disp/display.h ****     \param on    on or off
 135:../../libDaisy//src/hid/disp/display.h ****     \return &
 136:../../libDaisy//src/hid/disp/display.h ****     */
 137:../../libDaisy//src/hid/disp/display.h ****     virtual char WriteChar(char ch, FontDef font, bool on) = 0;
 138:../../libDaisy//src/hid/disp/display.h **** 
 139:../../libDaisy//src/hid/disp/display.h ****     /** 
ARM GAS  /var/folders/hl/qgbwny5j0fd895c2c41bk3tw0000gp/T//cc9kFYNb.s 			page 13


 140:../../libDaisy//src/hid/disp/display.h ****     Similar to WriteChar, except it will handle an entire String.
 141:../../libDaisy//src/hid/disp/display.h ****     Wrapping does not happen automatically, so the width
 142:../../libDaisy//src/hid/disp/display.h ****     of the string must be kept within the dimensions of the screen.
 143:../../libDaisy//src/hid/disp/display.h ****     \param str string to be written
 144:../../libDaisy//src/hid/disp/display.h ****     \param font font to use
 145:../../libDaisy//src/hid/disp/display.h ****     \param on  on or off
 146:../../libDaisy//src/hid/disp/display.h ****     \return &
 147:../../libDaisy//src/hid/disp/display.h ****     */
 148:../../libDaisy//src/hid/disp/display.h ****     virtual char WriteString(const char* str, FontDef font, bool on) = 0;
 149:../../libDaisy//src/hid/disp/display.h **** 
 150:../../libDaisy//src/hid/disp/display.h ****     /** 
 151:../../libDaisy//src/hid/disp/display.h ****     Similar to WriteString but justified within a bounding box.
 152:../../libDaisy//src/hid/disp/display.h ****     \param str          string to be written
 153:../../libDaisy//src/hid/disp/display.h ****     \param font         font to use
 154:../../libDaisy//src/hid/disp/display.h ****     \param boundingBox  the bounding box to draw the text in
 155:../../libDaisy//src/hid/disp/display.h ****     \param alignment    the alignment to use
 156:../../libDaisy//src/hid/disp/display.h ****     \param on           on or off
 157:../../libDaisy//src/hid/disp/display.h ****     \return The rectangle that was drawn to
 158:../../libDaisy//src/hid/disp/display.h ****     */
 159:../../libDaisy//src/hid/disp/display.h ****     virtual Rectangle WriteStringAligned(const char*    str,
 160:../../libDaisy//src/hid/disp/display.h ****                                          const FontDef& font,
 161:../../libDaisy//src/hid/disp/display.h ****                                          Rectangle      boundingBox,
 162:../../libDaisy//src/hid/disp/display.h ****                                          Alignment      alignment,
 163:../../libDaisy//src/hid/disp/display.h ****                                          bool           on)
 164:../../libDaisy//src/hid/disp/display.h ****         = 0;
 165:../../libDaisy//src/hid/disp/display.h **** 
 166:../../libDaisy//src/hid/disp/display.h ****     /** 
 167:../../libDaisy//src/hid/disp/display.h ****     Moves the 'Cursor' position used for WriteChar, and WriteStr to the specified coordinate.
 168:../../libDaisy//src/hid/disp/display.h ****     \param x x pos
 169:../../libDaisy//src/hid/disp/display.h ****     \param y y pos
 170:../../libDaisy//src/hid/disp/display.h ****     */
 171:../../libDaisy//src/hid/disp/display.h ****     void SetCursor(uint16_t x, uint16_t y)
 172:../../libDaisy//src/hid/disp/display.h ****     {
 173:../../libDaisy//src/hid/disp/display.h ****         currentX_ = (x >= Width()) ? Width() - 1 : x;
 174:../../libDaisy//src/hid/disp/display.h ****         currentY_ = (y >= Height()) ? Height() - 1 : y;
 175:../../libDaisy//src/hid/disp/display.h ****     }
 176:../../libDaisy//src/hid/disp/display.h **** 
 177:../../libDaisy//src/hid/disp/display.h ****     /** 
 178:../../libDaisy//src/hid/disp/display.h ****     Writes the current display buffer to the OLED device using SPI or I2C depending on 
 179:../../libDaisy//src/hid/disp/display.h ****     how the object was initialized.
 180:../../libDaisy//src/hid/disp/display.h ****     */
 181:../../libDaisy//src/hid/disp/display.h ****     virtual void Update() = 0;
 182:../../libDaisy//src/hid/disp/display.h **** 
 183:../../libDaisy//src/hid/disp/display.h ****   protected:
 184:../../libDaisy//src/hid/disp/display.h ****     uint16_t currentX_;
 185:../../libDaisy//src/hid/disp/display.h ****     uint16_t currentY_;
 186:../../libDaisy//src/hid/disp/display.h **** };
 187:../../libDaisy//src/hid/disp/display.h **** 
 188:../../libDaisy//src/hid/disp/display.h **** /** This class is intended as a intermediary class for your actual implementation of the OneBitGrap
 189:../../libDaisy//src/hid/disp/display.h ****  *  interface. It uses the CRTP design pattern where the template argument is the child class. It p
 190:../../libDaisy//src/hid/disp/display.h ****  *  implementations for most of the functions, except DrawPixel(), Update() and Fill(), which you'l
 191:../../libDaisy//src/hid/disp/display.h ****  *  to provide in your child class.
 192:../../libDaisy//src/hid/disp/display.h ****  *  The main goal of this class is to provide common drawing functions without relying on massive a
 193:../../libDaisy//src/hid/disp/display.h ****  *  virtual function calls that would result in a performance loss. To achieve this, any drawing fu
 194:../../libDaisy//src/hid/disp/display.h ****  *  is implemented here and internally calls other drawing functions (e.g. DrawRect() which interna
 195:../../libDaisy//src/hid/disp/display.h ****  *  DrawPixel() and DrawLine()) makes these calls via the qualified name of these functions to expl
 196:../../libDaisy//src/hid/disp/display.h ****  *  suppress the virtual dispatch mechanism like this:
ARM GAS  /var/folders/hl/qgbwny5j0fd895c2c41bk3tw0000gp/T//cc9kFYNb.s 			page 14


 197:../../libDaisy//src/hid/disp/display.h ****  * 
 198:../../libDaisy//src/hid/disp/display.h ****  *      ChildType::DrawPixel(...); // no virtual function call; direct call into the child class fu
 199:../../libDaisy//src/hid/disp/display.h ****  *  
 200:../../libDaisy//src/hid/disp/display.h ****  *  To create a custom OneBitGraphicsDisplay implementation, you can 
 201:../../libDaisy//src/hid/disp/display.h ****  *  A) inherit from OneBitGraphicsDisplay directly and provide all the drawing functions yourself
 202:../../libDaisy//src/hid/disp/display.h ****  *  B) Inherit from OneBitGraphicsDisplayImpl and only provide DrawPixel(), Fill() and Update()
 203:../../libDaisy//src/hid/disp/display.h ****  *     like this:
 204:../../libDaisy//src/hid/disp/display.h ****  *  
 205:../../libDaisy//src/hid/disp/display.h ****  *      class MyDisplayClass : public OneBitGraphicsDisplayImpl<MyDisplayClass> 
 206:../../libDaisy//src/hid/disp/display.h ****  *      {
 207:../../libDaisy//src/hid/disp/display.h ****  *      public:
 208:../../libDaisy//src/hid/disp/display.h ****  *          void Fill() override { ... };
 209:../../libDaisy//src/hid/disp/display.h ****  *          void DrawPixel(uint_fast8_t x, uint_fast8_t y, bool on) override { ... };
 210:../../libDaisy//src/hid/disp/display.h ****  *          void Update() override { ... }
 211:../../libDaisy//src/hid/disp/display.h ****  *      };
 212:../../libDaisy//src/hid/disp/display.h ****  *  
 213:../../libDaisy//src/hid/disp/display.h ****  */
 214:../../libDaisy//src/hid/disp/display.h **** template <class ChildType>
 215:../../libDaisy//src/hid/disp/display.h **** class OneBitGraphicsDisplayImpl : public OneBitGraphicsDisplay
 216:../../libDaisy//src/hid/disp/display.h **** {
 217:../../libDaisy//src/hid/disp/display.h ****   public:
 218:../../libDaisy//src/hid/disp/display.h ****     OneBitGraphicsDisplayImpl() {}
 219:../../libDaisy//src/hid/disp/display.h ****     virtual ~OneBitGraphicsDisplayImpl() {}
 104              		.loc 9 219 13 view .LVU17
 105              	.LBB679:
 106              	.LBI679:
  23:../../libDaisy//src/hid/disp/display.h **** 
 107              		.loc 9 23 13 view .LVU18
  23:../../libDaisy//src/hid/disp/display.h **** 
 108              		.loc 9 23 13 is_stmt 0 view .LVU19
 109              	.LBE679:
 110              	.LBE678:
 111              		.loc 8 18 29 view .LVU20
 112 0000 7047     		bx	lr
 113              		.cfi_endproc
 114              	.LFE5220:
 116              		.weak	_ZN5daisy11OledDisplayINS_13SSD130xDriverILj128ELj64ENS_19SSD130xI2CTransportEEEED1Ev
 117              		.thumb_set _ZN5daisy11OledDisplayINS_13SSD130xDriverILj128ELj64ENS_19SSD130xI2CTransportEEEED1Ev,_
 118 0002 00BF     		.section	.text._ZN5daisy9Patch_BayD2Ev,"axG",%progbits,_ZN5daisy9Patch_BayD5Ev,comdat
 119              		.align	1
 120              		.p2align 2,,3
 121              		.weak	_ZN5daisy9Patch_BayD2Ev
 122              		.syntax unified
 123              		.thumb
 124              		.thumb_func
 125              		.fpu fpv5-d16
 127              	_ZN5daisy9Patch_BayD2Ev:
 128              	.LVL2:
 129              	.LFB5521:
 130              		.file 10 "patch_bay.h"
   1:patch_bay.h   **** #pragma once 
   2:patch_bay.h   **** #ifndef PATCH_BAY_BSP_H
   3:patch_bay.h   **** #define PATCH_BAY_BSP_H
   4:patch_bay.h   **** 
   5:patch_bay.h   **** #include "daisy.h"
   6:patch_bay.h   **** #include "daisy_patch_sm.h"
   7:patch_bay.h   **** #include "dev/oled_ssd130x.h"
ARM GAS  /var/folders/hl/qgbwny5j0fd895c2c41bk3tw0000gp/T//cc9kFYNb.s 			page 15


   8:patch_bay.h   **** 
   9:patch_bay.h   **** using namespace daisy;
  10:patch_bay.h   **** using namespace patch_sm;
  11:patch_bay.h   **** 
  12:patch_bay.h   **** namespace daisy {
  13:patch_bay.h   **** 
  14:patch_bay.h   **** class Patch_Bay
 131              		.loc 10 14 7 is_stmt 1 view -0
 132              		.cfi_startproc
 133              		@ args = 0, pretend = 0, frame = 0
 134              		@ frame_needed = 0, uses_anonymous_args = 0
 135              		@ link register save eliminated.
 136              	.LBB680:
 137              	.LBI680:
 138              		.file 11 "../../libDaisy//src/hid/led.h"
   1:../../libDaisy//src/hid/led.h **** 
   2:../../libDaisy//src/hid/led.h **** #pragma once
   3:../../libDaisy//src/hid/led.h **** #ifndef DSY_LED_H
   4:../../libDaisy//src/hid/led.h **** #define DSY_LED_H
   5:../../libDaisy//src/hid/led.h **** #include "daisy_core.h"
   6:../../libDaisy//src/hid/led.h **** #include "per/gpio.h"
   7:../../libDaisy//src/hid/led.h **** 
   8:../../libDaisy//src/hid/led.h **** /* TODO - Get this set up to work with the dev_leddriver stuff as well
   9:../../libDaisy//src/hid/led.h **** - Setup Hardware PWM for pins that have it
  10:../../libDaisy//src/hid/led.h **** */
  11:../../libDaisy//src/hid/led.h **** 
  12:../../libDaisy//src/hid/led.h **** namespace daisy
  13:../../libDaisy//src/hid/led.h **** {
  14:../../libDaisy//src/hid/led.h **** /**
  15:../../libDaisy//src/hid/led.h ****     @brief LED Class providing simple Software PWM ability, etc \n 
  16:../../libDaisy//src/hid/led.h ****     Eventually this will work with hardware PWM, and external LED Driver devices as well.
  17:../../libDaisy//src/hid/led.h ****     @author shensley
  18:../../libDaisy//src/hid/led.h ****     @date March 2020
  19:../../libDaisy//src/hid/led.h ****     @ingroup feedback
  20:../../libDaisy//src/hid/led.h **** */
  21:../../libDaisy//src/hid/led.h **** class Led
  22:../../libDaisy//src/hid/led.h **** {
  23:../../libDaisy//src/hid/led.h ****   public:
  24:../../libDaisy//src/hid/led.h ****     Led() {}
  25:../../libDaisy//src/hid/led.h ****     ~Led() {}
 139              		.loc 11 25 5 view .LVU22
 140              		.loc 11 25 5 is_stmt 0 view .LVU23
 141              	.LBE680:
 142              	.LBB681:
 143              	.LBI681:
 144              		.loc 11 25 5 is_stmt 1 view .LVU24
 145              		.loc 11 25 5 is_stmt 0 view .LVU25
 146              	.LBE681:
 147              	.LBB682:
 148              	.LBI682:
 149              		.loc 11 25 5 is_stmt 1 view .LVU26
 150              		.loc 11 25 5 is_stmt 0 view .LVU27
 151              	.LBE682:
 152              	.LBB683:
 153              	.LBI683:
 154              		.loc 8 18 13 is_stmt 1 view .LVU28
 155              	.LBB684:
ARM GAS  /var/folders/hl/qgbwny5j0fd895c2c41bk3tw0000gp/T//cc9kFYNb.s 			page 16


 156              	.LBI684:
 157              		.loc 9 219 13 view .LVU29
 158              	.LBB685:
 159              	.LBI685:
  23:../../libDaisy//src/hid/disp/display.h **** 
 160              		.loc 9 23 13 view .LVU30
  23:../../libDaisy//src/hid/disp/display.h **** 
 161              		.loc 9 23 13 is_stmt 0 view .LVU31
 162              	.LBE685:
 163              	.LBE684:
 164              	.LBE683:
 165              	.LBB686:
 166              	.LBI686:
 167              		.file 12 "../../libDaisy//src/hid/encoder.h"
   1:../../libDaisy//src/hid/encoder.h **** #pragma once
   2:../../libDaisy//src/hid/encoder.h **** #ifndef DSY_ENCODER_H
   3:../../libDaisy//src/hid/encoder.h **** #define DSY_ENCODER_H
   4:../../libDaisy//src/hid/encoder.h **** #include "daisy_core.h"
   5:../../libDaisy//src/hid/encoder.h **** #include "per/gpio.h"
   6:../../libDaisy//src/hid/encoder.h **** #include "hid/switch.h"
   7:../../libDaisy//src/hid/encoder.h **** 
   8:../../libDaisy//src/hid/encoder.h **** namespace daisy
   9:../../libDaisy//src/hid/encoder.h **** {
  10:../../libDaisy//src/hid/encoder.h **** /** 
  11:../../libDaisy//src/hid/encoder.h ****     @brief Generic Class for handling Quadrature Encoders \n 
  12:../../libDaisy//src/hid/encoder.h ****     Inspired/influenced by Mutable Instruments (pichenettes) Encoder classes
  13:../../libDaisy//src/hid/encoder.h ****     @author Stephen Hensley
  14:../../libDaisy//src/hid/encoder.h ****     @date December 2019
  15:../../libDaisy//src/hid/encoder.h ****     @ingroup controls
  16:../../libDaisy//src/hid/encoder.h **** */
  17:../../libDaisy//src/hid/encoder.h **** class Encoder
  18:../../libDaisy//src/hid/encoder.h **** {
  19:../../libDaisy//src/hid/encoder.h ****   public:
  20:../../libDaisy//src/hid/encoder.h ****     Encoder() {}
  21:../../libDaisy//src/hid/encoder.h ****     ~Encoder() {}
 168              		.loc 12 21 5 is_stmt 1 view .LVU32
 169              	.LBB687:
 170              	.LBI687:
 171              		.file 13 "../../libDaisy//src/hid/switch.h"
   1:../../libDaisy//src/hid/switch.h **** #pragma once
   2:../../libDaisy//src/hid/switch.h **** #ifndef DSY_SWITCH_H
   3:../../libDaisy//src/hid/switch.h **** #define DSY_SWITCH_H
   4:../../libDaisy//src/hid/switch.h **** #include "daisy_core.h"
   5:../../libDaisy//src/hid/switch.h **** #include "per/gpio.h"
   6:../../libDaisy//src/hid/switch.h **** #include "sys/system.h"
   7:../../libDaisy//src/hid/switch.h **** 
   8:../../libDaisy//src/hid/switch.h **** namespace daisy
   9:../../libDaisy//src/hid/switch.h **** {
  10:../../libDaisy//src/hid/switch.h **** /** 
  11:../../libDaisy//src/hid/switch.h ****     Generic Class for handling momentary/latching switches \n 
  12:../../libDaisy//src/hid/switch.h ****     Inspired/influenced by Mutable Instruments (pichenettes) Switch classes
  13:../../libDaisy//src/hid/switch.h ****     @author Stephen Hensley
  14:../../libDaisy//src/hid/switch.h ****     @date December 2019
  15:../../libDaisy//src/hid/switch.h ****     @ingroup controls
  16:../../libDaisy//src/hid/switch.h **** */
  17:../../libDaisy//src/hid/switch.h **** class Switch
  18:../../libDaisy//src/hid/switch.h **** {
ARM GAS  /var/folders/hl/qgbwny5j0fd895c2c41bk3tw0000gp/T//cc9kFYNb.s 			page 17


  19:../../libDaisy//src/hid/switch.h ****   public:
  20:../../libDaisy//src/hid/switch.h ****     /** Specifies the expected behavior of the switch */
  21:../../libDaisy//src/hid/switch.h ****     enum Type
  22:../../libDaisy//src/hid/switch.h ****     {
  23:../../libDaisy//src/hid/switch.h ****         TYPE_TOGGLE,    /**< & */
  24:../../libDaisy//src/hid/switch.h ****         TYPE_MOMENTARY, /**< & */
  25:../../libDaisy//src/hid/switch.h ****     };
  26:../../libDaisy//src/hid/switch.h ****     /** Specifies whether the pressed is HIGH or LOW. */
  27:../../libDaisy//src/hid/switch.h ****     enum Polarity
  28:../../libDaisy//src/hid/switch.h ****     {
  29:../../libDaisy//src/hid/switch.h ****         POLARITY_NORMAL,   /**< & */
  30:../../libDaisy//src/hid/switch.h ****         POLARITY_INVERTED, /**< & */
  31:../../libDaisy//src/hid/switch.h ****     };
  32:../../libDaisy//src/hid/switch.h **** 
  33:../../libDaisy//src/hid/switch.h ****     /** Specifies whether to use built-in Pull Up/Down resistors to hold button at a given state wh
  34:../../libDaisy//src/hid/switch.h ****     enum Pull
  35:../../libDaisy//src/hid/switch.h ****     {
  36:../../libDaisy//src/hid/switch.h ****         PULL_UP,   /**< & */
  37:../../libDaisy//src/hid/switch.h ****         PULL_DOWN, /**< & */
  38:../../libDaisy//src/hid/switch.h ****         PULL_NONE, /**< & */
  39:../../libDaisy//src/hid/switch.h ****     };
  40:../../libDaisy//src/hid/switch.h **** 
  41:../../libDaisy//src/hid/switch.h ****     Switch() {}
  42:../../libDaisy//src/hid/switch.h ****     ~Switch() {}
 172              		.loc 13 42 5 view .LVU33
 173              		.loc 13 42 5 is_stmt 0 view .LVU34
 174              	.LBE687:
 175              	.LBE686:
 176              	.LBB688:
 177              	.LBI688:
 178              		.loc 13 42 5 is_stmt 1 view .LVU35
 179              		.loc 13 42 5 is_stmt 0 view .LVU36
 180              	.LBE688:
 181              	.LBB689:
 182              	.LBI689:
 183              		.file 14 "../../libDaisy//src/per/sdmmc.h"
   1:../../libDaisy//src/per/sdmmc.h **** /*
   2:../../libDaisy//src/per/sdmmc.h **** TODO: 
   3:../../libDaisy//src/per/sdmmc.h **** - Implement configuration (currently all settings are fixed).
   4:../../libDaisy//src/per/sdmmc.h **** */
   5:../../libDaisy//src/per/sdmmc.h **** #pragma once
   6:../../libDaisy//src/per/sdmmc.h **** #ifndef DSY_SDMMC_H
   7:../../libDaisy//src/per/sdmmc.h **** #define DSY_SDMMC_H /**< macro */
   8:../../libDaisy//src/per/sdmmc.h **** 
   9:../../libDaisy//src/per/sdmmc.h **** #include <stdint.h>
  10:../../libDaisy//src/per/sdmmc.h **** 
  11:../../libDaisy//src/per/sdmmc.h **** 
  12:../../libDaisy//src/per/sdmmc.h **** namespace daisy
  13:../../libDaisy//src/per/sdmmc.h **** {
  14:../../libDaisy//src/per/sdmmc.h **** /** @ingroup peripheral
  15:../../libDaisy//src/per/sdmmc.h ****     @{
  16:../../libDaisy//src/per/sdmmc.h ****     */
  17:../../libDaisy//src/per/sdmmc.h **** 
  18:../../libDaisy//src/per/sdmmc.h **** /** Configuration for interfacing with SD cards.
  19:../../libDaisy//src/per/sdmmc.h ****  *  Currently only supports operation using FatFS filesystem
  20:../../libDaisy//src/per/sdmmc.h ****  * 
  21:../../libDaisy//src/per/sdmmc.h ****  *  Only SDMMC1 is supported at this time.
ARM GAS  /var/folders/hl/qgbwny5j0fd895c2c41bk3tw0000gp/T//cc9kFYNb.s 			page 18


  22:../../libDaisy//src/per/sdmmc.h ****  *
  23:../../libDaisy//src/per/sdmmc.h ****  *  Pins are fixed to the following:
  24:../../libDaisy//src/per/sdmmc.h ****  *  PC12 - SDMMC1 CK
  25:../../libDaisy//src/per/sdmmc.h ****  *  PD2  - SDMMC1 CMD
  26:../../libDaisy//src/per/sdmmc.h ****  *  PC8  - SDMMC1 D0
  27:../../libDaisy//src/per/sdmmc.h ****  *  PC9  - SDMMC1 D1 (optional)
  28:../../libDaisy//src/per/sdmmc.h ****  *  PC10 - SDMMC1 D2 (optional)
  29:../../libDaisy//src/per/sdmmc.h ****  *  PC11 - SDMMC1 D3 (optional)
  30:../../libDaisy//src/per/sdmmc.h **** */
  31:../../libDaisy//src/per/sdmmc.h **** class SdmmcHandler
  32:../../libDaisy//src/per/sdmmc.h **** {
  33:../../libDaisy//src/per/sdmmc.h ****   public:
  34:../../libDaisy//src/per/sdmmc.h ****     /** Return values for the SdmmcHandler class */
  35:../../libDaisy//src/per/sdmmc.h ****     enum class Result
  36:../../libDaisy//src/per/sdmmc.h ****     {
  37:../../libDaisy//src/per/sdmmc.h ****         OK,
  38:../../libDaisy//src/per/sdmmc.h ****         ERROR,
  39:../../libDaisy//src/per/sdmmc.h ****     };
  40:../../libDaisy//src/per/sdmmc.h **** 
  41:../../libDaisy//src/per/sdmmc.h ****     /** Sets whether 4-bit mode or 1-bit mode is used for the SDMMC */
  42:../../libDaisy//src/per/sdmmc.h ****     enum class BusWidth
  43:../../libDaisy//src/per/sdmmc.h ****     {
  44:../../libDaisy//src/per/sdmmc.h ****         BITS_1, /**< Only 1 bit of data per clock is transferred */
  45:../../libDaisy//src/per/sdmmc.h ****         BITS_4, /**< 4-bits of parallel data for each clock pulse */
  46:../../libDaisy//src/per/sdmmc.h ****     };
  47:../../libDaisy//src/per/sdmmc.h **** 
  48:../../libDaisy//src/per/sdmmc.h ****     /** 
  49:../../libDaisy//src/per/sdmmc.h ****     Sets the desired clock speed of the SD card bus. \n 
  50:../../libDaisy//src/per/sdmmc.h ****     Initialization is always done at or below 400kHz, and then the user speed is set.
  51:../../libDaisy//src/per/sdmmc.h ****     */
  52:../../libDaisy//src/per/sdmmc.h ****     enum class Speed
  53:../../libDaisy//src/per/sdmmc.h ****     {
  54:../../libDaisy//src/per/sdmmc.h ****         SLOW, /**< 400kHz, initialization  performed at this rate, before moving to user value */
  55:../../libDaisy//src/per/sdmmc.h ****         MEDIUM_SLOW, /**< 12.5MHz - half of standard rate */
  56:../../libDaisy//src/per/sdmmc.h ****         STANDARD,    /**< 25MHz - DS (Default Speed for SDMMC) */
  57:../../libDaisy//src/per/sdmmc.h ****         FAST,        /**< 50MHz - HS (High Speed signaling) */
  58:../../libDaisy//src/per/sdmmc.h ****         VERY_FAST, /**< 100MHz - SDR50 Overclocked rate for maximum transfer rates */
  59:../../libDaisy//src/per/sdmmc.h ****     };
  60:../../libDaisy//src/per/sdmmc.h **** 
  61:../../libDaisy//src/per/sdmmc.h ****     struct Config
  62:../../libDaisy//src/per/sdmmc.h ****     {
  63:../../libDaisy//src/per/sdmmc.h ****         Speed    speed;
  64:../../libDaisy//src/per/sdmmc.h ****         BusWidth width;
  65:../../libDaisy//src/per/sdmmc.h ****         bool
  66:../../libDaisy//src/per/sdmmc.h ****             clock_powersave; /**< When true, the clock will stop between transfers to save power. *
  67:../../libDaisy//src/per/sdmmc.h **** 
  68:../../libDaisy//src/per/sdmmc.h ****         /** Configures settings to their default settings */
  69:../../libDaisy//src/per/sdmmc.h ****         void Defaults()
  70:../../libDaisy//src/per/sdmmc.h ****         {
  71:../../libDaisy//src/per/sdmmc.h ****             speed           = Speed::FAST;
  72:../../libDaisy//src/per/sdmmc.h ****             width           = BusWidth::BITS_4;
  73:../../libDaisy//src/per/sdmmc.h ****             clock_powersave = false;
  74:../../libDaisy//src/per/sdmmc.h ****         }
  75:../../libDaisy//src/per/sdmmc.h ****     };
  76:../../libDaisy//src/per/sdmmc.h **** 
  77:../../libDaisy//src/per/sdmmc.h ****     SdmmcHandler() {}
  78:../../libDaisy//src/per/sdmmc.h ****     ~SdmmcHandler() {}
ARM GAS  /var/folders/hl/qgbwny5j0fd895c2c41bk3tw0000gp/T//cc9kFYNb.s 			page 19


 184              		.loc 14 78 5 is_stmt 1 view .LVU37
 185              		.loc 14 78 5 is_stmt 0 view .LVU38
 186              	.LBE689:
 187              		.loc 10 14 7 view .LVU39
 188 0000 7047     		bx	lr
 189              		.cfi_endproc
 190              	.LFE5521:
 192              		.weak	_ZN5daisy9Patch_BayD1Ev
 193              		.thumb_set _ZN5daisy9Patch_BayD1Ev,_ZN5daisy9Patch_BayD2Ev
 194 0002 00BF     		.section	.text._ZNK5daisy11OledDisplayINS_13SSD130xDriverILj128ELj64ENS_19SSD130xI2CTransportEEEE6
 195              		.align	1
 196              		.p2align 2,,3
 197              		.weak	_ZNK5daisy11OledDisplayINS_13SSD130xDriverILj128ELj64ENS_19SSD130xI2CTransportEEEE6HeightEv
 198              		.syntax unified
 199              		.thumb
 200              		.thumb_func
 201              		.fpu fpv5-d16
 203              	_ZNK5daisy11OledDisplayINS_13SSD130xDriverILj128ELj64ENS_19SSD130xI2CTransportEEEE6HeightEv:
 204              	.LVL3:
 205              	.LFB5523:
  19:../../libDaisy//src/hid/disp/oled_display.h **** 
  20:../../libDaisy//src/hid/disp/oled_display.h ****     struct Config
  21:../../libDaisy//src/hid/disp/oled_display.h ****     {
  22:../../libDaisy//src/hid/disp/oled_display.h ****         typename DisplayDriver::Config driver_config;
  23:../../libDaisy//src/hid/disp/oled_display.h ****     };
  24:../../libDaisy//src/hid/disp/oled_display.h **** 
  25:../../libDaisy//src/hid/disp/oled_display.h ****     void Init(Config config) { driver_.Init(config.driver_config); }
  26:../../libDaisy//src/hid/disp/oled_display.h **** 
  27:../../libDaisy//src/hid/disp/oled_display.h ****     uint16_t Height() const override { return driver_.Height(); }
 206              		.loc 8 27 14 is_stmt 1 view -0
 207              		.cfi_startproc
 208              		@ args = 0, pretend = 0, frame = 0
 209              		@ frame_needed = 0, uses_anonymous_args = 0
 210              		@ link register save eliminated.
 211              		.loc 8 27 65 is_stmt 0 view .LVU41
 212 0000 4020     		movs	r0, #64
 213              	.LVL4:
 214              		.loc 8 27 65 view .LVU42
 215 0002 7047     		bx	lr
 216              		.cfi_endproc
 217              	.LFE5523:
 219              		.section	.text._ZNK5daisy11OledDisplayINS_13SSD130xDriverILj128ELj64ENS_19SSD130xI2CTransportEEEE5
 220              		.align	1
 221              		.p2align 2,,3
 222              		.weak	_ZNK5daisy11OledDisplayINS_13SSD130xDriverILj128ELj64ENS_19SSD130xI2CTransportEEEE5WidthEv
 223              		.syntax unified
 224              		.thumb
 225              		.thumb_func
 226              		.fpu fpv5-d16
 228              	_ZNK5daisy11OledDisplayINS_13SSD130xDriverILj128ELj64ENS_19SSD130xI2CTransportEEEE5WidthEv:
 229              	.LVL5:
 230              	.LFB5524:
  28:../../libDaisy//src/hid/disp/oled_display.h ****     uint16_t Width() const override { return driver_.Width(); }
 231              		.loc 8 28 14 is_stmt 1 view -0
 232              		.cfi_startproc
 233              		@ args = 0, pretend = 0, frame = 0
 234              		@ frame_needed = 0, uses_anonymous_args = 0
ARM GAS  /var/folders/hl/qgbwny5j0fd895c2c41bk3tw0000gp/T//cc9kFYNb.s 			page 20


 235              		@ link register save eliminated.
 236              		.loc 8 28 63 is_stmt 0 view .LVU44
 237 0000 8020     		movs	r0, #128
 238              	.LVL6:
 239              		.loc 8 28 63 view .LVU45
 240 0002 7047     		bx	lr
 241              		.cfi_endproc
 242              	.LFE5524:
 244              		.section	.text._ZN5daisy11OledDisplayINS_13SSD130xDriverILj128ELj64ENS_19SSD130xI2CTransportEEEE4F
 245              		.align	1
 246              		.p2align 2,,3
 247              		.weak	_ZN5daisy11OledDisplayINS_13SSD130xDriverILj128ELj64ENS_19SSD130xI2CTransportEEEE4FillEb
 248              		.syntax unified
 249              		.thumb
 250              		.thumb_func
 251              		.fpu fpv5-d16
 253              	_ZN5daisy11OledDisplayINS_13SSD130xDriverILj128ELj64ENS_19SSD130xI2CTransportEEEE4FillEb:
 254              	.LVL7:
 255              	.LFB5525:
  29:../../libDaisy//src/hid/disp/oled_display.h **** 
  30:../../libDaisy//src/hid/disp/oled_display.h ****     /** 
  31:../../libDaisy//src/hid/disp/oled_display.h ****     Fills the entire display with either on/off.
  32:../../libDaisy//src/hid/disp/oled_display.h ****     \param on Sets on or off.
  33:../../libDaisy//src/hid/disp/oled_display.h ****     */
  34:../../libDaisy//src/hid/disp/oled_display.h ****     void Fill(bool on) override { driver_.Fill(on); }
 256              		.loc 8 34 10 is_stmt 1 view -0
 257              		.cfi_startproc
 258              		@ args = 0, pretend = 0, frame = 0
 259              		@ frame_needed = 0, uses_anonymous_args = 0
 260              		@ link register save eliminated.
 261              	.LBB690:
 262              	.LBI690:
 263              		.file 15 "../../libDaisy//src/dev/oled_ssd130x.h"
   1:../../libDaisy//src/dev/oled_ssd130x.h **** #pragma once
   2:../../libDaisy//src/dev/oled_ssd130x.h **** #ifndef SA_OLED_SSD130X_H
   3:../../libDaisy//src/dev/oled_ssd130x.h **** #define SA_OLED_SSD130X_H /**< & */
   4:../../libDaisy//src/dev/oled_ssd130x.h **** 
   5:../../libDaisy//src/dev/oled_ssd130x.h **** #include "per/i2c.h"
   6:../../libDaisy//src/dev/oled_ssd130x.h **** #include "per/spi.h"
   7:../../libDaisy//src/dev/oled_ssd130x.h **** #include "per/gpio.h"
   8:../../libDaisy//src/dev/oled_ssd130x.h **** #include "sys/system.h"
   9:../../libDaisy//src/dev/oled_ssd130x.h **** 
  10:../../libDaisy//src/dev/oled_ssd130x.h **** namespace daisy
  11:../../libDaisy//src/dev/oled_ssd130x.h **** {
  12:../../libDaisy//src/dev/oled_ssd130x.h **** /**
  13:../../libDaisy//src/dev/oled_ssd130x.h ****  * I2C Transport for SSD1306 / SSD1309 OLED display devices
  14:../../libDaisy//src/dev/oled_ssd130x.h ****  */
  15:../../libDaisy//src/dev/oled_ssd130x.h **** class SSD130xI2CTransport
  16:../../libDaisy//src/dev/oled_ssd130x.h **** {
  17:../../libDaisy//src/dev/oled_ssd130x.h ****   public:
  18:../../libDaisy//src/dev/oled_ssd130x.h ****     struct Config
  19:../../libDaisy//src/dev/oled_ssd130x.h ****     {
  20:../../libDaisy//src/dev/oled_ssd130x.h ****         Config()
  21:../../libDaisy//src/dev/oled_ssd130x.h ****         {
  22:../../libDaisy//src/dev/oled_ssd130x.h ****             // Intialize using defaults
  23:../../libDaisy//src/dev/oled_ssd130x.h ****             Defaults();
  24:../../libDaisy//src/dev/oled_ssd130x.h ****         }
ARM GAS  /var/folders/hl/qgbwny5j0fd895c2c41bk3tw0000gp/T//cc9kFYNb.s 			page 21


  25:../../libDaisy//src/dev/oled_ssd130x.h ****         I2CHandle::Config i2c_config;
  26:../../libDaisy//src/dev/oled_ssd130x.h ****         uint8_t           i2c_address;
  27:../../libDaisy//src/dev/oled_ssd130x.h ****         void              Defaults()
  28:../../libDaisy//src/dev/oled_ssd130x.h ****         {
  29:../../libDaisy//src/dev/oled_ssd130x.h ****             i2c_config.periph         = I2CHandle::Config::Peripheral::I2C_1;
  30:../../libDaisy//src/dev/oled_ssd130x.h ****             i2c_config.speed          = I2CHandle::Config::Speed::I2C_1MHZ;
  31:../../libDaisy//src/dev/oled_ssd130x.h ****             i2c_config.mode           = I2CHandle::Config::Mode::I2C_MASTER;
  32:../../libDaisy//src/dev/oled_ssd130x.h ****             i2c_config.pin_config.scl = {DSY_GPIOB, 8};
  33:../../libDaisy//src/dev/oled_ssd130x.h ****             i2c_config.pin_config.sda = {DSY_GPIOB, 9};
  34:../../libDaisy//src/dev/oled_ssd130x.h ****             i2c_address               = 0x3C;
  35:../../libDaisy//src/dev/oled_ssd130x.h ****         }
  36:../../libDaisy//src/dev/oled_ssd130x.h ****     };
  37:../../libDaisy//src/dev/oled_ssd130x.h ****     void Init(const Config& config)
  38:../../libDaisy//src/dev/oled_ssd130x.h ****     {
  39:../../libDaisy//src/dev/oled_ssd130x.h ****         i2c_address_ = config.i2c_address;
  40:../../libDaisy//src/dev/oled_ssd130x.h ****         i2c_.Init(config.i2c_config);
  41:../../libDaisy//src/dev/oled_ssd130x.h ****     };
  42:../../libDaisy//src/dev/oled_ssd130x.h ****     void SendCommand(uint8_t cmd)
  43:../../libDaisy//src/dev/oled_ssd130x.h ****     {
  44:../../libDaisy//src/dev/oled_ssd130x.h ****         uint8_t buf[2] = {0X00, cmd};
  45:../../libDaisy//src/dev/oled_ssd130x.h ****         i2c_.TransmitBlocking(i2c_address_, buf, 2, 1000);
  46:../../libDaisy//src/dev/oled_ssd130x.h ****     };
  47:../../libDaisy//src/dev/oled_ssd130x.h **** 
  48:../../libDaisy//src/dev/oled_ssd130x.h ****     void SendData(uint8_t* buff, size_t size)
  49:../../libDaisy//src/dev/oled_ssd130x.h ****     {
  50:../../libDaisy//src/dev/oled_ssd130x.h ****         for(size_t i = 0; i < size; i++)
  51:../../libDaisy//src/dev/oled_ssd130x.h ****         {
  52:../../libDaisy//src/dev/oled_ssd130x.h ****             uint8_t buf[2] = {0X40, buff[i]};
  53:../../libDaisy//src/dev/oled_ssd130x.h ****             i2c_.TransmitBlocking(i2c_address_, buf, 2, 1000);
  54:../../libDaisy//src/dev/oled_ssd130x.h ****         }
  55:../../libDaisy//src/dev/oled_ssd130x.h ****     };
  56:../../libDaisy//src/dev/oled_ssd130x.h **** 
  57:../../libDaisy//src/dev/oled_ssd130x.h ****   private:
  58:../../libDaisy//src/dev/oled_ssd130x.h ****     daisy::I2CHandle i2c_;
  59:../../libDaisy//src/dev/oled_ssd130x.h ****     uint8_t          i2c_address_;
  60:../../libDaisy//src/dev/oled_ssd130x.h **** };
  61:../../libDaisy//src/dev/oled_ssd130x.h **** 
  62:../../libDaisy//src/dev/oled_ssd130x.h **** /**
  63:../../libDaisy//src/dev/oled_ssd130x.h ****  * 4 Wire SPI Transport for SSD1306 / SSD1309 OLED display devices
  64:../../libDaisy//src/dev/oled_ssd130x.h ****  */
  65:../../libDaisy//src/dev/oled_ssd130x.h **** class SSD130x4WireSpiTransport
  66:../../libDaisy//src/dev/oled_ssd130x.h **** {
  67:../../libDaisy//src/dev/oled_ssd130x.h ****   public:
  68:../../libDaisy//src/dev/oled_ssd130x.h ****     struct Config
  69:../../libDaisy//src/dev/oled_ssd130x.h ****     {
  70:../../libDaisy//src/dev/oled_ssd130x.h ****         Config()
  71:../../libDaisy//src/dev/oled_ssd130x.h ****         {
  72:../../libDaisy//src/dev/oled_ssd130x.h ****             // Initialize using defaults
  73:../../libDaisy//src/dev/oled_ssd130x.h ****             Defaults();
  74:../../libDaisy//src/dev/oled_ssd130x.h ****         }
  75:../../libDaisy//src/dev/oled_ssd130x.h ****         SpiHandle::Config spi_config;
  76:../../libDaisy//src/dev/oled_ssd130x.h ****         struct
  77:../../libDaisy//src/dev/oled_ssd130x.h ****         {
  78:../../libDaisy//src/dev/oled_ssd130x.h ****             dsy_gpio_pin dc;    /**< & */
  79:../../libDaisy//src/dev/oled_ssd130x.h ****             dsy_gpio_pin reset; /**< & */
  80:../../libDaisy//src/dev/oled_ssd130x.h ****         } pin_config;
  81:../../libDaisy//src/dev/oled_ssd130x.h ****         void Defaults()
ARM GAS  /var/folders/hl/qgbwny5j0fd895c2c41bk3tw0000gp/T//cc9kFYNb.s 			page 22


  82:../../libDaisy//src/dev/oled_ssd130x.h ****         {
  83:../../libDaisy//src/dev/oled_ssd130x.h ****             // SPI peripheral config
  84:../../libDaisy//src/dev/oled_ssd130x.h ****             spi_config.periph = SpiHandle::Config::Peripheral::SPI_1;
  85:../../libDaisy//src/dev/oled_ssd130x.h ****             spi_config.mode   = SpiHandle::Config::Mode::MASTER;
  86:../../libDaisy//src/dev/oled_ssd130x.h ****             spi_config.direction
  87:../../libDaisy//src/dev/oled_ssd130x.h ****                 = SpiHandle::Config::Direction::TWO_LINES_TX_ONLY;
  88:../../libDaisy//src/dev/oled_ssd130x.h ****             spi_config.datasize       = 8;
  89:../../libDaisy//src/dev/oled_ssd130x.h ****             spi_config.clock_polarity = SpiHandle::Config::ClockPolarity::LOW;
  90:../../libDaisy//src/dev/oled_ssd130x.h ****             spi_config.clock_phase    = SpiHandle::Config::ClockPhase::ONE_EDGE;
  91:../../libDaisy//src/dev/oled_ssd130x.h ****             spi_config.nss            = SpiHandle::Config::NSS::HARD_OUTPUT;
  92:../../libDaisy//src/dev/oled_ssd130x.h ****             spi_config.baud_prescaler = SpiHandle::Config::BaudPrescaler::PS_8;
  93:../../libDaisy//src/dev/oled_ssd130x.h ****             // SPI pin config
  94:../../libDaisy//src/dev/oled_ssd130x.h ****             spi_config.pin_config.sclk = {DSY_GPIOG, 11};
  95:../../libDaisy//src/dev/oled_ssd130x.h ****             spi_config.pin_config.miso = {DSY_GPIOX, 0};
  96:../../libDaisy//src/dev/oled_ssd130x.h ****             spi_config.pin_config.mosi = {DSY_GPIOB, 5};
  97:../../libDaisy//src/dev/oled_ssd130x.h ****             spi_config.pin_config.nss  = {DSY_GPIOG, 10};
  98:../../libDaisy//src/dev/oled_ssd130x.h ****             // SSD130x control pin config
  99:../../libDaisy//src/dev/oled_ssd130x.h ****             pin_config.dc    = {DSY_GPIOB, 4};
 100:../../libDaisy//src/dev/oled_ssd130x.h ****             pin_config.reset = {DSY_GPIOB, 15};
 101:../../libDaisy//src/dev/oled_ssd130x.h ****         }
 102:../../libDaisy//src/dev/oled_ssd130x.h ****     };
 103:../../libDaisy//src/dev/oled_ssd130x.h ****     void Init(const Config& config)
 104:../../libDaisy//src/dev/oled_ssd130x.h ****     {
 105:../../libDaisy//src/dev/oled_ssd130x.h ****         // Initialize both GPIO
 106:../../libDaisy//src/dev/oled_ssd130x.h ****         pin_dc_.mode = DSY_GPIO_MODE_OUTPUT_PP;
 107:../../libDaisy//src/dev/oled_ssd130x.h ****         pin_dc_.pin  = config.pin_config.dc;
 108:../../libDaisy//src/dev/oled_ssd130x.h ****         dsy_gpio_init(&pin_dc_);
 109:../../libDaisy//src/dev/oled_ssd130x.h ****         pin_reset_.mode = DSY_GPIO_MODE_OUTPUT_PP;
 110:../../libDaisy//src/dev/oled_ssd130x.h ****         pin_reset_.pin  = config.pin_config.reset;
 111:../../libDaisy//src/dev/oled_ssd130x.h ****         dsy_gpio_init(&pin_reset_);
 112:../../libDaisy//src/dev/oled_ssd130x.h **** 
 113:../../libDaisy//src/dev/oled_ssd130x.h ****         // Initialize SPI
 114:../../libDaisy//src/dev/oled_ssd130x.h ****         spi_.Init(config.spi_config);
 115:../../libDaisy//src/dev/oled_ssd130x.h **** 
 116:../../libDaisy//src/dev/oled_ssd130x.h ****         // Reset and Configure OLED.
 117:../../libDaisy//src/dev/oled_ssd130x.h ****         dsy_gpio_write(&pin_reset_, 0);
 118:../../libDaisy//src/dev/oled_ssd130x.h ****         System::Delay(10);
 119:../../libDaisy//src/dev/oled_ssd130x.h ****         dsy_gpio_write(&pin_reset_, 1);
 120:../../libDaisy//src/dev/oled_ssd130x.h ****         System::Delay(10);
 121:../../libDaisy//src/dev/oled_ssd130x.h ****     };
 122:../../libDaisy//src/dev/oled_ssd130x.h ****     void SendCommand(uint8_t cmd)
 123:../../libDaisy//src/dev/oled_ssd130x.h ****     {
 124:../../libDaisy//src/dev/oled_ssd130x.h ****         dsy_gpio_write(&pin_dc_, 0);
 125:../../libDaisy//src/dev/oled_ssd130x.h ****         spi_.BlockingTransmit(&cmd, 1);
 126:../../libDaisy//src/dev/oled_ssd130x.h ****     };
 127:../../libDaisy//src/dev/oled_ssd130x.h **** 
 128:../../libDaisy//src/dev/oled_ssd130x.h ****     void SendData(uint8_t* buff, size_t size)
 129:../../libDaisy//src/dev/oled_ssd130x.h ****     {
 130:../../libDaisy//src/dev/oled_ssd130x.h ****         dsy_gpio_write(&pin_dc_, 1);
 131:../../libDaisy//src/dev/oled_ssd130x.h ****         spi_.BlockingTransmit(buff, size);
 132:../../libDaisy//src/dev/oled_ssd130x.h ****     };
 133:../../libDaisy//src/dev/oled_ssd130x.h **** 
 134:../../libDaisy//src/dev/oled_ssd130x.h ****   private:
 135:../../libDaisy//src/dev/oled_ssd130x.h ****     SpiHandle spi_;
 136:../../libDaisy//src/dev/oled_ssd130x.h ****     dsy_gpio  pin_reset_;
 137:../../libDaisy//src/dev/oled_ssd130x.h ****     dsy_gpio  pin_dc_;
 138:../../libDaisy//src/dev/oled_ssd130x.h **** };
ARM GAS  /var/folders/hl/qgbwny5j0fd895c2c41bk3tw0000gp/T//cc9kFYNb.s 			page 23


 139:../../libDaisy//src/dev/oled_ssd130x.h **** 
 140:../../libDaisy//src/dev/oled_ssd130x.h **** /**
 141:../../libDaisy//src/dev/oled_ssd130x.h ****  * Soft SPI Transport for SSD1306 / SSD1309 OLED display devices
 142:../../libDaisy//src/dev/oled_ssd130x.h ****  */
 143:../../libDaisy//src/dev/oled_ssd130x.h **** class SSD130x4WireSoftSpiTransport
 144:../../libDaisy//src/dev/oled_ssd130x.h **** {
 145:../../libDaisy//src/dev/oled_ssd130x.h ****   public:
 146:../../libDaisy//src/dev/oled_ssd130x.h ****     struct Config
 147:../../libDaisy//src/dev/oled_ssd130x.h ****     {
 148:../../libDaisy//src/dev/oled_ssd130x.h ****         Config()
 149:../../libDaisy//src/dev/oled_ssd130x.h ****         {
 150:../../libDaisy//src/dev/oled_ssd130x.h ****             // Initialize using defaults
 151:../../libDaisy//src/dev/oled_ssd130x.h ****             Defaults();
 152:../../libDaisy//src/dev/oled_ssd130x.h ****         }
 153:../../libDaisy//src/dev/oled_ssd130x.h ****         struct
 154:../../libDaisy//src/dev/oled_ssd130x.h ****         {
 155:../../libDaisy//src/dev/oled_ssd130x.h ****             uint32_t     sclk_delay;
 156:../../libDaisy//src/dev/oled_ssd130x.h ****             dsy_gpio_pin sclk;
 157:../../libDaisy//src/dev/oled_ssd130x.h ****             dsy_gpio_pin mosi;
 158:../../libDaisy//src/dev/oled_ssd130x.h ****             dsy_gpio_pin dc;
 159:../../libDaisy//src/dev/oled_ssd130x.h ****             dsy_gpio_pin reset;
 160:../../libDaisy//src/dev/oled_ssd130x.h ****         } pin_config;
 161:../../libDaisy//src/dev/oled_ssd130x.h ****         void Defaults()
 162:../../libDaisy//src/dev/oled_ssd130x.h ****         {
 163:../../libDaisy//src/dev/oled_ssd130x.h ****             pin_config.sclk_delay = 0; // fast as possible?!
 164:../../libDaisy//src/dev/oled_ssd130x.h ****             // SPI peripheral config
 165:../../libDaisy//src/dev/oled_ssd130x.h ****             pin_config.sclk = {DSY_GPIOD, 3}; /**< D10 - SPI2 SCK  */
 166:../../libDaisy//src/dev/oled_ssd130x.h ****             pin_config.mosi = {DSY_GPIOC, 3}; /**< D9  - SPI2 MOSI */
 167:../../libDaisy//src/dev/oled_ssd130x.h ****             // SSD130x control pin config
 168:../../libDaisy//src/dev/oled_ssd130x.h ****             pin_config.dc    = {DSY_GPIOC, 11}; //D2
 169:../../libDaisy//src/dev/oled_ssd130x.h ****             pin_config.reset = {DSY_GPIOC, 10}; //D3
 170:../../libDaisy//src/dev/oled_ssd130x.h ****         }
 171:../../libDaisy//src/dev/oled_ssd130x.h ****     };
 172:../../libDaisy//src/dev/oled_ssd130x.h ****     void Init(const Config& config)
 173:../../libDaisy//src/dev/oled_ssd130x.h ****     {
 174:../../libDaisy//src/dev/oled_ssd130x.h ****         // Initialize both GPIO
 175:../../libDaisy//src/dev/oled_ssd130x.h ****         pin_sclk_.mode = DSY_GPIO_MODE_OUTPUT_PP;
 176:../../libDaisy//src/dev/oled_ssd130x.h ****         pin_sclk_.pin  = config.pin_config.sclk;
 177:../../libDaisy//src/dev/oled_ssd130x.h ****         dsy_gpio_init(&pin_sclk_);
 178:../../libDaisy//src/dev/oled_ssd130x.h ****         dsy_gpio_write(&pin_sclk_, 1); //ClockPolarity::LOW
 179:../../libDaisy//src/dev/oled_ssd130x.h ****         clk_delay      = config.pin_config.sclk_delay;
 180:../../libDaisy//src/dev/oled_ssd130x.h ****         pin_mosi_.mode = DSY_GPIO_MODE_OUTPUT_PP;
 181:../../libDaisy//src/dev/oled_ssd130x.h ****         pin_mosi_.pin  = config.pin_config.mosi;
 182:../../libDaisy//src/dev/oled_ssd130x.h ****         dsy_gpio_init(&pin_mosi_);
 183:../../libDaisy//src/dev/oled_ssd130x.h ****         dsy_gpio_write(&pin_mosi_, 0);
 184:../../libDaisy//src/dev/oled_ssd130x.h **** 
 185:../../libDaisy//src/dev/oled_ssd130x.h ****         pin_dc_.mode = DSY_GPIO_MODE_OUTPUT_PP;
 186:../../libDaisy//src/dev/oled_ssd130x.h ****         pin_dc_.pin  = config.pin_config.dc;
 187:../../libDaisy//src/dev/oled_ssd130x.h ****         dsy_gpio_init(&pin_dc_);
 188:../../libDaisy//src/dev/oled_ssd130x.h ****         pin_reset_.mode = DSY_GPIO_MODE_OUTPUT_PP;
 189:../../libDaisy//src/dev/oled_ssd130x.h ****         pin_reset_.pin  = config.pin_config.reset;
 190:../../libDaisy//src/dev/oled_ssd130x.h ****         dsy_gpio_init(&pin_reset_);
 191:../../libDaisy//src/dev/oled_ssd130x.h **** 
 192:../../libDaisy//src/dev/oled_ssd130x.h ****         // Reset and Configure OLED.
 193:../../libDaisy//src/dev/oled_ssd130x.h ****         dsy_gpio_write(&pin_reset_, 0);
 194:../../libDaisy//src/dev/oled_ssd130x.h ****         System::Delay(10);
 195:../../libDaisy//src/dev/oled_ssd130x.h ****         dsy_gpio_write(&pin_reset_, 1);
ARM GAS  /var/folders/hl/qgbwny5j0fd895c2c41bk3tw0000gp/T//cc9kFYNb.s 			page 24


 196:../../libDaisy//src/dev/oled_ssd130x.h ****         System::Delay(10);
 197:../../libDaisy//src/dev/oled_ssd130x.h ****     };
 198:../../libDaisy//src/dev/oled_ssd130x.h ****     void SendCommand(uint8_t cmd)
 199:../../libDaisy//src/dev/oled_ssd130x.h ****     {
 200:../../libDaisy//src/dev/oled_ssd130x.h ****         dsy_gpio_write(&pin_dc_, 0);
 201:../../libDaisy//src/dev/oled_ssd130x.h ****         SoftSpiTransmit(cmd);
 202:../../libDaisy//src/dev/oled_ssd130x.h ****     };
 203:../../libDaisy//src/dev/oled_ssd130x.h **** 
 204:../../libDaisy//src/dev/oled_ssd130x.h ****     void SendData(uint8_t* buff, size_t size)
 205:../../libDaisy//src/dev/oled_ssd130x.h ****     {
 206:../../libDaisy//src/dev/oled_ssd130x.h ****         dsy_gpio_write(&pin_dc_, 1);
 207:../../libDaisy//src/dev/oled_ssd130x.h ****         for(size_t i = 0; i < size; i++)
 208:../../libDaisy//src/dev/oled_ssd130x.h ****             SoftSpiTransmit(buff[i]);
 209:../../libDaisy//src/dev/oled_ssd130x.h ****     };
 210:../../libDaisy//src/dev/oled_ssd130x.h **** 
 211:../../libDaisy//src/dev/oled_ssd130x.h ****   private:
 212:../../libDaisy//src/dev/oled_ssd130x.h ****     void SoftSpiTransmit(uint8_t val)
 213:../../libDaisy//src/dev/oled_ssd130x.h ****     {
 214:../../libDaisy//src/dev/oled_ssd130x.h ****         // bit flip
 215:../../libDaisy//src/dev/oled_ssd130x.h ****         val = ((val & 0x01) << 7) | ((val & 0x02) << 5) | ((val & 0x04) << 3)
 216:../../libDaisy//src/dev/oled_ssd130x.h ****               | ((val & 0x08) << 1) | ((val & 0x10) >> 1) | ((val & 0x20) >> 3)
 217:../../libDaisy//src/dev/oled_ssd130x.h ****               | ((val & 0x40) >> 5) | ((val & 0x80) >> 7);
 218:../../libDaisy//src/dev/oled_ssd130x.h **** 
 219:../../libDaisy//src/dev/oled_ssd130x.h ****         for(uint8_t bit = 0u; bit < 8u; bit++)
 220:../../libDaisy//src/dev/oled_ssd130x.h ****         {
 221:../../libDaisy//src/dev/oled_ssd130x.h ****             dsy_gpio_write(&pin_mosi_, ((val & (1 << bit)) ? 1 : 0));
 222:../../libDaisy//src/dev/oled_ssd130x.h **** 
 223:../../libDaisy//src/dev/oled_ssd130x.h ****             System::DelayTicks(clk_delay);
 224:../../libDaisy//src/dev/oled_ssd130x.h **** 
 225:../../libDaisy//src/dev/oled_ssd130x.h ****             dsy_gpio_toggle(&pin_sclk_);
 226:../../libDaisy//src/dev/oled_ssd130x.h **** 
 227:../../libDaisy//src/dev/oled_ssd130x.h ****             System::DelayTicks(clk_delay);
 228:../../libDaisy//src/dev/oled_ssd130x.h **** 
 229:../../libDaisy//src/dev/oled_ssd130x.h ****             dsy_gpio_toggle(&pin_sclk_);
 230:../../libDaisy//src/dev/oled_ssd130x.h ****         }
 231:../../libDaisy//src/dev/oled_ssd130x.h ****     }
 232:../../libDaisy//src/dev/oled_ssd130x.h **** 
 233:../../libDaisy//src/dev/oled_ssd130x.h ****     uint32_t clk_delay;
 234:../../libDaisy//src/dev/oled_ssd130x.h ****     dsy_gpio pin_sclk_;
 235:../../libDaisy//src/dev/oled_ssd130x.h ****     dsy_gpio pin_mosi_;
 236:../../libDaisy//src/dev/oled_ssd130x.h ****     dsy_gpio pin_reset_;
 237:../../libDaisy//src/dev/oled_ssd130x.h ****     dsy_gpio pin_dc_;
 238:../../libDaisy//src/dev/oled_ssd130x.h **** };
 239:../../libDaisy//src/dev/oled_ssd130x.h **** 
 240:../../libDaisy//src/dev/oled_ssd130x.h **** 
 241:../../libDaisy//src/dev/oled_ssd130x.h **** /**
 242:../../libDaisy//src/dev/oled_ssd130x.h ****  * A driver implementation for the SSD1306/SSD1309
 243:../../libDaisy//src/dev/oled_ssd130x.h ****  */
 244:../../libDaisy//src/dev/oled_ssd130x.h **** template <size_t width, size_t height, typename Transport>
 245:../../libDaisy//src/dev/oled_ssd130x.h **** class SSD130xDriver
 246:../../libDaisy//src/dev/oled_ssd130x.h **** {
 247:../../libDaisy//src/dev/oled_ssd130x.h ****   public:
 248:../../libDaisy//src/dev/oled_ssd130x.h ****     struct Config
 249:../../libDaisy//src/dev/oled_ssd130x.h ****     {
 250:../../libDaisy//src/dev/oled_ssd130x.h ****         typename Transport::Config transport_config;
 251:../../libDaisy//src/dev/oled_ssd130x.h ****     };
 252:../../libDaisy//src/dev/oled_ssd130x.h **** 
ARM GAS  /var/folders/hl/qgbwny5j0fd895c2c41bk3tw0000gp/T//cc9kFYNb.s 			page 25


 253:../../libDaisy//src/dev/oled_ssd130x.h ****     void Init(Config config)
 254:../../libDaisy//src/dev/oled_ssd130x.h ****     {
 255:../../libDaisy//src/dev/oled_ssd130x.h ****         transport_.Init(config.transport_config);
 256:../../libDaisy//src/dev/oled_ssd130x.h **** 
 257:../../libDaisy//src/dev/oled_ssd130x.h ****         // Init routine...
 258:../../libDaisy//src/dev/oled_ssd130x.h **** 
 259:../../libDaisy//src/dev/oled_ssd130x.h ****         // Display Off
 260:../../libDaisy//src/dev/oled_ssd130x.h ****         transport_.SendCommand(0xaE);
 261:../../libDaisy//src/dev/oled_ssd130x.h ****         // Dimension dependent commands...
 262:../../libDaisy//src/dev/oled_ssd130x.h ****         switch(height)
 263:../../libDaisy//src/dev/oled_ssd130x.h ****         {
 264:../../libDaisy//src/dev/oled_ssd130x.h ****             case 16:
 265:../../libDaisy//src/dev/oled_ssd130x.h ****                 // Display Clock Divide Ratio
 266:../../libDaisy//src/dev/oled_ssd130x.h ****                 transport_.SendCommand(0xD5);
 267:../../libDaisy//src/dev/oled_ssd130x.h ****                 transport_.SendCommand(0x60);
 268:../../libDaisy//src/dev/oled_ssd130x.h ****                 // Multiplex Ratio
 269:../../libDaisy//src/dev/oled_ssd130x.h ****                 transport_.SendCommand(0xA8);
 270:../../libDaisy//src/dev/oled_ssd130x.h ****                 transport_.SendCommand(0x0F);
 271:../../libDaisy//src/dev/oled_ssd130x.h ****                 // COM Pins
 272:../../libDaisy//src/dev/oled_ssd130x.h ****                 transport_.SendCommand(0xDA);
 273:../../libDaisy//src/dev/oled_ssd130x.h ****                 transport_.SendCommand(0x02);
 274:../../libDaisy//src/dev/oled_ssd130x.h ****                 break;
 275:../../libDaisy//src/dev/oled_ssd130x.h ****             case 32:
 276:../../libDaisy//src/dev/oled_ssd130x.h ****                 // Display Clock Divide Ratio
 277:../../libDaisy//src/dev/oled_ssd130x.h ****                 transport_.SendCommand(0xD5);
 278:../../libDaisy//src/dev/oled_ssd130x.h ****                 transport_.SendCommand(0x80);
 279:../../libDaisy//src/dev/oled_ssd130x.h ****                 // Multiplex Ratio
 280:../../libDaisy//src/dev/oled_ssd130x.h ****                 transport_.SendCommand(0xA8);
 281:../../libDaisy//src/dev/oled_ssd130x.h ****                 transport_.SendCommand(0x1F);
 282:../../libDaisy//src/dev/oled_ssd130x.h ****                 // COM Pins
 283:../../libDaisy//src/dev/oled_ssd130x.h ****                 transport_.SendCommand(0xDA);
 284:../../libDaisy//src/dev/oled_ssd130x.h ****                 if(width == 64)
 285:../../libDaisy//src/dev/oled_ssd130x.h ****                 {
 286:../../libDaisy//src/dev/oled_ssd130x.h ****                     transport_.SendCommand(0x12);
 287:../../libDaisy//src/dev/oled_ssd130x.h ****                 }
 288:../../libDaisy//src/dev/oled_ssd130x.h ****                 else
 289:../../libDaisy//src/dev/oled_ssd130x.h ****                 {
 290:../../libDaisy//src/dev/oled_ssd130x.h ****                     transport_.SendCommand(0x02);
 291:../../libDaisy//src/dev/oled_ssd130x.h ****                 }
 292:../../libDaisy//src/dev/oled_ssd130x.h **** 
 293:../../libDaisy//src/dev/oled_ssd130x.h ****                 break;
 294:../../libDaisy//src/dev/oled_ssd130x.h ****             case 48:
 295:../../libDaisy//src/dev/oled_ssd130x.h ****                 // Display Clock Divide Ratio
 296:../../libDaisy//src/dev/oled_ssd130x.h ****                 transport_.SendCommand(0xD5);
 297:../../libDaisy//src/dev/oled_ssd130x.h ****                 transport_.SendCommand(0x80);
 298:../../libDaisy//src/dev/oled_ssd130x.h ****                 // Multiplex Ratio
 299:../../libDaisy//src/dev/oled_ssd130x.h ****                 transport_.SendCommand(0xA8);
 300:../../libDaisy//src/dev/oled_ssd130x.h ****                 transport_.SendCommand(0x2F);
 301:../../libDaisy//src/dev/oled_ssd130x.h ****                 // COM Pins
 302:../../libDaisy//src/dev/oled_ssd130x.h ****                 transport_.SendCommand(0xDA);
 303:../../libDaisy//src/dev/oled_ssd130x.h ****                 transport_.SendCommand(0x12);
 304:../../libDaisy//src/dev/oled_ssd130x.h ****                 break;
 305:../../libDaisy//src/dev/oled_ssd130x.h ****             default: // 128
 306:../../libDaisy//src/dev/oled_ssd130x.h ****                 // Display Clock Divide Ratio
 307:../../libDaisy//src/dev/oled_ssd130x.h ****                 transport_.SendCommand(0xD5);
 308:../../libDaisy//src/dev/oled_ssd130x.h ****                 transport_.SendCommand(0x80);
 309:../../libDaisy//src/dev/oled_ssd130x.h ****                 // Multiplex Ratio
ARM GAS  /var/folders/hl/qgbwny5j0fd895c2c41bk3tw0000gp/T//cc9kFYNb.s 			page 26


 310:../../libDaisy//src/dev/oled_ssd130x.h ****                 transport_.SendCommand(0xA8);
 311:../../libDaisy//src/dev/oled_ssd130x.h ****                 transport_.SendCommand(0x3F);
 312:../../libDaisy//src/dev/oled_ssd130x.h ****                 // COM Pins
 313:../../libDaisy//src/dev/oled_ssd130x.h ****                 transport_.SendCommand(0xDA);
 314:../../libDaisy//src/dev/oled_ssd130x.h ****                 transport_.SendCommand(0x12);
 315:../../libDaisy//src/dev/oled_ssd130x.h ****                 break;
 316:../../libDaisy//src/dev/oled_ssd130x.h ****         }
 317:../../libDaisy//src/dev/oled_ssd130x.h **** 
 318:../../libDaisy//src/dev/oled_ssd130x.h ****         // Display Offset
 319:../../libDaisy//src/dev/oled_ssd130x.h ****         transport_.SendCommand(0xD3);
 320:../../libDaisy//src/dev/oled_ssd130x.h ****         transport_.SendCommand(0x00);
 321:../../libDaisy//src/dev/oled_ssd130x.h ****         // Start Line Address
 322:../../libDaisy//src/dev/oled_ssd130x.h ****         transport_.SendCommand(0x40);
 323:../../libDaisy//src/dev/oled_ssd130x.h ****         // Normal Display
 324:../../libDaisy//src/dev/oled_ssd130x.h ****         transport_.SendCommand(0xA6);
 325:../../libDaisy//src/dev/oled_ssd130x.h ****         // All On Resume
 326:../../libDaisy//src/dev/oled_ssd130x.h ****         transport_.SendCommand(0xA4);
 327:../../libDaisy//src/dev/oled_ssd130x.h ****         // Charge Pump
 328:../../libDaisy//src/dev/oled_ssd130x.h ****         transport_.SendCommand(0x8D);
 329:../../libDaisy//src/dev/oled_ssd130x.h ****         transport_.SendCommand(0x14);
 330:../../libDaisy//src/dev/oled_ssd130x.h ****         // Set Segment Remap
 331:../../libDaisy//src/dev/oled_ssd130x.h ****         transport_.SendCommand(0xA1);
 332:../../libDaisy//src/dev/oled_ssd130x.h ****         // COM Output Scan Direction
 333:../../libDaisy//src/dev/oled_ssd130x.h ****         transport_.SendCommand(0xC8);
 334:../../libDaisy//src/dev/oled_ssd130x.h ****         // Contrast Control
 335:../../libDaisy//src/dev/oled_ssd130x.h ****         transport_.SendCommand(0x81);
 336:../../libDaisy//src/dev/oled_ssd130x.h ****         transport_.SendCommand(0x8F);
 337:../../libDaisy//src/dev/oled_ssd130x.h ****         // Pre Charge
 338:../../libDaisy//src/dev/oled_ssd130x.h ****         transport_.SendCommand(0xD9);
 339:../../libDaisy//src/dev/oled_ssd130x.h ****         transport_.SendCommand(0x25);
 340:../../libDaisy//src/dev/oled_ssd130x.h ****         // VCOM Detect
 341:../../libDaisy//src/dev/oled_ssd130x.h ****         transport_.SendCommand(0xDB);
 342:../../libDaisy//src/dev/oled_ssd130x.h ****         transport_.SendCommand(0x34);
 343:../../libDaisy//src/dev/oled_ssd130x.h **** 
 344:../../libDaisy//src/dev/oled_ssd130x.h **** 
 345:../../libDaisy//src/dev/oled_ssd130x.h ****         // Display On
 346:../../libDaisy//src/dev/oled_ssd130x.h ****         transport_.SendCommand(0xAF); //--turn on oled panel
 347:../../libDaisy//src/dev/oled_ssd130x.h ****     };
 348:../../libDaisy//src/dev/oled_ssd130x.h **** 
 349:../../libDaisy//src/dev/oled_ssd130x.h ****     size_t Width() const { return width; };
 350:../../libDaisy//src/dev/oled_ssd130x.h ****     size_t Height() const { return height; };
 351:../../libDaisy//src/dev/oled_ssd130x.h **** 
 352:../../libDaisy//src/dev/oled_ssd130x.h ****     void DrawPixel(uint_fast8_t x, uint_fast8_t y, bool on)
 353:../../libDaisy//src/dev/oled_ssd130x.h ****     {
 354:../../libDaisy//src/dev/oled_ssd130x.h ****         if(x >= width || y >= height)
 355:../../libDaisy//src/dev/oled_ssd130x.h ****             return;
 356:../../libDaisy//src/dev/oled_ssd130x.h ****         if(on)
 357:../../libDaisy//src/dev/oled_ssd130x.h ****             buffer_[x + (y / 8) * width] |= (1 << (y % 8));
 358:../../libDaisy//src/dev/oled_ssd130x.h ****         else
 359:../../libDaisy//src/dev/oled_ssd130x.h ****             buffer_[x + (y / 8) * width] &= ~(1 << (y % 8));
 360:../../libDaisy//src/dev/oled_ssd130x.h ****     }
 361:../../libDaisy//src/dev/oled_ssd130x.h **** 
 362:../../libDaisy//src/dev/oled_ssd130x.h ****     void Fill(bool on)
 264              		.loc 15 362 10 view .LVU47
 265              	.LBB691:
 363:../../libDaisy//src/dev/oled_ssd130x.h ****     {
 364:../../libDaisy//src/dev/oled_ssd130x.h ****         for(size_t i = 0; i < sizeof(buffer_); i++)
ARM GAS  /var/folders/hl/qgbwny5j0fd895c2c41bk3tw0000gp/T//cc9kFYNb.s 			page 27


 266              		.loc 15 364 29 view .LVU48
 365:../../libDaisy//src/dev/oled_ssd130x.h ****         {
 366:../../libDaisy//src/dev/oled_ssd130x.h ****             buffer_[i] = on ? 0xff : 0x00;
 267              		.loc 15 366 24 is_stmt 0 view .LVU49
 268 0000 4942     		rsbs	r1, r1, #0
 269              	.LVL8:
 270              		.loc 15 366 24 view .LVU50
 271 0002 4FF48062 		mov	r2, #1024
 272 0006 1030     		adds	r0, r0, #16
 273              	.LVL9:
 274              		.loc 15 366 24 view .LVU51
 275 0008 C9B2     		uxtb	r1, r1
 276 000a FFF7FEBF 		b	memset
 277              	.LVL10:
 278              		.loc 15 366 24 view .LVU52
 279              	.LBE691:
 280              	.LBE690:
 281              		.cfi_endproc
 282              	.LFE5525:
 284 000e 00BF     		.section	.text._ZN6ShyFFTIfLj1024E14RotationPhasorED2Ev,"axG",%progbits,_ZN6ShyFFTIfLj1024E14Rotat
 285              		.align	1
 286              		.p2align 2,,3
 287              		.weak	_ZN6ShyFFTIfLj1024E14RotationPhasorED2Ev
 288              		.syntax unified
 289              		.thumb
 290              		.thumb_func
 291              		.fpu fpv5-d16
 293              	_ZN6ShyFFTIfLj1024E14RotationPhasorED2Ev:
 294              	.LVL11:
 295              	.LFB5535:
 296              		.file 16 "shy_fft.h"
   1:shy_fft.h     **** // Copyright 2014 Emilie Gillet.
   2:shy_fft.h     **** //
   3:shy_fft.h     **** // Author: Emilie Gillet (emilie.o.gillet@gmail.com)
   4:shy_fft.h     **** //
   5:shy_fft.h     **** // Permission is hereby granted, free of charge, to any person obtaining a copy
   6:shy_fft.h     **** // of this software and associated documentation files (the "Software"), to deal
   7:shy_fft.h     **** // in the Software without restriction, including without limitation the rights
   8:shy_fft.h     **** // to use, copy, modify, merge, publish, distribute, sublicense, and/or sell
   9:shy_fft.h     **** // copies of the Software, and to permit persons to whom the Software is
  10:shy_fft.h     **** // furnished to do so, subject to the following conditions:
  11:shy_fft.h     **** // 
  12:shy_fft.h     **** // The above copyright notice and this permission notice shall be included in
  13:shy_fft.h     **** // all copies or substantial portions of the Software.
  14:shy_fft.h     **** // 
  15:shy_fft.h     **** // THE SOFTWARE IS PROVIDED "AS IS", WITHOUT WARRANTY OF ANY KIND, EXPRESS OR
  16:shy_fft.h     **** // IMPLIED, INCLUDING BUT NOT LIMITED TO THE WARRANTIES OF MERCHANTABILITY,
  17:shy_fft.h     **** // FITNESS FOR A PARTICULAR PURPOSE AND NONINFRINGEMENT. IN NO EVENT SHALL THE
  18:shy_fft.h     **** // AUTHORS OR COPYRIGHT HOLDERS BE LIABLE FOR ANY CLAIM, DAMAGES OR OTHER
  19:shy_fft.h     **** // LIABILITY, WHETHER IN AN ACTION OF CONTRACT, TORT OR OTHERWISE, ARISING FROM,
  20:shy_fft.h     **** // OUT OF OR IN CONNECTION WITH THE SOFTWARE OR THE USE OR OTHER DEALINGS IN
  21:shy_fft.h     **** // THE SOFTWARE.
  22:shy_fft.h     **** // 
  23:shy_fft.h     **** // See http://creativecommons.org/licenses/MIT/ for more information.
  24:shy_fft.h     **** //
  25:shy_fft.h     **** // -----------------------------------------------------------------------------
  26:shy_fft.h     **** //
ARM GAS  /var/folders/hl/qgbwny5j0fd895c2c41bk3tw0000gp/T//cc9kFYNb.s 			page 28


  27:shy_fft.h     **** // A modest implementation of real FFT for embedded audio applications,
  28:shy_fft.h     **** // largely based on Laurent de Soras' FFTReal.
  29:shy_fft.h     **** //
  30:shy_fft.h     **** // Improvements:
  31:shy_fft.h     **** // * No dynamic allocations.
  32:shy_fft.h     **** // * No additional buffering (can use the input buffer as a workspace).
  33:shy_fft.h     **** // * No big bitrev lookup table.
  34:shy_fft.h     **** // * Keep the fixed size template signature, but also provide method for
  35:shy_fft.h     **** //   variable size (up to the fixed size).
  36:shy_fft.h     **** 
  37:shy_fft.h     **** #ifndef STMLIB_FFT_SHY_FFT_H_
  38:shy_fft.h     **** #define STMLIB_FFT_SHY_FFT_H_
  39:shy_fft.h     **** 
  40:shy_fft.h     **** #include <algorithm>
  41:shy_fft.h     **** #include <cmath>
  42:shy_fft.h     **** 
  43:shy_fft.h     **** // Compile-time log 2
  44:shy_fft.h     **** template<size_t x>
  45:shy_fft.h     **** struct Log2 {
  46:shy_fft.h     ****   enum {
  47:shy_fft.h     ****     value = Log2<x / 2>::value + 1
  48:shy_fft.h     ****   };
  49:shy_fft.h     ****   typedef char CheckPowerOf2[((x & (x - 1)) == 0 ? 1 : -1)];
  50:shy_fft.h     **** };
  51:shy_fft.h     **** 
  52:shy_fft.h     **** template<>
  53:shy_fft.h     **** struct Log2<1> { enum { value = 0 }; };
  54:shy_fft.h     **** 
  55:shy_fft.h     **** 
  56:shy_fft.h     **** // Bit reversal LUT size.
  57:shy_fft.h     **** template<size_t> struct BitReversalLut { enum { size = 1 }; };
  58:shy_fft.h     **** template<> struct BitReversalLut<3> { enum { size = 2 }; };
  59:shy_fft.h     **** template<> struct BitReversalLut<4> { enum { size = 4 }; };
  60:shy_fft.h     **** template<> struct BitReversalLut<5> { enum { size = 8 }; };
  61:shy_fft.h     **** template<> struct BitReversalLut<6> { enum { size = 16 }; };
  62:shy_fft.h     **** template<> struct BitReversalLut<7> { enum { size = 32 }; };
  63:shy_fft.h     **** template<> struct BitReversalLut<8> { enum { size = 64 }; };
  64:shy_fft.h     **** 
  65:shy_fft.h     **** 
  66:shy_fft.h     **** // Typed math functions and constants.
  67:shy_fft.h     **** template<typename T>
  68:shy_fft.h     **** struct Math {
  69:shy_fft.h     ****   inline T pi() const;
  70:shy_fft.h     ****   inline T sqrt_2_div_2() const;
  71:shy_fft.h     ****   inline T cos(T x);
  72:shy_fft.h     ****   inline T sin(T x);
  73:shy_fft.h     **** };
  74:shy_fft.h     **** 
  75:shy_fft.h     **** template<>
  76:shy_fft.h     **** struct Math<float> {
  77:shy_fft.h     ****   inline float pi() const { return 3.141592653589793f; }
  78:shy_fft.h     ****   inline float sqrt_2_div_2() const { return 0.7071067811865476f; }
  79:shy_fft.h     ****   inline float cos(float x) { return cosf(x); }
  80:shy_fft.h     ****   inline float sin(float x) { return sinf(x); }
  81:shy_fft.h     **** };
  82:shy_fft.h     **** 
  83:shy_fft.h     **** template<>
ARM GAS  /var/folders/hl/qgbwny5j0fd895c2c41bk3tw0000gp/T//cc9kFYNb.s 			page 29


  84:shy_fft.h     **** struct Math<double> {
  85:shy_fft.h     ****   inline double pi() const { return 3.141592653589793; }
  86:shy_fft.h     ****   inline float sqrt_2_div_2() const { return 0.7071067811865476; }
  87:shy_fft.h     ****   inline double cos(double x) { return std::cos(x); }
  88:shy_fft.h     ****   inline double sin(double x) { return std::sin(x); }
  89:shy_fft.h     **** };
  90:shy_fft.h     **** 
  91:shy_fft.h     **** 
  92:shy_fft.h     **** // Look-up table for trigonometric data.
  93:shy_fft.h     **** template<typename T, size_t num_passes>
  94:shy_fft.h     **** class LutPhasor {
  95:shy_fft.h     ****  public:
  96:shy_fft.h     ****   LutPhasor() { }
  97:shy_fft.h     ****   ~LutPhasor() { }
  98:shy_fft.h     ****   
  99:shy_fft.h     ****   void Init() {
 100:shy_fft.h     ****     Math<T> math;
 101:shy_fft.h     ****   
 102:shy_fft.h     ****     for (size_t pass = 3; pass < num_passes; ++pass) {
 103:shy_fft.h     ****       size_t pass_size = 1L << (pass - 1);
 104:shy_fft.h     ****       T* pass_ptr = &trig_lut_[(1L << (pass - 1)) - 4];
 105:shy_fft.h     ****       T increment = math.pi() / (pass_size << 1);
 106:shy_fft.h     ****       T phase = 0.0;
 107:shy_fft.h     ****       for (size_t i = 0; i < pass_size; ++i) {
 108:shy_fft.h     ****         pass_ptr[i] = math.cos(phase);
 109:shy_fft.h     ****         phase += increment;
 110:shy_fft.h     ****       }
 111:shy_fft.h     ****     }
 112:shy_fft.h     ****   }
 113:shy_fft.h     ****   
 114:shy_fft.h     ****   inline void Start(size_t pass) {
 115:shy_fft.h     ****     size_t pass_size = 1 << (pass - 1);
 116:shy_fft.h     ****     cos_ptr_ = &trig_lut_[pass_size - 4 + 1];
 117:shy_fft.h     ****     sin_ptr_ = &trig_lut_[pass_size + pass_size - 4 - 1];
 118:shy_fft.h     ****   }
 119:shy_fft.h     ****   
 120:shy_fft.h     ****   inline void Rotate() {
 121:shy_fft.h     ****     ++cos_ptr_;
 122:shy_fft.h     ****     --sin_ptr_;
 123:shy_fft.h     ****   }
 124:shy_fft.h     ****   
 125:shy_fft.h     ****   inline T cos() const { return *cos_ptr_; }
 126:shy_fft.h     ****   inline T sin() const { return *sin_ptr_; }
 127:shy_fft.h     ****   
 128:shy_fft.h     ****  private:
 129:shy_fft.h     ****   T trig_lut_[(1 << (num_passes - 1)) - 4];
 130:shy_fft.h     ****   T* cos_ptr_;
 131:shy_fft.h     ****   T* sin_ptr_;
 132:shy_fft.h     **** };
 133:shy_fft.h     **** 
 134:shy_fft.h     **** template<typename T> struct LutPhasor<T, 0> { void Init() { }; };
 135:shy_fft.h     **** template<typename T> struct LutPhasor<T, 1> { void Init() { }; };
 136:shy_fft.h     **** template<typename T> struct LutPhasor<T, 2> { void Init() { }; };
 137:shy_fft.h     **** 
 138:shy_fft.h     **** template<typename T>
 139:shy_fft.h     **** struct LutPhasor<T, 3> {
 140:shy_fft.h     ****   void Init() { };
ARM GAS  /var/folders/hl/qgbwny5j0fd895c2c41bk3tw0000gp/T//cc9kFYNb.s 			page 30


 141:shy_fft.h     ****   void Start(size_t) { };
 142:shy_fft.h     ****   void Rotate() { };
 143:shy_fft.h     ****   inline T cos() const { return 1.0; }
 144:shy_fft.h     ****   inline T sin() const { return 0.0; }
 145:shy_fft.h     **** };
 146:shy_fft.h     **** 
 147:shy_fft.h     **** 
 148:shy_fft.h     **** // Another way of generating roots of unity.
 149:shy_fft.h     **** template<typename T, size_t num_passes>
 150:shy_fft.h     **** class RotationPhasor {
 151:shy_fft.h     ****  public:
 152:shy_fft.h     ****   RotationPhasor() { }
 153:shy_fft.h     ****   ~RotationPhasor() { }
 154:shy_fft.h     ****   
 155:shy_fft.h     ****   void Init() {
 156:shy_fft.h     ****     Math<T> math;
 157:shy_fft.h     ****     for (size_t pass = 3; pass < num_passes; ++pass) {
 158:shy_fft.h     ****       size_t index = (pass - 3) << 1;
 159:shy_fft.h     ****       T angle = math.pi() / (1 << pass);
 160:shy_fft.h     ****       sin_cos_lut_[index] = math.cos(angle);
 161:shy_fft.h     ****       sin_cos_lut_[index + 1] = math.sin(angle);
 162:shy_fft.h     ****     }
 163:shy_fft.h     ****   }
 164:shy_fft.h     ****   
 165:shy_fft.h     ****   inline void Start(size_t pass) {
 166:shy_fft.h     ****     size_t index = (pass - 3) << 1;
 167:shy_fft.h     ****     cos_ = real_ = sin_cos_lut_[index];
 168:shy_fft.h     ****     sin_ = imag_ = sin_cos_lut_[index + 1];
 169:shy_fft.h     ****   }
 170:shy_fft.h     ****   
 171:shy_fft.h     ****   inline void Rotate() {
 172:shy_fft.h     ****     T temp = cos_ * real_ - sin_ * imag_;
 173:shy_fft.h     ****     sin_ = cos_ * imag_ + sin_ * real_;
 174:shy_fft.h     ****     cos_ = temp;
 175:shy_fft.h     ****   }
 176:shy_fft.h     ****   
 177:shy_fft.h     ****   inline T cos() const { return cos_; }
 178:shy_fft.h     ****   inline T sin() const { return sin_; }
 179:shy_fft.h     ****   
 180:shy_fft.h     ****  private:
 181:shy_fft.h     ****   T sin_cos_lut_[(num_passes - 3) << 1];
 182:shy_fft.h     ****   T cos_;
 183:shy_fft.h     ****   T sin_;
 184:shy_fft.h     ****   T real_;
 185:shy_fft.h     ****   T imag_;
 186:shy_fft.h     **** 
 187:shy_fft.h     **** };
 188:shy_fft.h     **** 
 189:shy_fft.h     **** template<typename T> struct RotationPhasor<T, 0> { void Init() { }; };
 190:shy_fft.h     **** template<typename T> struct RotationPhasor<T, 1> { void Init() { }; };
 191:shy_fft.h     **** template<typename T> struct RotationPhasor<T, 2> { void Init() { }; };
 192:shy_fft.h     **** 
 193:shy_fft.h     **** template<typename T>
 194:shy_fft.h     **** struct RotationPhasor<T, 3> {
 195:shy_fft.h     ****   void Init() { };
 196:shy_fft.h     ****   void Start(size_t) { };
 197:shy_fft.h     ****   void Rotate() { };
ARM GAS  /var/folders/hl/qgbwny5j0fd895c2c41bk3tw0000gp/T//cc9kFYNb.s 			page 31


 198:shy_fft.h     ****   inline T cos() const { return 1.0; }
 199:shy_fft.h     ****   inline T sin() const { return 0.0; }
 200:shy_fft.h     **** };
 201:shy_fft.h     **** 
 202:shy_fft.h     **** // Direct transform
 203:shy_fft.h     **** template<typename T, size_t num_passes, typename Phasor>
 204:shy_fft.h     **** struct DirectTransform {
 205:shy_fft.h     ****  private:
 206:shy_fft.h     ****   enum {
 207:shy_fft.h     ****     size = 1 << num_passes
 208:shy_fft.h     ****   };
 209:shy_fft.h     ****   
 210:shy_fft.h     ****  public:
 211:shy_fft.h     ****   void operator()(
 212:shy_fft.h     ****       T* input,
 213:shy_fft.h     ****       T* output,
 214:shy_fft.h     ****       const uint8_t* bit_rev,
 215:shy_fft.h     ****       Phasor* phasor) {
 216:shy_fft.h     ****     T* s;
 217:shy_fft.h     ****     T* d;
 218:shy_fft.h     ****     Math<T> math;
 219:shy_fft.h     ****     
 220:shy_fft.h     ****     // First and second pass.
 221:shy_fft.h     ****     d = output;
 222:shy_fft.h     ****     for (size_t i = 0; i < size; i += 4) {
 223:shy_fft.h     ****       const T* s = input;
 224:shy_fft.h     ****       size_t r0 = num_passes <= 8
 225:shy_fft.h     ****           ? bit_rev[i >> 2]
 226:shy_fft.h     ****           : ((bit_rev[i & 0xff] << 8) | bit_rev[i >> 8]) >> (16 - num_passes);
 227:shy_fft.h     ****       size_t r1 = r0 + 2 * (size >> 2);
 228:shy_fft.h     ****       size_t r2 = r0 + 1 * (size >> 2);
 229:shy_fft.h     ****       size_t r3 = r0 + 3 * (size >> 2);
 230:shy_fft.h     ****       
 231:shy_fft.h     ****       d[1] = s[r0] - s[r1];
 232:shy_fft.h     ****       d[3] = s[r2] - s[r3];
 233:shy_fft.h     ****       T a = s[r0] + s[r1];
 234:shy_fft.h     ****       T b = s[r2] + s[r3];
 235:shy_fft.h     ****       d[0] = a + b;
 236:shy_fft.h     ****       d[2] = a - b;
 237:shy_fft.h     ****       d += 4;
 238:shy_fft.h     ****     }
 239:shy_fft.h     ****     
 240:shy_fft.h     ****     // Third pass.
 241:shy_fft.h     ****     s = output;
 242:shy_fft.h     ****     d = input;
 243:shy_fft.h     ****     for (size_t i = 0; i < size; i += 8) {
 244:shy_fft.h     ****       T v;
 245:shy_fft.h     **** 
 246:shy_fft.h     ****       d[i] = s[i] + s[i + 4];
 247:shy_fft.h     ****       d[i + 4] = s[i] - s[i + 4];
 248:shy_fft.h     ****       d[i + 2] = s[i + 2];
 249:shy_fft.h     ****       d[i + 6] = s[i + 6];
 250:shy_fft.h     **** 
 251:shy_fft.h     ****       v = (s[i + 5] - s[i + 7]) * math.sqrt_2_div_2();
 252:shy_fft.h     ****       d[i + 1] = s[i + 1] + v;
 253:shy_fft.h     ****       d[i + 3] = s[i + 1] - v;
 254:shy_fft.h     **** 
ARM GAS  /var/folders/hl/qgbwny5j0fd895c2c41bk3tw0000gp/T//cc9kFYNb.s 			page 32


 255:shy_fft.h     ****       v = (s[i + 5] + s[i + 7]) * math.sqrt_2_div_2();
 256:shy_fft.h     ****       d[i + 5] = v + s[i + 3];
 257:shy_fft.h     ****       d[i + 7] = v - s[i + 3];
 258:shy_fft.h     ****     }
 259:shy_fft.h     ****     
 260:shy_fft.h     ****     // Remaining passes.
 261:shy_fft.h     ****     for (size_t pass = 3; pass < num_passes; ++pass) {
 262:shy_fft.h     ****       // Flip source and destination pointers
 263:shy_fft.h     ****       {
 264:shy_fft.h     ****         T* tmp = s;
 265:shy_fft.h     ****         s = d;
 266:shy_fft.h     ****         d = tmp;
 267:shy_fft.h     ****       }
 268:shy_fft.h     ****       
 269:shy_fft.h     ****       size_t n = 1 << pass;
 270:shy_fft.h     ****       size_t n_2 = n >> 1;
 271:shy_fft.h     **** 
 272:shy_fft.h     ****       for (size_t i = 0; i < size; i += (n << 1)) {
 273:shy_fft.h     ****         T* s1r = s + i;
 274:shy_fft.h     ****         T* s2r = s1r + n;
 275:shy_fft.h     ****         T* dr = d + i;
 276:shy_fft.h     ****         T* di = dr + n;
 277:shy_fft.h     **** 
 278:shy_fft.h     ****         dr[0] = s1r[0] + s2r[0];
 279:shy_fft.h     ****         di[0] = s1r[0] - s2r[0];
 280:shy_fft.h     ****         dr[n_2] = s1r[n_2];
 281:shy_fft.h     ****         di[n_2] = s2r[n_2];
 282:shy_fft.h     ****         T* s1i = s1r + n_2;
 283:shy_fft.h     ****         T* s2i = s1i + n;
 284:shy_fft.h     ****         phasor->Start(pass);
 285:shy_fft.h     ****         for (size_t j = 1; j < n_2; ++j) {
 286:shy_fft.h     ****           T c = phasor->cos();
 287:shy_fft.h     ****           T s = phasor->sin();
 288:shy_fft.h     ****           T v;
 289:shy_fft.h     **** 
 290:shy_fft.h     ****           v = s2r[j] * c - s2i[j] * s;
 291:shy_fft.h     ****           dr[j] = s1r[j] + v;
 292:shy_fft.h     ****           di[-j] = s1r[j] - v;
 293:shy_fft.h     **** 
 294:shy_fft.h     ****           v = s2r[j] * s + s2i[j] * c;
 295:shy_fft.h     ****           di[j] = v + s1i[j];
 296:shy_fft.h     ****           di[n - j] = v - s1i[j];
 297:shy_fft.h     ****           phasor->Rotate();
 298:shy_fft.h     ****         }
 299:shy_fft.h     ****       }
 300:shy_fft.h     ****     }
 301:shy_fft.h     ****     
 302:shy_fft.h     ****     // Annoying additional data copy step.
 303:shy_fft.h     ****     if (d != output) {
 304:shy_fft.h     ****       std::copy(&d[0], &d[size], &output[0]);
 305:shy_fft.h     ****     }
 306:shy_fft.h     ****   }
 307:shy_fft.h     ****   
 308:shy_fft.h     ****   // The exact same thing but with "num_passes" as a run-time argument.
 309:shy_fft.h     ****   void operator()(
 310:shy_fft.h     ****       T* input,
 311:shy_fft.h     ****       T* output,
ARM GAS  /var/folders/hl/qgbwny5j0fd895c2c41bk3tw0000gp/T//cc9kFYNb.s 			page 33


 312:shy_fft.h     ****       const uint8_t* bit_rev,
 313:shy_fft.h     ****       Phasor* phasor,
 314:shy_fft.h     ****       size_t rt_num_passes) {
 315:shy_fft.h     ****     T* s;
 316:shy_fft.h     ****     T* d;
 317:shy_fft.h     ****     Math<T> math;
 318:shy_fft.h     ****     size_t rt_size = 1 << rt_num_passes;
 319:shy_fft.h     ****     // First and second pass.
 320:shy_fft.h     ****     d = output;
 321:shy_fft.h     ****     for (size_t i = 0; i < rt_size; i += 4) {
 322:shy_fft.h     ****       const T* s = input;
 323:shy_fft.h     ****       size_t r0 = \
 324:shy_fft.h     ****           ((bit_rev[i & 0xff] << 8) | bit_rev[i >> 8]) >> (16 - rt_num_passes);
 325:shy_fft.h     ****       size_t r1 = r0 + 2 * (rt_size >> 2);
 326:shy_fft.h     ****       size_t r2 = r0 + 1 * (rt_size >> 2);
 327:shy_fft.h     ****       size_t r3 = r0 + 3 * (rt_size >> 2);
 328:shy_fft.h     ****       
 329:shy_fft.h     ****       d[1] = s[r0] - s[r1];
 330:shy_fft.h     ****       d[3] = s[r2] - s[r3];
 331:shy_fft.h     ****       T a = s[r0] + s[r1];
 332:shy_fft.h     ****       T b = s[r2] + s[r3];
 333:shy_fft.h     ****       d[0] = a + b;
 334:shy_fft.h     ****       d[2] = a - b;
 335:shy_fft.h     ****       d += 4;
 336:shy_fft.h     ****     }
 337:shy_fft.h     ****     
 338:shy_fft.h     ****     // Third pass.
 339:shy_fft.h     ****     s = output;
 340:shy_fft.h     ****     d = input;
 341:shy_fft.h     ****     for (size_t i = 0; i < rt_size; i += 8) {
 342:shy_fft.h     ****       T v;
 343:shy_fft.h     **** 
 344:shy_fft.h     ****       d[i] = s[i] + s[i + 4];
 345:shy_fft.h     ****       d[i + 4] = s[i] - s[i + 4];
 346:shy_fft.h     ****       d[i + 2] = s[i + 2];
 347:shy_fft.h     ****       d[i + 6] = s[i + 6];
 348:shy_fft.h     **** 
 349:shy_fft.h     ****       v = (s[i + 5] - s[i + 7]) * math.sqrt_2_div_2();
 350:shy_fft.h     ****       d[i + 1] = s[i + 1] + v;
 351:shy_fft.h     ****       d[i + 3] = s[i + 1] - v;
 352:shy_fft.h     **** 
 353:shy_fft.h     ****       v = (s[i + 5] + s[i + 7]) * math.sqrt_2_div_2();
 354:shy_fft.h     ****       d[i + 5] = v + s[i + 3];
 355:shy_fft.h     ****       d[i + 7] = v - s[i + 3];
 356:shy_fft.h     ****     }
 357:shy_fft.h     ****     
 358:shy_fft.h     ****     // Remaining passes.
 359:shy_fft.h     ****     for (size_t pass = 3; pass < rt_num_passes; ++pass) {
 360:shy_fft.h     ****       // Flip source and destination pointers
 361:shy_fft.h     ****       {
 362:shy_fft.h     ****         T* tmp = s;
 363:shy_fft.h     ****         s = d;
 364:shy_fft.h     ****         d = tmp;
 365:shy_fft.h     ****       }
 366:shy_fft.h     ****       
 367:shy_fft.h     ****       size_t n = 1 << pass;
 368:shy_fft.h     ****       size_t n_2 = n >> 1;
ARM GAS  /var/folders/hl/qgbwny5j0fd895c2c41bk3tw0000gp/T//cc9kFYNb.s 			page 34


 369:shy_fft.h     **** 
 370:shy_fft.h     ****       for (size_t i = 0; i < rt_size; i += (n << 1)) {
 371:shy_fft.h     ****         T* s1r = s + i;
 372:shy_fft.h     ****         T* s2r = s1r + n;
 373:shy_fft.h     ****         T* dr = d + i;
 374:shy_fft.h     ****         T* di = dr + n;
 375:shy_fft.h     **** 
 376:shy_fft.h     ****         dr[0] = s1r[0] + s2r[0];
 377:shy_fft.h     ****         di[0] = s1r[0] - s2r[0];
 378:shy_fft.h     ****         dr[n_2] = s1r[n_2];
 379:shy_fft.h     ****         di[n_2] = s2r[n_2];
 380:shy_fft.h     ****         T* s1i = s1r + n_2;
 381:shy_fft.h     ****         T* s2i = s1i + n;
 382:shy_fft.h     ****         phasor->Start(pass);
 383:shy_fft.h     ****         for (size_t j = 1; j < n_2; ++j) {
 384:shy_fft.h     ****           T c = phasor->cos();
 385:shy_fft.h     ****           T s = phasor->sin();
 386:shy_fft.h     ****           T v;
 387:shy_fft.h     **** 
 388:shy_fft.h     ****           v = s2r[j] * c - s2i[j] * s;
 389:shy_fft.h     ****           dr[j] = s1r[j] + v;
 390:shy_fft.h     ****           di[-j] = s1r[j] - v;
 391:shy_fft.h     **** 
 392:shy_fft.h     ****           v = s2r[j] * s + s2i[j] * c;
 393:shy_fft.h     ****           di[j] = v + s1i[j];
 394:shy_fft.h     ****           di[n - j] = v - s1i[j];
 395:shy_fft.h     ****           phasor->Rotate();
 396:shy_fft.h     ****         }
 397:shy_fft.h     ****       }
 398:shy_fft.h     ****     }
 399:shy_fft.h     ****     
 400:shy_fft.h     ****     // Annoying additional data copy step.
 401:shy_fft.h     ****     if (d != output) {
 402:shy_fft.h     ****       std::copy(&d[0], &d[rt_size], &output[0]);
 403:shy_fft.h     ****     }
 404:shy_fft.h     ****   }
 405:shy_fft.h     **** };
 406:shy_fft.h     **** 
 407:shy_fft.h     **** template<typename T, typename Phasor>
 408:shy_fft.h     **** struct DirectTransform<T, 0, Phasor> {
 409:shy_fft.h     ****   void operator()(const T* i, T* o, T*, const uint8_t*, Phasor*) {
 410:shy_fft.h     ****     o[0] = i[0];
 411:shy_fft.h     ****   }
 412:shy_fft.h     **** };
 413:shy_fft.h     **** 
 414:shy_fft.h     **** template<typename T, typename Phasor>
 415:shy_fft.h     **** struct DirectTransform<T, 1, Phasor> {
 416:shy_fft.h     ****   void operator()(const T* i, T* o, T*, const uint8_t*, Phasor*) {
 417:shy_fft.h     ****     o[0] = i[0] + i[1];
 418:shy_fft.h     ****     o[1] = i[0] - i[1];
 419:shy_fft.h     ****   }
 420:shy_fft.h     **** };
 421:shy_fft.h     **** 
 422:shy_fft.h     **** template<typename T, typename Phasor>
 423:shy_fft.h     **** struct DirectTransform<T, 2, Phasor> {
 424:shy_fft.h     ****   void operator()(const T* i, T* o, T*, const uint8_t*, Phasor*) {
 425:shy_fft.h     ****     o[1] = i[0] - i[2];
ARM GAS  /var/folders/hl/qgbwny5j0fd895c2c41bk3tw0000gp/T//cc9kFYNb.s 			page 35


 426:shy_fft.h     ****     o[3] = i[1] - i[3];
 427:shy_fft.h     ****     T a = i[0] + i[2];
 428:shy_fft.h     ****     T b = i[1] + i[3];
 429:shy_fft.h     ****     o[0] = a + b;
 430:shy_fft.h     ****     o[2] = a - b;
 431:shy_fft.h     ****   }
 432:shy_fft.h     **** };
 433:shy_fft.h     **** 
 434:shy_fft.h     **** 
 435:shy_fft.h     **** // Inverse transform
 436:shy_fft.h     **** template<typename T, size_t num_passes, typename Phasor>
 437:shy_fft.h     **** struct InverseTransform {
 438:shy_fft.h     ****  private:
 439:shy_fft.h     ****   enum {
 440:shy_fft.h     ****     size = 1 << num_passes
 441:shy_fft.h     ****   };
 442:shy_fft.h     ****   
 443:shy_fft.h     ****  public:
 444:shy_fft.h     ****   void operator()(
 445:shy_fft.h     ****       T* input,
 446:shy_fft.h     ****       T* output,
 447:shy_fft.h     ****       const uint8_t* bit_rev,
 448:shy_fft.h     ****       Phasor* phasor) {
 449:shy_fft.h     ****     T* s = (T*)(input);
 450:shy_fft.h     ****     T* d = output;
 451:shy_fft.h     ****     Math<T> math;
 452:shy_fft.h     ****     
 453:shy_fft.h     ****     // Remaining passes.
 454:shy_fft.h     ****     for (size_t pass = num_passes - 1; pass >= 3; --pass) {
 455:shy_fft.h     ****       size_t n = 1 << pass;
 456:shy_fft.h     ****       size_t n_2 = n >> 1;
 457:shy_fft.h     ****       
 458:shy_fft.h     ****       for (size_t i = 0; i < size; i += (n << 1)) {
 459:shy_fft.h     ****         T* sr = s + i;
 460:shy_fft.h     ****         T* si = sr + n;
 461:shy_fft.h     ****         T* d1r = d + i;
 462:shy_fft.h     ****         T* d2r = d1r + n;
 463:shy_fft.h     ****         
 464:shy_fft.h     ****         d1r[0] = sr[0] + si[0];
 465:shy_fft.h     ****         d2r[0] = sr[0] - si[0];
 466:shy_fft.h     ****         d1r[n_2] = sr[n_2] * T(2);
 467:shy_fft.h     ****         d2r[n_2] = si[n_2] * T(2);
 468:shy_fft.h     ****       
 469:shy_fft.h     ****         T* d1i = d1r + n_2;
 470:shy_fft.h     ****         T* d2i = d1i + n;
 471:shy_fft.h     ****         phasor->Start(pass);
 472:shy_fft.h     ****         for (size_t j = 1; j < n_2; ++j) {
 473:shy_fft.h     ****           d1r[j] = sr[j] + si[-j];
 474:shy_fft.h     ****           d1i[j] = si[j] - si[n - j];
 475:shy_fft.h     ****           
 476:shy_fft.h     ****           T c = phasor->cos();
 477:shy_fft.h     ****           T s = phasor->sin();
 478:shy_fft.h     ****           T vr = sr[j] - si[-j];
 479:shy_fft.h     ****           T vi = si[j] + si[n - j];
 480:shy_fft.h     ****           
 481:shy_fft.h     ****           d2r[j] = vr * c + vi * s;
 482:shy_fft.h     ****           d2i[j] = vi * c - vr * s;
ARM GAS  /var/folders/hl/qgbwny5j0fd895c2c41bk3tw0000gp/T//cc9kFYNb.s 			page 36


 483:shy_fft.h     ****           phasor->Rotate();
 484:shy_fft.h     ****         }
 485:shy_fft.h     ****       }
 486:shy_fft.h     **** 
 487:shy_fft.h     ****       // Flip source and destination pointers for the next pass.
 488:shy_fft.h     ****       if (d == output) {
 489:shy_fft.h     ****         s = output;
 490:shy_fft.h     ****         d = input;
 491:shy_fft.h     ****       } else {
 492:shy_fft.h     ****         s = input;
 493:shy_fft.h     ****         d = output;
 494:shy_fft.h     ****       }
 495:shy_fft.h     ****     }
 496:shy_fft.h     ****     
 497:shy_fft.h     ****     // Copy data if necessary.
 498:shy_fft.h     ****     if (d == output) {
 499:shy_fft.h     ****       std::copy(&s[0], &s[size], &output[0]);
 500:shy_fft.h     ****     }
 501:shy_fft.h     ****     
 502:shy_fft.h     ****     s = output;
 503:shy_fft.h     ****     d = input;
 504:shy_fft.h     ****     for (size_t i = 0; i < size; i += 8) {
 505:shy_fft.h     ****       T vr, vi;
 506:shy_fft.h     ****       d[i] = s[i] + s[i + 4];
 507:shy_fft.h     ****       d[i + 4] = s[i] - s[i + 4];
 508:shy_fft.h     ****       d[i + 2] = s[i + 2] * T(2);
 509:shy_fft.h     ****       d[i + 6] = s[i + 6] * T(2);
 510:shy_fft.h     ****       d[i + 1] = s[i + 1] + s[i + 3];
 511:shy_fft.h     ****       d[i + 3] = s[i + 5] - s[i + 7];
 512:shy_fft.h     ****       vr = s[i + 1] - s[i + 3];
 513:shy_fft.h     ****       vi = s[i + 5] + s[i + 7];
 514:shy_fft.h     ****       d[i + 5] = (vr + vi) * math.sqrt_2_div_2();
 515:shy_fft.h     ****       d[i + 7] = (vi - vr) * math.sqrt_2_div_2();
 516:shy_fft.h     ****     }
 517:shy_fft.h     ****     
 518:shy_fft.h     ****     // First and second pass.
 519:shy_fft.h     ****     s = input;
 520:shy_fft.h     ****     d = output;
 521:shy_fft.h     ****     for (size_t i = 0; i < size; i += 4) {
 522:shy_fft.h     ****       size_t r0 = num_passes <= 8
 523:shy_fft.h     ****           ? bit_rev[i >> 2]
 524:shy_fft.h     ****           : ((bit_rev[i & 0xff] << 8) | bit_rev[i >> 8]) >> (16 - num_passes);
 525:shy_fft.h     ****       size_t r1 = r0 + 2 * (size >> 2);
 526:shy_fft.h     ****       size_t r2 = r0 + 1 * (size >> 2);
 527:shy_fft.h     ****       size_t r3 = r0 + 3 * (size >> 2);
 528:shy_fft.h     ****       
 529:shy_fft.h     ****       T b_0 = s[0] + s[2];
 530:shy_fft.h     ****       T b_2 = s[0] - s[2];
 531:shy_fft.h     ****       T b_1 = s[1] * T(2);
 532:shy_fft.h     ****       T b_3 = s[3] * T(2);
 533:shy_fft.h     ****       
 534:shy_fft.h     ****       d[r0] = b_0 + b_1;
 535:shy_fft.h     ****       d[r1] = b_0 - b_1;
 536:shy_fft.h     ****       d[r2] = b_2 + b_3;
 537:shy_fft.h     ****       d[r3] = b_2 - b_3;
 538:shy_fft.h     ****       s += 4;
 539:shy_fft.h     ****     }
ARM GAS  /var/folders/hl/qgbwny5j0fd895c2c41bk3tw0000gp/T//cc9kFYNb.s 			page 37


 540:shy_fft.h     ****   }
 541:shy_fft.h     ****   
 542:shy_fft.h     ****   void operator()(
 543:shy_fft.h     ****       T* input,
 544:shy_fft.h     ****       T* output,
 545:shy_fft.h     ****       const uint8_t* bit_rev,
 546:shy_fft.h     ****       Phasor* phasor,
 547:shy_fft.h     ****       size_t rt_num_passes) {
 548:shy_fft.h     ****     T* s = (T*)(input);
 549:shy_fft.h     ****     T* d = output;
 550:shy_fft.h     ****     Math<T> math;
 551:shy_fft.h     ****     
 552:shy_fft.h     ****     size_t rt_size = 1 << rt_num_passes;
 553:shy_fft.h     ****     
 554:shy_fft.h     ****     // Remaining passes.
 555:shy_fft.h     ****     for (size_t pass = rt_num_passes - 1; pass >= 3; --pass) {
 556:shy_fft.h     ****       size_t n = 1 << pass;
 557:shy_fft.h     ****       size_t n_2 = n >> 1;
 558:shy_fft.h     ****       
 559:shy_fft.h     ****       for (size_t i = 0; i < rt_size; i += (n << 1)) {
 560:shy_fft.h     ****         T* sr = s + i;
 561:shy_fft.h     ****         T* si = sr + n;
 562:shy_fft.h     ****         T* d1r = d + i;
 563:shy_fft.h     ****         T* d2r = d1r + n;
 564:shy_fft.h     ****         
 565:shy_fft.h     ****         d1r[0] = sr[0] + si[0];
 566:shy_fft.h     ****         d2r[0] = sr[0] - si[0];
 567:shy_fft.h     ****         d1r[n_2] = sr[n_2] * T(2);
 568:shy_fft.h     ****         d2r[n_2] = si[n_2] * T(2);
 569:shy_fft.h     ****       
 570:shy_fft.h     ****         T* d1i = d1r + n_2;
 571:shy_fft.h     ****         T* d2i = d1i + n;
 572:shy_fft.h     ****         phasor->Start(pass);
 573:shy_fft.h     ****         for (size_t j = 1; j < n_2; ++j) {
 574:shy_fft.h     ****           d1r[j] = sr[j] + si[-j];
 575:shy_fft.h     ****           d1i[j] = si[j] - si[n - j];
 576:shy_fft.h     ****           
 577:shy_fft.h     ****           T c = phasor->cos();
 578:shy_fft.h     ****           T s = phasor->sin();
 579:shy_fft.h     ****           T vr = sr[j] - si[-j];
 580:shy_fft.h     ****           T vi = si[j] + si[n - j];
 581:shy_fft.h     ****           
 582:shy_fft.h     ****           d2r[j] = vr * c + vi * s;
 583:shy_fft.h     ****           d2i[j] = vi * c - vr * s;
 584:shy_fft.h     ****           phasor->Rotate();
 585:shy_fft.h     ****         }
 586:shy_fft.h     ****       }
 587:shy_fft.h     **** 
 588:shy_fft.h     ****       // Flip source and destination pointers for the next pass.
 589:shy_fft.h     ****       if (d == output) {
 590:shy_fft.h     ****         s = output;
 591:shy_fft.h     ****         d = input;
 592:shy_fft.h     ****       } else {
 593:shy_fft.h     ****         s = input;
 594:shy_fft.h     ****         d = output;
 595:shy_fft.h     ****       }
 596:shy_fft.h     ****     }
ARM GAS  /var/folders/hl/qgbwny5j0fd895c2c41bk3tw0000gp/T//cc9kFYNb.s 			page 38


 597:shy_fft.h     ****     
 598:shy_fft.h     ****     // Copy data if necessary.
 599:shy_fft.h     ****     if (d == output) {
 600:shy_fft.h     ****       std::copy(&s[0], &s[rt_size], &output[0]);
 601:shy_fft.h     ****     }
 602:shy_fft.h     ****     
 603:shy_fft.h     ****     s = output;
 604:shy_fft.h     ****     d = input;
 605:shy_fft.h     ****     for (size_t i = 0; i < rt_size; i += 8) {
 606:shy_fft.h     ****       T vr, vi;
 607:shy_fft.h     ****       d[i] = s[i] + s[i + 4];
 608:shy_fft.h     ****       d[i + 4] = s[i] - s[i + 4];
 609:shy_fft.h     ****       d[i + 2] = s[i + 2] * T(2);
 610:shy_fft.h     ****       d[i + 6] = s[i + 6] * T(2);
 611:shy_fft.h     ****       d[i + 1] = s[i + 1] + s[i + 3];
 612:shy_fft.h     ****       d[i + 3] = s[i + 5] - s[i + 7];
 613:shy_fft.h     ****       vr = s[i + 1] - s[i + 3];
 614:shy_fft.h     ****       vi = s[i + 5] + s[i + 7];
 615:shy_fft.h     ****       d[i + 5] = (vr + vi) * math.sqrt_2_div_2();
 616:shy_fft.h     ****       d[i + 7] = (vi - vr) * math.sqrt_2_div_2();
 617:shy_fft.h     ****     }
 618:shy_fft.h     ****     
 619:shy_fft.h     ****     // First and second pass.
 620:shy_fft.h     ****     s = input;
 621:shy_fft.h     ****     d = output;
 622:shy_fft.h     ****     for (size_t i = 0; i < rt_size; i += 4) {
 623:shy_fft.h     ****       size_t r0 = \
 624:shy_fft.h     ****             ((bit_rev[i & 0xff] << 8) | bit_rev[i >> 8]) >> (16 - rt_num_passes);
 625:shy_fft.h     ****       size_t r1 = r0 + 2 * (rt_size >> 2);
 626:shy_fft.h     ****       size_t r2 = r0 + 1 * (rt_size >> 2);
 627:shy_fft.h     ****       size_t r3 = r0 + 3 * (rt_size >> 2);
 628:shy_fft.h     ****       
 629:shy_fft.h     ****       T b_0 = s[0] + s[2];
 630:shy_fft.h     ****       T b_2 = s[0] - s[2];
 631:shy_fft.h     ****       T b_1 = s[1] * T(2);
 632:shy_fft.h     ****       T b_3 = s[3] * T(2);
 633:shy_fft.h     ****       
 634:shy_fft.h     ****       d[r0] = b_0 + b_1;
 635:shy_fft.h     ****       d[r1] = b_0 - b_1;
 636:shy_fft.h     ****       d[r2] = b_2 + b_3;
 637:shy_fft.h     ****       d[r3] = b_2 - b_3;
 638:shy_fft.h     ****       s += 4;
 639:shy_fft.h     ****     }
 640:shy_fft.h     ****   }
 641:shy_fft.h     **** };
 642:shy_fft.h     **** 
 643:shy_fft.h     **** template<typename T, typename Phasor>
 644:shy_fft.h     **** struct InverseTransform<T, 0, Phasor> {
 645:shy_fft.h     ****   void operator()(const T* i, T* o, T*, const uint8_t*, Phasor*) {
 646:shy_fft.h     ****     o[0] = i[0];
 647:shy_fft.h     ****   }
 648:shy_fft.h     **** };
 649:shy_fft.h     **** 
 650:shy_fft.h     **** template<typename T, typename Phasor>
 651:shy_fft.h     **** struct InverseTransform<T, 1, Phasor> {
 652:shy_fft.h     ****   void operator()(const T* i, T* o, T*, const uint8_t*, Phasor*) {
 653:shy_fft.h     ****     o[0] = i[0] + i[1];
ARM GAS  /var/folders/hl/qgbwny5j0fd895c2c41bk3tw0000gp/T//cc9kFYNb.s 			page 39


 654:shy_fft.h     ****     o[1] = i[0] - i[1];
 655:shy_fft.h     ****   }
 656:shy_fft.h     **** };
 657:shy_fft.h     **** 
 658:shy_fft.h     **** template<typename T, typename Phasor>
 659:shy_fft.h     **** struct InverseTransform<T, 2, Phasor> {
 660:shy_fft.h     ****   void operator()(const T* i, T* o, T*, const uint8_t*, Phasor*) {
 661:shy_fft.h     ****     T a = i[0] + i[2];
 662:shy_fft.h     ****     T b = i[0] - i[2];
 663:shy_fft.h     ****     
 664:shy_fft.h     ****     o[0] = a + i[1] * T(2);
 665:shy_fft.h     ****     o[2] = a - i[1] * T(2);
 666:shy_fft.h     ****     o[1] = b + i[3] * T(2);
 667:shy_fft.h     ****     o[3] = b - i[3] * T(2);
 668:shy_fft.h     ****   }
 669:shy_fft.h     **** };
 670:shy_fft.h     **** 
 671:shy_fft.h     **** 
 672:shy_fft.h     **** template<
 673:shy_fft.h     ****     typename T=float,
 674:shy_fft.h     ****     size_t size=16,
 675:shy_fft.h     ****     template <typename, size_t> class Phasor=LutPhasor>
 676:shy_fft.h     **** class ShyFFT {
 677:shy_fft.h     ****  public:
 678:shy_fft.h     ****   enum {
 679:shy_fft.h     ****     num_passes = Log2<size>::value,
 680:shy_fft.h     ****     max_size = size
 681:shy_fft.h     ****   };
 682:shy_fft.h     **** 
 683:shy_fft.h     ****  private:
 684:shy_fft.h     ****   typedef Phasor<T, num_passes> PhasorType;
 685:shy_fft.h     **** 
 686:shy_fft.h     ****  public:
 687:shy_fft.h     ****   ShyFFT() { }
 688:shy_fft.h     ****   ~ShyFFT() { }
 297              		.loc 16 688 3 is_stmt 1 view -0
 298              		.cfi_startproc
 299              		@ args = 0, pretend = 0, frame = 0
 300              		@ frame_needed = 0, uses_anonymous_args = 0
 301              		@ link register save eliminated.
 302              	.LBB692:
 303              	.LBI692:
 153:shy_fft.h     ****   
 304              		.loc 16 153 3 view .LVU54
 153:shy_fft.h     ****   
 305              		.loc 16 153 3 is_stmt 0 view .LVU55
 306              	.LBE692:
 307              		.loc 16 688 15 view .LVU56
 308 0000 7047     		bx	lr
 309              		.cfi_endproc
 310              	.LFE5535:
 312              		.weak	_ZN6ShyFFTIfLj1024E14RotationPhasorED1Ev
 313              		.thumb_set _ZN6ShyFFTIfLj1024E14RotationPhasorED1Ev,_ZN6ShyFFTIfLj1024E14RotationPhasorED2Ev
 314 0002 00BF     		.section	.text._ZN5daisy11OledDisplayINS_13SSD130xDriverILj128ELj64ENS_19SSD130xI2CTransportEEEED0
 315              		.align	1
 316              		.p2align 2,,3
 317              		.weak	_ZN5daisy11OledDisplayINS_13SSD130xDriverILj128ELj64ENS_19SSD130xI2CTransportEEEED0Ev
ARM GAS  /var/folders/hl/qgbwny5j0fd895c2c41bk3tw0000gp/T//cc9kFYNb.s 			page 40


 318              		.syntax unified
 319              		.thumb
 320              		.thumb_func
 321              		.fpu fpv5-d16
 323              	_ZN5daisy11OledDisplayINS_13SSD130xDriverILj128ELj64ENS_19SSD130xI2CTransportEEEED0Ev:
 324              	.LVL12:
 325              	.LFB5222:
  18:../../libDaisy//src/hid/disp/oled_display.h **** 
 326              		.loc 8 18 13 is_stmt 1 view -0
 327              		.cfi_startproc
 328              		@ args = 0, pretend = 0, frame = 0
 329              		@ frame_needed = 0, uses_anonymous_args = 0
  18:../../libDaisy//src/hid/disp/oled_display.h **** 
 330              		.loc 8 18 13 is_stmt 0 view .LVU58
 331 0000 10B5     		push	{r4, lr}
 332              		.cfi_def_cfa_offset 8
 333              		.cfi_offset 4, -8
 334              		.cfi_offset 14, -4
  18:../../libDaisy//src/hid/disp/oled_display.h **** 
 335              		.loc 8 18 13 view .LVU59
 336 0002 0446     		mov	r4, r0
 337              	.LVL13:
 338              	.LBB693:
 339              	.LBI693:
  18:../../libDaisy//src/hid/disp/oled_display.h **** 
 340              		.loc 8 18 13 is_stmt 1 view .LVU60
 341              	.LBB694:
 342              	.LBI694:
 343              		.loc 9 219 13 view .LVU61
 344              	.LBB695:
 345              	.LBI695:
  23:../../libDaisy//src/hid/disp/display.h **** 
 346              		.loc 9 23 13 view .LVU62
  23:../../libDaisy//src/hid/disp/display.h **** 
 347              		.loc 9 23 13 is_stmt 0 view .LVU63
 348              	.LBE695:
 349              	.LBE694:
 350              	.LBE693:
  18:../../libDaisy//src/hid/disp/oled_display.h **** 
 351              		.loc 8 18 29 view .LVU64
 352 0004 4FF48261 		mov	r1, #1040
 353 0008 FFF7FEFF 		bl	_ZdlPvj
 354              	.LVL14:
  18:../../libDaisy//src/hid/disp/oled_display.h **** 
 355              		.loc 8 18 29 view .LVU65
 356 000c 2046     		mov	r0, r4
 357 000e 10BD     		pop	{r4, pc}
  18:../../libDaisy//src/hid/disp/oled_display.h **** 
 358              		.loc 8 18 29 view .LVU66
 359              		.cfi_endproc
 360              	.LFE5222:
 362              		.section	.text._ZN16InverseTransformIfLj10E14RotationPhasorIfLj10EEEclEPfS3_PKhPS1_.isra.0,"ax",%p
 363              		.align	1
 364              		.p2align 2,,3
 365              		.syntax unified
 366              		.thumb
 367              		.thumb_func
ARM GAS  /var/folders/hl/qgbwny5j0fd895c2c41bk3tw0000gp/T//cc9kFYNb.s 			page 41


 368              		.fpu fpv5-d16
 370              	_ZN16InverseTransformIfLj10E14RotationPhasorIfLj10EEEclEPfS3_PKhPS1_.isra.0:
 371              	.LVL15:
 372              	.LFB5551:
 444:shy_fft.h     ****       T* input,
 373              		.loc 16 444 8 is_stmt 1 view -0
 374              		.cfi_startproc
 375              		@ args = 0, pretend = 0, frame = 56
 376              		@ frame_needed = 0, uses_anonymous_args = 0
 444:shy_fft.h     ****       T* input,
 377              		.loc 16 444 8 is_stmt 0 view .LVU68
 378 0000 2DE9F04F 		push	{r4, r5, r6, r7, r8, r9, r10, fp, lr}
 379              		.cfi_def_cfa_offset 36
 380              		.cfi_offset 4, -36
 381              		.cfi_offset 5, -32
 382              		.cfi_offset 6, -28
 383              		.cfi_offset 7, -24
 384              		.cfi_offset 8, -20
 385              		.cfi_offset 9, -16
 386              		.cfi_offset 10, -12
 387              		.cfi_offset 11, -8
 388              		.cfi_offset 14, -4
 389 0004 8FB0     		sub	sp, sp, #60
 390              		.cfi_def_cfa_offset 96
 444:shy_fft.h     ****       T* input,
 391              		.loc 16 444 8 view .LVU69
 392 0006 9B46     		mov	fp, r3
 449:shy_fft.h     ****     T* d = output;
 393              		.loc 16 449 8 view .LVU70
 394 0008 8046     		mov	r8, r0
 395 000a 0493     		str	r3, [sp, #16]
 396              	.LBB722:
 454:shy_fft.h     ****       size_t n = 1 << pass;
 397              		.loc 16 454 17 view .LVU71
 398 000c 0923     		movs	r3, #9
 399              	.LVL16:
 454:shy_fft.h     ****       size_t n = 1 << pass;
 400              		.loc 16 454 17 view .LVU72
 401              	.LBE722:
 444:shy_fft.h     ****       T* input,
 402              		.loc 16 444 8 view .LVU73
 403 000e 0C90     		str	r0, [sp, #48]
 404              	.LVL17:
 405              	.LBB751:
 454:shy_fft.h     ****       size_t n = 1 << pass;
 406              		.loc 16 454 45 is_stmt 1 view .LVU74
 407              	.LBE751:
 444:shy_fft.h     ****       T* input,
 408              		.loc 16 444 8 is_stmt 0 view .LVU75
 409 0010 0D92     		str	r2, [sp, #52]
 410 0012 0991     		str	r1, [sp, #36]
 411              	.LBB752:
 454:shy_fft.h     ****       size_t n = 1 << pass;
 412              		.loc 16 454 17 view .LVU76
 413 0014 CDE90A31 		strd	r3, r1, [sp, #40]
 414              	.LVL18:
 415              	.L15:
ARM GAS  /var/folders/hl/qgbwny5j0fd895c2c41bk3tw0000gp/T//cc9kFYNb.s 			page 42


 416              	.LBB723:
 455:shy_fft.h     ****       size_t n_2 = n >> 1;
 417              		.loc 16 455 20 view .LVU77
 418 0018 0A9A     		ldr	r2, [sp, #40]
 419 001a 4FF0010E 		mov	lr, #1
 420              	.LBB724:
 421              	.LBB725:
 460:shy_fft.h     ****         T* d1r = d + i;
 422              		.loc 16 460 20 view .LVU78
 423 001e 0423     		movs	r3, #4
 424 0020 0999     		ldr	r1, [sp, #36]
 425              	.LBE725:
 426              	.LBE724:
 455:shy_fft.h     ****       size_t n_2 = n >> 1;
 427              		.loc 16 455 20 view .LVU79
 428 0022 0EFA02FE 		lsl	lr, lr, r2
 429              	.LVL19:
 430              	.LBB748:
 458:shy_fft.h     ****         T* sr = s + i;
 431              		.loc 16 458 28 is_stmt 1 view .LVU80
 432              	.LBB745:
 460:shy_fft.h     ****         T* d1r = d + i;
 433              		.loc 16 460 20 is_stmt 0 view .LVU81
 434 0026 03FA02F0 		lsl	r0, r3, r2
 435              	.LBE745:
 458:shy_fft.h     ****         T* sr = s + i;
 436              		.loc 16 458 44 view .LVU82
 437 002a 4FEA4E03 		lsl	r3, lr, #1
 438              	.LBE748:
 456:shy_fft.h     ****       
 439              		.loc 16 456 14 view .LVU83
 440 002e 4FEA5E02 		lsr	r2, lr, #1
 441              	.LVL20:
 442              	.LBB749:
 443              	.LBB746:
 460:shy_fft.h     ****         T* d1r = d + i;
 444              		.loc 16 460 20 view .LVU84
 445 0032 0690     		str	r0, [sp, #24]
 446              	.LBE746:
 458:shy_fft.h     ****         T* sr = s + i;
 447              		.loc 16 458 44 view .LVU85
 448 0034 0793     		str	r3, [sp, #28]
 449 0036 031D     		adds	r3, r0, #4
 450 0038 08EB820A 		add	r10, r8, r2, lsl #2
 451 003c 01EB8204 		add	r4, r1, r2, lsl #2
 452 0040 08EB0309 		add	r9, r8, r3
 453 0044 03EB8202 		add	r2, r3, r2, lsl #2
 454              	.LVL21:
 458:shy_fft.h     ****         T* sr = s + i;
 455              		.loc 16 458 44 view .LVU86
 456 0048 CB18     		adds	r3, r1, r3
 457 004a 4FEACE0E 		lsl	lr, lr, #3
 458              	.LVL22:
 458:shy_fft.h     ****         T* sr = s + i;
 459              		.loc 16 458 44 view .LVU87
 460 004e D446     		mov	ip, r10
 461 0050 8A18     		adds	r2, r1, r2
ARM GAS  /var/folders/hl/qgbwny5j0fd895c2c41bk3tw0000gp/T//cc9kFYNb.s 			page 43


 462 0052 0093     		str	r3, [sp]
 463 0054 4300     		lsls	r3, r0, #1
 464 0056 0294     		str	r4, [sp, #8]
 465 0058 0392     		str	r2, [sp, #12]
 466 005a 0A1D     		adds	r2, r1, #4
 467 005c 0893     		str	r3, [sp, #32]
 458:shy_fft.h     ****         T* sr = s + i;
 468              		.loc 16 458 19 view .LVU88
 469 005e 0023     		movs	r3, #0
 470 0060 0192     		str	r2, [sp, #4]
 471 0062 0593     		str	r3, [sp, #20]
 472              	.LVL23:
 473              	.L13:
 474              	.LBB747:
 464:shy_fft.h     ****         d2r[0] = sr[0] - si[0];
 475              		.loc 16 464 24 view .LVU89
 476 0064 19ED017A 		vldr.32	s14, [r9, #-4]
 465:shy_fft.h     ****         d1r[n_2] = sr[n_2] * T(2);
 477              		.loc 16 465 24 view .LVU90
 478 0068 4346     		mov	r3, r8
 464:shy_fft.h     ****         d2r[0] = sr[0] - si[0];
 479              		.loc 16 464 24 view .LVU91
 480 006a D8ED007A 		vldr.32	s15, [r8]
 464:shy_fft.h     ****         d2r[0] = sr[0] - si[0];
 481              		.loc 16 464 16 view .LVU92
 482 006e 019D     		ldr	r5, [sp, #4]
 464:shy_fft.h     ****         d2r[0] = sr[0] - si[0];
 483              		.loc 16 464 24 view .LVU93
 484 0070 77EE877A 		vadd.f32	s15, s15, s14
 465:shy_fft.h     ****         d1r[n_2] = sr[n_2] * T(2);
 485              		.loc 16 465 16 view .LVU94
 486 0074 009E     		ldr	r6, [sp]
 467:shy_fft.h     ****       
 487              		.loc 16 467 22 view .LVU95
 488 0076 0699     		ldr	r1, [sp, #24]
 466:shy_fft.h     ****         d2r[n_2] = si[n_2] * T(2);
 489              		.loc 16 466 18 view .LVU96
 490 0078 029C     		ldr	r4, [sp, #8]
 464:shy_fft.h     ****         d2r[0] = sr[0] - si[0];
 491              		.loc 16 464 16 view .LVU97
 492 007a 45ED017A 		vstr.32	s15, [r5, #-4]
 467:shy_fft.h     ****       
 493              		.loc 16 467 22 view .LVU98
 494 007e 0AEB0102 		add	r2, r10, r1
 465:shy_fft.h     ****         d1r[n_2] = sr[n_2] * T(2);
 495              		.loc 16 465 24 view .LVU99
 496 0082 19ED017A 		vldr.32	s14, [r9, #-4]
 497 0086 01EB0800 		add	r0, r1, r8
 498              	.LVL24:
 499              	.LBB726:
 500              	.LBI726:
 165:shy_fft.h     ****     size_t index = (pass - 3) << 1;
 501              		.loc 16 165 15 is_stmt 1 view .LVU100
 165:shy_fft.h     ****     size_t index = (pass - 3) << 1;
 502              		.loc 16 165 15 is_stmt 0 view .LVU101
 503              	.LBE726:
 465:shy_fft.h     ****         d1r[n_2] = sr[n_2] * T(2);
ARM GAS  /var/folders/hl/qgbwny5j0fd895c2c41bk3tw0000gp/T//cc9kFYNb.s 			page 44


 504              		.loc 16 465 24 view .LVU102
 505 008a F3EC017A 		vldmia.32	r3!, {s15}
 467:shy_fft.h     ****       
 506              		.loc 16 467 18 view .LVU103
 507 008e 039F     		ldr	r7, [sp, #12]
 465:shy_fft.h     ****         d1r[n_2] = sr[n_2] * T(2);
 508              		.loc 16 465 24 view .LVU104
 509 0090 77EEC77A 		vsub.f32	s15, s15, s14
 465:shy_fft.h     ****         d1r[n_2] = sr[n_2] * T(2);
 510              		.loc 16 465 16 view .LVU105
 511 0094 46ED017A 		vstr.32	s15, [r6, #-4]
 466:shy_fft.h     ****         d2r[n_2] = si[n_2] * T(2);
 512              		.loc 16 466 28 view .LVU106
 513 0098 DAED007A 		vldr.32	s15, [r10]
 514 009c 77EEA77A 		vadd.f32	s15, s15, s15
 466:shy_fft.h     ****         d2r[n_2] = si[n_2] * T(2);
 515              		.loc 16 466 18 view .LVU107
 516 00a0 E4EC017A 		vstmia.32	r4!, {s15}
 517              	.LVL25:
 467:shy_fft.h     ****       
 518              		.loc 16 467 28 view .LVU108
 519 00a4 D2ED007A 		vldr.32	s15, [r2]
 520              	.LBB730:
 521              	.LBB727:
 167:shy_fft.h     ****     sin_ = imag_ = sin_cos_lut_[index + 1];
 522              		.loc 16 167 32 view .LVU109
 523 00a8 049A     		ldr	r2, [sp, #16]
 524              	.LBE727:
 525              	.LBE730:
 467:shy_fft.h     ****       
 526              		.loc 16 467 28 view .LVU110
 527 00aa 77EEA77A 		vadd.f32	s15, s15, s15
 467:shy_fft.h     ****       
 528              		.loc 16 467 18 view .LVU111
 529 00ae 47ED017A 		vstr.32	s15, [r7, #-4]
 530              	.LBB731:
 531              	.LBB728:
 167:shy_fft.h     ****     sin_ = imag_ = sin_cos_lut_[index + 1];
 532              		.loc 16 167 32 view .LVU112
 533 00b2 126B     		ldr	r2, [r2, #48]	@ float
 167:shy_fft.h     ****     sin_ = imag_ = sin_cos_lut_[index + 1];
 534              		.loc 16 167 18 view .LVU113
 535 00b4 CBF84020 		str	r2, [fp, #64]	@ float
 167:shy_fft.h     ****     sin_ = imag_ = sin_cos_lut_[index + 1];
 536              		.loc 16 167 10 view .LVU114
 537 00b8 CBF83820 		str	r2, [fp, #56]	@ float
 168:shy_fft.h     ****   }
 538              		.loc 16 168 32 view .LVU115
 539 00bc 049A     		ldr	r2, [sp, #16]
 540 00be 526B     		ldr	r2, [r2, #52]	@ float
 168:shy_fft.h     ****   }
 541              		.loc 16 168 18 view .LVU116
 542 00c0 CBF84420 		str	r2, [fp, #68]	@ float
 168:shy_fft.h     ****   }
 543              		.loc 16 168 10 view .LVU117
 544 00c4 CBF83C20 		str	r2, [fp, #60]	@ float
 545              	.LVL26:
ARM GAS  /var/folders/hl/qgbwny5j0fd895c2c41bk3tw0000gp/T//cc9kFYNb.s 			page 45


 168:shy_fft.h     ****   }
 546              		.loc 16 168 10 view .LVU118
 547              	.LBE728:
 548              	.LBE731:
 549              	.LBB732:
 472:shy_fft.h     ****           d1r[j] = sr[j] + si[-j];
 550              		.loc 16 472 30 is_stmt 1 view .LVU119
 551 00c8 089A     		ldr	r2, [sp, #32]
 552 00ca 08EB0201 		add	r1, r8, r2
 553              	.LBE732:
 554              	.LBB743:
 555              	.LBB729:
 168:shy_fft.h     ****   }
 556              		.loc 16 168 10 is_stmt 0 view .LVU120
 557 00ce 4A46     		mov	r2, r9
 558              	.LVL27:
 559              	.L12:
 168:shy_fft.h     ****   }
 560              		.loc 16 168 10 view .LVU121
 561              	.LBE729:
 562              	.LBE743:
 563              	.LBB744:
 564              	.LBB733:
 473:shy_fft.h     ****           d1i[j] = si[j] - si[n - j];
 565              		.loc 16 473 22 view .LVU122
 566 00d0 93ED007A 		vldr.32	s14, [r3]
 473:shy_fft.h     ****           d1i[j] = si[j] - si[n - j];
 567              		.loc 16 473 26 view .LVU123
 568 00d4 70ED017A 		vldmdb.32	r0!, {s15}
 569 00d8 77EE877A 		vadd.f32	s15, s15, s14
 473:shy_fft.h     ****           d1i[j] = si[j] - si[n - j];
 570              		.loc 16 473 18 view .LVU124
 571 00dc E5EC017A 		vstmia.32	r5!, {s15}
 474:shy_fft.h     ****           
 572              		.loc 16 474 26 view .LVU125
 573 00e0 31ED017A 		vldmdb.32	r1!, {s14}
 474:shy_fft.h     ****           
 574              		.loc 16 474 22 view .LVU126
 575 00e4 D2ED007A 		vldr.32	s15, [r2]
 474:shy_fft.h     ****           
 576              		.loc 16 474 26 view .LVU127
 577 00e8 77EEC77A 		vsub.f32	s15, s15, s14
 474:shy_fft.h     ****           
 578              		.loc 16 474 18 view .LVU128
 579 00ec E4EC017A 		vstmia.32	r4!, {s15}
 580              	.LVL28:
 581              	.LBB734:
 582              	.LBI734:
 177:shy_fft.h     ****   inline T sin() const { return sin_; }
 583              		.loc 16 177 12 is_stmt 1 view .LVU129
 584              	.LBE734:
 478:shy_fft.h     ****           T vi = si[j] + si[n - j];
 585              		.loc 16 478 13 is_stmt 0 view .LVU130
 586 00f0 B3EC017A 		vldmia.32	r3!, {s14}
 587 00f4 D0ED005A 		vldr.32	s11, [r0]
 479:shy_fft.h     ****           
 588              		.loc 16 479 13 view .LVU131
ARM GAS  /var/folders/hl/qgbwny5j0fd895c2c41bk3tw0000gp/T//cc9kFYNb.s 			page 46


 589 00f8 91ED006A 		vldr.32	s12, [r1]
 590              	.LBE733:
 472:shy_fft.h     ****           d1r[j] = sr[j] + si[-j];
 591              		.loc 16 472 30 view .LVU132
 592 00fc 6345     		cmp	r3, ip
 593              	.LBB742:
 479:shy_fft.h     ****           
 594              		.loc 16 479 13 view .LVU133
 595 00fe F2EC016A 		vldmia.32	r2!, {s13}
 478:shy_fft.h     ****           T vi = si[j] + si[n - j];
 596              		.loc 16 478 13 view .LVU134
 597 0102 37EE657A 		vsub.f32	s14, s14, s11
 598              	.LBB736:
 599              	.LBB737:
 178:shy_fft.h     ****   
 600              		.loc 16 178 33 view .LVU135
 601 0106 DBED0F7A 		vldr.32	s15, [fp, #60]
 602              	.LBE737:
 603              	.LBE736:
 479:shy_fft.h     ****           
 604              		.loc 16 479 13 view .LVU136
 605 010a 76EE866A 		vadd.f32	s13, s13, s12
 606              	.LBB738:
 607              	.LBB735:
 177:shy_fft.h     ****   inline T sin() const { return sin_; }
 608              		.loc 16 177 33 view .LVU137
 609 010e DBED0E5A 		vldr.32	s11, [fp, #56]
 610              	.LVL29:
 177:shy_fft.h     ****   inline T sin() const { return sin_; }
 611              		.loc 16 177 33 view .LVU138
 612              	.LBE735:
 613              	.LBE738:
 614              	.LBB739:
 615              	.LBI736:
 178:shy_fft.h     ****   
 616              		.loc 16 178 12 is_stmt 1 view .LVU139
 178:shy_fft.h     ****   
 617              		.loc 16 178 12 is_stmt 0 view .LVU140
 618              	.LBE739:
 482:shy_fft.h     ****           phasor->Rotate();
 619              		.loc 16 482 27 view .LVU141
 620 0112 27EE676A 		vnmul.f32	s12, s14, s15
 481:shy_fft.h     ****           d2i[j] = vi * c - vr * s;
 621              		.loc 16 481 32 view .LVU142
 622 0116 67EEA67A 		vmul.f32	s15, s15, s13
 623              	.LVL30:
 482:shy_fft.h     ****           phasor->Rotate();
 624              		.loc 16 482 27 view .LVU143
 625 011a A5EEA66A 		vfma.f32	s12, s11, s13
 481:shy_fft.h     ****           d2i[j] = vi * c - vr * s;
 626              		.loc 16 481 27 view .LVU144
 627 011e E5EE877A 		vfma.f32	s15, s11, s14
 481:shy_fft.h     ****           d2i[j] = vi * c - vr * s;
 628              		.loc 16 481 18 view .LVU145
 629 0122 E6EC017A 		vstmia.32	r6!, {s15}
 630              	.LVL31:
 482:shy_fft.h     ****           phasor->Rotate();
ARM GAS  /var/folders/hl/qgbwny5j0fd895c2c41bk3tw0000gp/T//cc9kFYNb.s 			page 47


 631              		.loc 16 482 18 view .LVU146
 632 0126 A7EC016A 		vstmia.32	r7!, {s12}
 633              	.LVL32:
 634              	.LBB740:
 635              	.LBI740:
 171:shy_fft.h     ****     T temp = cos_ * real_ - sin_ * imag_;
 636              		.loc 16 171 15 is_stmt 1 view .LVU147
 637              	.LBB741:
 172:shy_fft.h     ****     sin_ = cos_ * imag_ + sin_ * real_;
 638              		.loc 16 172 29 is_stmt 0 view .LVU148
 639 012a DBED0F7A 		vldr.32	s15, [fp, #60]
 172:shy_fft.h     ****     sin_ = cos_ * imag_ + sin_ * real_;
 640              		.loc 16 172 21 view .LVU149
 641 012e DBED106A 		vldr.32	s13, [fp, #64]
 642              	.LVL33:
 172:shy_fft.h     ****     sin_ = cos_ * imag_ + sin_ * real_;
 643              		.loc 16 172 36 view .LVU150
 644 0132 DBED115A 		vldr.32	s11, [fp, #68]
 645              	.LVL34:
 173:shy_fft.h     ****     cos_ = temp;
 646              		.loc 16 173 32 view .LVU151
 647 0136 26EEA77A 		vmul.f32	s14, s13, s15
 648              	.LVL35:
 172:shy_fft.h     ****     sin_ = cos_ * imag_ + sin_ * real_;
 649              		.loc 16 172 14 view .LVU152
 650 013a 9BED0E6A 		vldr.32	s12, [fp, #56]
 172:shy_fft.h     ****     sin_ = cos_ * imag_ + sin_ * real_;
 651              		.loc 16 172 7 view .LVU153
 652 013e 65EEE77A 		vnmul.f32	s15, s11, s15
 173:shy_fft.h     ****     cos_ = temp;
 653              		.loc 16 173 25 view .LVU154
 654 0142 A6EE257A 		vfma.f32	s14, s12, s11
 172:shy_fft.h     ****     sin_ = cos_ * imag_ + sin_ * real_;
 655              		.loc 16 172 7 view .LVU155
 656 0146 E6EE267A 		vfma.f32	s15, s12, s13
 657              	.LVL36:
 173:shy_fft.h     ****     cos_ = temp;
 658              		.loc 16 173 10 view .LVU156
 659 014a 8BED0F7A 		vstr.32	s14, [fp, #60]
 174:shy_fft.h     ****   }
 660              		.loc 16 174 10 view .LVU157
 661 014e CBED0E7A 		vstr.32	s15, [fp, #56]
 662              	.LVL37:
 174:shy_fft.h     ****   }
 663              		.loc 16 174 10 view .LVU158
 664              	.LBE741:
 665              	.LBE740:
 666              	.LBE742:
 472:shy_fft.h     ****           d1r[j] = sr[j] + si[-j];
 667              		.loc 16 472 9 is_stmt 1 view .LVU159
 472:shy_fft.h     ****           d1r[j] = sr[j] + si[-j];
 668              		.loc 16 472 30 view .LVU160
 669 0152 BDD1     		bne	.L12
 670              	.LBE744:
 671              	.LBE747:
 458:shy_fft.h     ****         T* sr = s + i;
 672              		.loc 16 458 7 view .LVU161
ARM GAS  /var/folders/hl/qgbwny5j0fd895c2c41bk3tw0000gp/T//cc9kFYNb.s 			page 48


 458:shy_fft.h     ****         T* sr = s + i;
 673              		.loc 16 458 38 is_stmt 0 view .LVU162
 674 0154 059A     		ldr	r2, [sp, #20]
 458:shy_fft.h     ****         T* sr = s + i;
 675              		.loc 16 458 28 view .LVU163
 676 0156 F044     		add	r8, r8, lr
 677              	.LVL38:
 458:shy_fft.h     ****         T* sr = s + i;
 678              		.loc 16 458 38 view .LVU164
 679 0158 0799     		ldr	r1, [sp, #28]
 458:shy_fft.h     ****         T* sr = s + i;
 680              		.loc 16 458 28 view .LVU165
 681 015a F244     		add	r10, r10, lr
 682 015c F144     		add	r9, r9, lr
 683 015e 03EB0E0C 		add	ip, r3, lr
 458:shy_fft.h     ****         T* sr = s + i;
 684              		.loc 16 458 38 view .LVU166
 685 0162 0A44     		add	r2, r2, r1
 458:shy_fft.h     ****         T* sr = s + i;
 686              		.loc 16 458 28 view .LVU167
 687 0164 0299     		ldr	r1, [sp, #8]
 688 0166 7144     		add	r1, r1, lr
 689 0168 B2F5806F 		cmp	r2, #1024
 458:shy_fft.h     ****         T* sr = s + i;
 690              		.loc 16 458 38 view .LVU168
 691 016c 0592     		str	r2, [sp, #20]
 692              	.LVL39:
 458:shy_fft.h     ****         T* sr = s + i;
 693              		.loc 16 458 28 is_stmt 1 view .LVU169
 694 016e 0291     		str	r1, [sp, #8]
 695              	.LVL40:
 458:shy_fft.h     ****         T* sr = s + i;
 696              		.loc 16 458 28 is_stmt 0 view .LVU170
 697 0170 0199     		ldr	r1, [sp, #4]
 698 0172 7144     		add	r1, r1, lr
 699 0174 0191     		str	r1, [sp, #4]
 700              	.LVL41:
 458:shy_fft.h     ****         T* sr = s + i;
 701              		.loc 16 458 28 view .LVU171
 702 0176 0099     		ldr	r1, [sp]
 703 0178 7144     		add	r1, r1, lr
 704 017a 0091     		str	r1, [sp]
 705              	.LVL42:
 458:shy_fft.h     ****         T* sr = s + i;
 706              		.loc 16 458 28 view .LVU172
 707 017c 0399     		ldr	r1, [sp, #12]
 708 017e 7144     		add	r1, r1, lr
 709 0180 0391     		str	r1, [sp, #12]
 710 0182 FFF46FAF 		bcc	.L13
 711              	.LBE749:
 488:shy_fft.h     ****         s = output;
 712              		.loc 16 488 7 view .LVU173
 713 0186 0B9B     		ldr	r3, [sp, #44]
 714 0188 099A     		ldr	r2, [sp, #36]
 715              	.LVL43:
 488:shy_fft.h     ****         s = output;
 716              		.loc 16 488 7 view .LVU174
ARM GAS  /var/folders/hl/qgbwny5j0fd895c2c41bk3tw0000gp/T//cc9kFYNb.s 			page 49


 717 018a 9342     		cmp	r3, r2
 718 018c 00F0A380 		beq	.L19
 492:shy_fft.h     ****         d = output;
 719              		.loc 16 492 11 view .LVU175
 720 0190 DDF83080 		ldr	r8, [sp, #48]
 488:shy_fft.h     ****         s = output;
 721              		.loc 16 488 7 view .LVU176
 722 0194 0993     		str	r3, [sp, #36]
 723              	.LVL44:
 724              	.L14:
 488:shy_fft.h     ****         s = output;
 725              		.loc 16 488 7 view .LVU177
 726              	.LBE723:
 454:shy_fft.h     ****       size_t n = 1 << pass;
 727              		.loc 16 454 5 is_stmt 1 view .LVU178
 728 0196 0A9B     		ldr	r3, [sp, #40]
 454:shy_fft.h     ****       size_t n = 1 << pass;
 729              		.loc 16 454 45 is_stmt 0 view .LVU179
 730 0198 049A     		ldr	r2, [sp, #16]
 454:shy_fft.h     ****       size_t n = 1 << pass;
 731              		.loc 16 454 5 view .LVU180
 732 019a 013B     		subs	r3, r3, #1
 454:shy_fft.h     ****       size_t n = 1 << pass;
 733              		.loc 16 454 45 view .LVU181
 734 019c 083A     		subs	r2, r2, #8
 735 019e 022B     		cmp	r3, #2
 454:shy_fft.h     ****       size_t n = 1 << pass;
 736              		.loc 16 454 5 view .LVU182
 737 01a0 0A93     		str	r3, [sp, #40]
 738              	.LVL45:
 454:shy_fft.h     ****       size_t n = 1 << pass;
 739              		.loc 16 454 45 is_stmt 1 view .LVU183
 740 01a2 0492     		str	r2, [sp, #16]
 741 01a4 7FF438AF 		bne	.L15
 742              	.LBE752:
 498:shy_fft.h     ****       std::copy(&s[0], &s[size], &output[0]);
 743              		.loc 16 498 5 is_stmt 0 view .LVU184
 744 01a8 DDF82CA0 		ldr	r10, [sp, #44]
 745 01ac 099B     		ldr	r3, [sp, #36]
 746              	.LVL46:
 498:shy_fft.h     ****       std::copy(&s[0], &s[size], &output[0]);
 747              		.loc 16 498 5 view .LVU185
 748 01ae 9A45     		cmp	r10, r3
 749 01b0 00F09580 		beq	.L26
 750              	.L16:
 498:shy_fft.h     ****       std::copy(&s[0], &s[size], &output[0]);
 751              		.loc 16 498 5 view .LVU186
 752 01b4 5346     		mov	r3, r10
 753 01b6 0C9A     		ldr	r2, [sp, #48]
 754 01b8 0AF58051 		add	r1, r10, #4096
 755              	.LVL47:
 756              	.L17:
 757              	.LBB753:
 758              	.LBB754:
 506:shy_fft.h     ****       d[i + 4] = s[i] - s[i + 4];
 759              		.loc 16 506 19 view .LVU187
 760 01bc 93ED007A 		vldr.32	s14, [r3]
ARM GAS  /var/folders/hl/qgbwny5j0fd895c2c41bk3tw0000gp/T//cc9kFYNb.s 			page 50


 761              	.LBE754:
 504:shy_fft.h     ****       T vr, vi;
 762              		.loc 16 504 26 view .LVU188
 763 01c0 2032     		adds	r2, r2, #32
 764              	.LBB755:
 506:shy_fft.h     ****       d[i + 4] = s[i] - s[i + 4];
 765              		.loc 16 506 19 view .LVU189
 766 01c2 D3ED047A 		vldr.32	s15, [r3, #16]
 767              	.LBE755:
 504:shy_fft.h     ****       T vr, vi;
 768              		.loc 16 504 26 view .LVU190
 769 01c6 2033     		adds	r3, r3, #32
 770              	.LBB756:
 514:shy_fft.h     ****       d[i + 7] = (vi - vr) * math.sqrt_2_div_2();
 771              		.loc 16 514 28 view .LVU191
 772 01c8 9FED486A 		vldr.32	s12, .L27
 506:shy_fft.h     ****       d[i + 4] = s[i] - s[i + 4];
 773              		.loc 16 506 19 view .LVU192
 774 01cc 37EE277A 		vadd.f32	s14, s14, s15
 775              	.LBE756:
 504:shy_fft.h     ****       T vr, vi;
 776              		.loc 16 504 26 view .LVU193
 777 01d0 9942     		cmp	r1, r3
 778              	.LBB757:
 506:shy_fft.h     ****       d[i + 4] = s[i] - s[i + 4];
 779              		.loc 16 506 12 view .LVU194
 780 01d2 02ED087A 		vstr.32	s14, [r2, #-32]
 507:shy_fft.h     ****       d[i + 2] = s[i + 2] * T(2);
 781              		.loc 16 507 23 view .LVU195
 782 01d6 53ED047A 		vldr.32	s15, [r3, #-16]
 783 01da 13ED087A 		vldr.32	s14, [r3, #-32]
 784 01de 37EE677A 		vsub.f32	s14, s14, s15
 507:shy_fft.h     ****       d[i + 2] = s[i + 2] * T(2);
 785              		.loc 16 507 16 view .LVU196
 786 01e2 02ED047A 		vstr.32	s14, [r2, #-16]
 508:shy_fft.h     ****       d[i + 6] = s[i + 6] * T(2);
 787              		.loc 16 508 27 view .LVU197
 788 01e6 13ED067A 		vldr.32	s14, [r3, #-24]
 789 01ea 37EE077A 		vadd.f32	s14, s14, s14
 508:shy_fft.h     ****       d[i + 6] = s[i + 6] * T(2);
 790              		.loc 16 508 16 view .LVU198
 791 01ee 02ED067A 		vstr.32	s14, [r2, #-24]
 509:shy_fft.h     ****       d[i + 1] = s[i + 1] + s[i + 3];
 792              		.loc 16 509 27 view .LVU199
 793 01f2 13ED027A 		vldr.32	s14, [r3, #-8]
 794 01f6 37EE077A 		vadd.f32	s14, s14, s14
 509:shy_fft.h     ****       d[i + 1] = s[i + 1] + s[i + 3];
 795              		.loc 16 509 16 view .LVU200
 796 01fa 02ED027A 		vstr.32	s14, [r2, #-8]
 510:shy_fft.h     ****       d[i + 3] = s[i + 5] - s[i + 7];
 797              		.loc 16 510 27 view .LVU201
 798 01fe 53ED057A 		vldr.32	s15, [r3, #-20]
 799 0202 13ED077A 		vldr.32	s14, [r3, #-28]
 800 0206 37EE277A 		vadd.f32	s14, s14, s15
 510:shy_fft.h     ****       d[i + 3] = s[i + 5] - s[i + 7];
 801              		.loc 16 510 16 view .LVU202
 802 020a 02ED077A 		vstr.32	s14, [r2, #-28]
ARM GAS  /var/folders/hl/qgbwny5j0fd895c2c41bk3tw0000gp/T//cc9kFYNb.s 			page 51


 511:shy_fft.h     ****       vr = s[i + 1] - s[i + 3];
 803              		.loc 16 511 27 view .LVU203
 804 020e 53ED017A 		vldr.32	s15, [r3, #-4]
 805 0212 13ED037A 		vldr.32	s14, [r3, #-12]
 806 0216 37EE677A 		vsub.f32	s14, s14, s15
 511:shy_fft.h     ****       vr = s[i + 1] - s[i + 3];
 807              		.loc 16 511 16 view .LVU204
 808 021a 02ED057A 		vstr.32	s14, [r2, #-20]
 512:shy_fft.h     ****       vi = s[i + 5] + s[i + 7];
 809              		.loc 16 512 10 view .LVU205
 810 021e 53ED077A 		vldr.32	s15, [r3, #-28]
 513:shy_fft.h     ****       d[i + 5] = (vr + vi) * math.sqrt_2_div_2();
 811              		.loc 16 513 10 view .LVU206
 812 0222 13ED037A 		vldr.32	s14, [r3, #-12]
 512:shy_fft.h     ****       vi = s[i + 5] + s[i + 7];
 813              		.loc 16 512 10 view .LVU207
 814 0226 53ED056A 		vldr.32	s13, [r3, #-20]
 513:shy_fft.h     ****       d[i + 5] = (vr + vi) * math.sqrt_2_div_2();
 815              		.loc 16 513 10 view .LVU208
 816 022a 53ED015A 		vldr.32	s11, [r3, #-4]
 512:shy_fft.h     ****       vi = s[i + 5] + s[i + 7];
 817              		.loc 16 512 10 view .LVU209
 818 022e 77EEE66A 		vsub.f32	s13, s15, s13
 819              	.LVL48:
 513:shy_fft.h     ****       d[i + 5] = (vr + vi) * math.sqrt_2_div_2();
 820              		.loc 16 513 10 view .LVU210
 821 0232 77EE257A 		vadd.f32	s15, s14, s11
 822              	.LVL49:
 513:shy_fft.h     ****       d[i + 5] = (vr + vi) * math.sqrt_2_div_2();
 823              		.loc 16 513 10 view .LVU211
 824              	.LBE757:
 825              	.LBE753:
  78:shy_fft.h     ****   inline float cos(float x) { return cosf(x); }
 826              		.loc 16 78 39 is_stmt 1 view .LVU212
 827              	.LBB760:
 828              	.LBB758:
 514:shy_fft.h     ****       d[i + 7] = (vi - vr) * math.sqrt_2_div_2();
 829              		.loc 16 514 22 is_stmt 0 view .LVU213
 830 0236 36EEA77A 		vadd.f32	s14, s13, s15
 515:shy_fft.h     ****     }
 831              		.loc 16 515 22 view .LVU214
 832 023a 77EEE67A 		vsub.f32	s15, s15, s13
 833              	.LVL50:
 514:shy_fft.h     ****       d[i + 7] = (vi - vr) * math.sqrt_2_div_2();
 834              		.loc 16 514 28 view .LVU215
 835 023e 27EE067A 		vmul.f32	s14, s14, s12
 515:shy_fft.h     ****     }
 836              		.loc 16 515 28 view .LVU216
 837 0242 67EE867A 		vmul.f32	s15, s15, s12
 514:shy_fft.h     ****       d[i + 7] = (vi - vr) * math.sqrt_2_div_2();
 838              		.loc 16 514 16 view .LVU217
 839 0246 02ED037A 		vstr.32	s14, [r2, #-12]
 840              	.LVL51:
 514:shy_fft.h     ****       d[i + 7] = (vi - vr) * math.sqrt_2_div_2();
 841              		.loc 16 514 16 view .LVU218
 842              	.LBE758:
 843              	.LBE760:
ARM GAS  /var/folders/hl/qgbwny5j0fd895c2c41bk3tw0000gp/T//cc9kFYNb.s 			page 52


  78:shy_fft.h     ****   inline float cos(float x) { return cosf(x); }
 844              		.loc 16 78 39 is_stmt 1 view .LVU219
 845              	.LBB761:
 846              	.LBB759:
 515:shy_fft.h     ****     }
 847              		.loc 16 515 16 is_stmt 0 view .LVU220
 848 024a 42ED017A 		vstr.32	s15, [r2, #-4]
 849              	.LBE759:
 504:shy_fft.h     ****       T vr, vi;
 850              		.loc 16 504 5 is_stmt 1 view .LVU221
 504:shy_fft.h     ****       T vr, vi;
 851              		.loc 16 504 26 view .LVU222
 852 024e B5D1     		bne	.L17
 853 0250 0C99     		ldr	r1, [sp, #48]
 854              	.LBE761:
 855              	.LBB762:
 521:shy_fft.h     ****       size_t r0 = num_passes <= 8
 856              		.loc 16 521 17 is_stmt 0 view .LVU223
 857 0252 0020     		movs	r0, #0
 858 0254 0D9E     		ldr	r6, [sp, #52]
 859 0256 1031     		adds	r1, r1, #16
 860              	.LVL52:
 861              	.L18:
 862              	.LBB763:
 529:shy_fft.h     ****       T b_2 = s[0] - s[2];
 863              		.loc 16 529 23 view .LVU224
 864 0258 11ED026A 		vldr.32	s12, [r1, #-8]
 524:shy_fft.h     ****       size_t r1 = r0 + 2 * (size >> 2);
 865              		.loc 16 524 25 view .LVU225
 866 025c C2B2     		uxtb	r2, r0
 529:shy_fft.h     ****       T b_2 = s[0] - s[2];
 867              		.loc 16 529 16 view .LVU226
 868 025e 51ED047A 		vldr.32	s15, [r1, #-16]
 524:shy_fft.h     ****       size_t r1 = r0 + 2 * (size >> 2);
 869              		.loc 16 524 51 view .LVU227
 870 0262 030A     		lsrs	r3, r0, #8
 524:shy_fft.h     ****       size_t r1 = r0 + 2 * (size >> 2);
 871              		.loc 16 524 31 view .LVU228
 872 0264 B25C     		ldrb	r2, [r6, r2]	@ zero_extendqisi2
 534:shy_fft.h     ****       d[r1] = b_0 - b_1;
 873              		.loc 16 534 19 view .LVU229
 874 0266 F0EE006A 		vmov.f32	s13, #2.0e+0
 529:shy_fft.h     ****       T b_2 = s[0] - s[2];
 875              		.loc 16 529 9 view .LVU230
 876 026a 37EE867A 		vadd.f32	s14, s15, s12
 877              	.LVL53:
 524:shy_fft.h     ****       size_t r1 = r0 + 2 * (size >> 2);
 878              		.loc 16 524 55 view .LVU231
 879 026e F35C     		ldrb	r3, [r6, r3]	@ zero_extendqisi2
 530:shy_fft.h     ****       T b_1 = s[1] * T(2);
 880              		.loc 16 530 9 view .LVU232
 881 0270 77EEC67A 		vsub.f32	s15, s15, s12
 882              	.LVL54:
 531:shy_fft.h     ****       T b_3 = s[3] * T(2);
 883              		.loc 16 531 16 view .LVU233
 884 0274 51ED035A 		vldr.32	s11, [r1, #-12]
 885              	.LVL55:
ARM GAS  /var/folders/hl/qgbwny5j0fd895c2c41bk3tw0000gp/T//cc9kFYNb.s 			page 53


 524:shy_fft.h     ****       size_t r1 = r0 + 2 * (size >> 2);
 886              		.loc 16 524 39 view .LVU234
 887 0278 43EA0223 		orr	r3, r3, r2, lsl #8
 532:shy_fft.h     ****       
 888              		.loc 16 532 16 view .LVU235
 889 027c 11ED016A 		vldr.32	s12, [r1, #-4]
 890              	.LVL56:
 534:shy_fft.h     ****       d[r1] = b_0 - b_1;
 891              		.loc 16 534 19 view .LVU236
 892 0280 B0EE475A 		vmov.f32	s10, s14
 893              	.LBE763:
 521:shy_fft.h     ****       size_t r0 = num_passes <= 8
 894              		.loc 16 521 36 view .LVU237
 895 0284 0430     		adds	r0, r0, #4
 896              	.LVL57:
 897              	.LBB764:
 535:shy_fft.h     ****       d[r2] = b_2 + b_3;
 898              		.loc 16 535 19 view .LVU238
 899 0286 A5EEE67A 		vfms.f32	s14, s11, s13
 900              	.LVL58:
 524:shy_fft.h     ****       size_t r1 = r0 + 2 * (size >> 2);
 901              		.loc 16 524 58 view .LVU239
 902 028a 9B11     		asrs	r3, r3, #6
 903              	.LBE764:
 521:shy_fft.h     ****       size_t r0 = num_passes <= 8
 904              		.loc 16 521 26 view .LVU240
 905 028c B0F5806F 		cmp	r0, #1024
 906 0290 01F11001 		add	r1, r1, #16
 907              	.LVL59:
 908              	.LBB765:
 534:shy_fft.h     ****       d[r1] = b_0 - b_1;
 909              		.loc 16 534 19 view .LVU241
 910 0294 A5EEA65A 		vfma.f32	s10, s11, s13
 911              	.LVL60:
 534:shy_fft.h     ****       d[r1] = b_0 - b_1;
 912              		.loc 16 534 8 view .LVU242
 913 0298 4FEA8302 		lsl	r2, r3, #2
 536:shy_fft.h     ****       d[r3] = b_2 - b_3;
 914              		.loc 16 536 19 view .LVU243
 915 029c F0EE675A 		vmov.f32	s11, s15
 916              	.LVL61:
 534:shy_fft.h     ****       d[r1] = b_0 - b_1;
 917              		.loc 16 534 8 view .LVU244
 918 02a0 0AEB8303 		add	r3, r10, r3, lsl #2
 537:shy_fft.h     ****       s += 4;
 919              		.loc 16 537 19 view .LVU245
 920 02a4 E6EE667A 		vfms.f32	s15, s12, s13
 921              	.LVL62:
 535:shy_fft.h     ****       d[r2] = b_2 + b_3;
 922              		.loc 16 535 8 view .LVU246
 923 02a8 02F50065 		add	r5, r2, #2048
 536:shy_fft.h     ****       d[r3] = b_2 - b_3;
 924              		.loc 16 536 8 view .LVU247
 925 02ac 02F58064 		add	r4, r2, #1024
 537:shy_fft.h     ****       s += 4;
 926              		.loc 16 537 8 view .LVU248
 927 02b0 02F54062 		add	r2, r2, #3072
ARM GAS  /var/folders/hl/qgbwny5j0fd895c2c41bk3tw0000gp/T//cc9kFYNb.s 			page 54


 536:shy_fft.h     ****       d[r3] = b_2 - b_3;
 928              		.loc 16 536 19 view .LVU249
 929 02b4 E6EE265A 		vfma.f32	s11, s12, s13
 930              	.LVL63:
 535:shy_fft.h     ****       d[r2] = b_2 + b_3;
 931              		.loc 16 535 8 view .LVU250
 932 02b8 5544     		add	r5, r5, r10
 536:shy_fft.h     ****       d[r3] = b_2 - b_3;
 933              		.loc 16 536 8 view .LVU251
 934 02ba 5444     		add	r4, r4, r10
 537:shy_fft.h     ****       s += 4;
 935              		.loc 16 537 8 view .LVU252
 936 02bc 5244     		add	r2, r2, r10
 534:shy_fft.h     ****       d[r1] = b_0 - b_1;
 937              		.loc 16 534 13 view .LVU253
 938 02be 83ED005A 		vstr.32	s10, [r3]
 939              	.LVL64:
 535:shy_fft.h     ****       d[r2] = b_2 + b_3;
 940              		.loc 16 535 13 view .LVU254
 941 02c2 85ED007A 		vstr.32	s14, [r5]
 536:shy_fft.h     ****       d[r3] = b_2 - b_3;
 942              		.loc 16 536 13 view .LVU255
 943 02c6 C4ED005A 		vstr.32	s11, [r4]
 537:shy_fft.h     ****       s += 4;
 944              		.loc 16 537 13 view .LVU256
 945 02ca C2ED007A 		vstr.32	s15, [r2]
 946              	.LVL65:
 537:shy_fft.h     ****       s += 4;
 947              		.loc 16 537 13 view .LVU257
 948              	.LBE765:
 521:shy_fft.h     ****       size_t r0 = num_passes <= 8
 949              		.loc 16 521 5 is_stmt 1 view .LVU258
 521:shy_fft.h     ****       size_t r0 = num_passes <= 8
 950              		.loc 16 521 26 view .LVU259
 951 02ce C3D1     		bne	.L18
 952              	.LBE762:
 540:shy_fft.h     ****   
 953              		.loc 16 540 3 is_stmt 0 view .LVU260
 954 02d0 0FB0     		add	sp, sp, #60
 955              		.cfi_remember_state
 956              		.cfi_def_cfa_offset 36
 957              		@ sp needed
 958 02d2 BDE8F08F 		pop	{r4, r5, r6, r7, r8, r9, r10, fp, pc}
 959              	.LVL66:
 960              	.L19:
 961              		.cfi_restore_state
 962              	.LBB766:
 963              	.LBB750:
 490:shy_fft.h     ****       } else {
 964              		.loc 16 490 11 view .LVU261
 965 02d6 DDE90B83 		ldrd	r8, r3, [sp, #44]
 966 02da 0993     		str	r3, [sp, #36]
 967              	.LVL67:
 490:shy_fft.h     ****       } else {
 968              		.loc 16 490 11 view .LVU262
 969 02dc 5BE7     		b	.L14
 970              	.LVL68:
ARM GAS  /var/folders/hl/qgbwny5j0fd895c2c41bk3tw0000gp/T//cc9kFYNb.s 			page 55


 971              	.L26:
 490:shy_fft.h     ****       } else {
 972              		.loc 16 490 11 view .LVU263
 973              	.LBE750:
 974              	.LBE766:
 975              	.LBB767:
 976              	.LBI767:
 977              		.file 17 "/opt/homebrew/Cellar/arm-none-eabi-gcc/10.3-2021.07/gcc/arm-none-eabi/include/c++/10.3.1
   1:/opt/homebrew/Cellar/arm-none-eabi-gcc/10.3-2021.07/gcc/arm-none-eabi/include/c++/10.3.1/bits/stl_algobase.h **** // Core algorithmic facilities -*- C++ -*-
   2:/opt/homebrew/Cellar/arm-none-eabi-gcc/10.3-2021.07/gcc/arm-none-eabi/include/c++/10.3.1/bits/stl_algobase.h **** 
   3:/opt/homebrew/Cellar/arm-none-eabi-gcc/10.3-2021.07/gcc/arm-none-eabi/include/c++/10.3.1/bits/stl_algobase.h **** // Copyright (C) 2001-2020 Free Software Foundation, Inc.
   4:/opt/homebrew/Cellar/arm-none-eabi-gcc/10.3-2021.07/gcc/arm-none-eabi/include/c++/10.3.1/bits/stl_algobase.h **** //
   5:/opt/homebrew/Cellar/arm-none-eabi-gcc/10.3-2021.07/gcc/arm-none-eabi/include/c++/10.3.1/bits/stl_algobase.h **** // This file is part of the GNU ISO C++ Library.  This library is free
   6:/opt/homebrew/Cellar/arm-none-eabi-gcc/10.3-2021.07/gcc/arm-none-eabi/include/c++/10.3.1/bits/stl_algobase.h **** // software; you can redistribute it and/or modify it under the
   7:/opt/homebrew/Cellar/arm-none-eabi-gcc/10.3-2021.07/gcc/arm-none-eabi/include/c++/10.3.1/bits/stl_algobase.h **** // terms of the GNU General Public License as published by the
   8:/opt/homebrew/Cellar/arm-none-eabi-gcc/10.3-2021.07/gcc/arm-none-eabi/include/c++/10.3.1/bits/stl_algobase.h **** // Free Software Foundation; either version 3, or (at your option)
   9:/opt/homebrew/Cellar/arm-none-eabi-gcc/10.3-2021.07/gcc/arm-none-eabi/include/c++/10.3.1/bits/stl_algobase.h **** // any later version.
  10:/opt/homebrew/Cellar/arm-none-eabi-gcc/10.3-2021.07/gcc/arm-none-eabi/include/c++/10.3.1/bits/stl_algobase.h **** 
  11:/opt/homebrew/Cellar/arm-none-eabi-gcc/10.3-2021.07/gcc/arm-none-eabi/include/c++/10.3.1/bits/stl_algobase.h **** // This library is distributed in the hope that it will be useful,
  12:/opt/homebrew/Cellar/arm-none-eabi-gcc/10.3-2021.07/gcc/arm-none-eabi/include/c++/10.3.1/bits/stl_algobase.h **** // but WITHOUT ANY WARRANTY; without even the implied warranty of
  13:/opt/homebrew/Cellar/arm-none-eabi-gcc/10.3-2021.07/gcc/arm-none-eabi/include/c++/10.3.1/bits/stl_algobase.h **** // MERCHANTABILITY or FITNESS FOR A PARTICULAR PURPOSE.  See the
  14:/opt/homebrew/Cellar/arm-none-eabi-gcc/10.3-2021.07/gcc/arm-none-eabi/include/c++/10.3.1/bits/stl_algobase.h **** // GNU General Public License for more details.
  15:/opt/homebrew/Cellar/arm-none-eabi-gcc/10.3-2021.07/gcc/arm-none-eabi/include/c++/10.3.1/bits/stl_algobase.h **** 
  16:/opt/homebrew/Cellar/arm-none-eabi-gcc/10.3-2021.07/gcc/arm-none-eabi/include/c++/10.3.1/bits/stl_algobase.h **** // Under Section 7 of GPL version 3, you are granted additional
  17:/opt/homebrew/Cellar/arm-none-eabi-gcc/10.3-2021.07/gcc/arm-none-eabi/include/c++/10.3.1/bits/stl_algobase.h **** // permissions described in the GCC Runtime Library Exception, version
  18:/opt/homebrew/Cellar/arm-none-eabi-gcc/10.3-2021.07/gcc/arm-none-eabi/include/c++/10.3.1/bits/stl_algobase.h **** // 3.1, as published by the Free Software Foundation.
  19:/opt/homebrew/Cellar/arm-none-eabi-gcc/10.3-2021.07/gcc/arm-none-eabi/include/c++/10.3.1/bits/stl_algobase.h **** 
  20:/opt/homebrew/Cellar/arm-none-eabi-gcc/10.3-2021.07/gcc/arm-none-eabi/include/c++/10.3.1/bits/stl_algobase.h **** // You should have received a copy of the GNU General Public License and
  21:/opt/homebrew/Cellar/arm-none-eabi-gcc/10.3-2021.07/gcc/arm-none-eabi/include/c++/10.3.1/bits/stl_algobase.h **** // a copy of the GCC Runtime Library Exception along with this program;
  22:/opt/homebrew/Cellar/arm-none-eabi-gcc/10.3-2021.07/gcc/arm-none-eabi/include/c++/10.3.1/bits/stl_algobase.h **** // see the files COPYING3 and COPYING.RUNTIME respectively.  If not, see
  23:/opt/homebrew/Cellar/arm-none-eabi-gcc/10.3-2021.07/gcc/arm-none-eabi/include/c++/10.3.1/bits/stl_algobase.h **** // <http://www.gnu.org/licenses/>.
  24:/opt/homebrew/Cellar/arm-none-eabi-gcc/10.3-2021.07/gcc/arm-none-eabi/include/c++/10.3.1/bits/stl_algobase.h **** 
  25:/opt/homebrew/Cellar/arm-none-eabi-gcc/10.3-2021.07/gcc/arm-none-eabi/include/c++/10.3.1/bits/stl_algobase.h **** /*
  26:/opt/homebrew/Cellar/arm-none-eabi-gcc/10.3-2021.07/gcc/arm-none-eabi/include/c++/10.3.1/bits/stl_algobase.h ****  *
  27:/opt/homebrew/Cellar/arm-none-eabi-gcc/10.3-2021.07/gcc/arm-none-eabi/include/c++/10.3.1/bits/stl_algobase.h ****  * Copyright (c) 1994
  28:/opt/homebrew/Cellar/arm-none-eabi-gcc/10.3-2021.07/gcc/arm-none-eabi/include/c++/10.3.1/bits/stl_algobase.h ****  * Hewlett-Packard Company
  29:/opt/homebrew/Cellar/arm-none-eabi-gcc/10.3-2021.07/gcc/arm-none-eabi/include/c++/10.3.1/bits/stl_algobase.h ****  *
  30:/opt/homebrew/Cellar/arm-none-eabi-gcc/10.3-2021.07/gcc/arm-none-eabi/include/c++/10.3.1/bits/stl_algobase.h ****  * Permission to use, copy, modify, distribute and sell this software
  31:/opt/homebrew/Cellar/arm-none-eabi-gcc/10.3-2021.07/gcc/arm-none-eabi/include/c++/10.3.1/bits/stl_algobase.h ****  * and its documentation for any purpose is hereby granted without fee,
  32:/opt/homebrew/Cellar/arm-none-eabi-gcc/10.3-2021.07/gcc/arm-none-eabi/include/c++/10.3.1/bits/stl_algobase.h ****  * provided that the above copyright notice appear in all copies and
  33:/opt/homebrew/Cellar/arm-none-eabi-gcc/10.3-2021.07/gcc/arm-none-eabi/include/c++/10.3.1/bits/stl_algobase.h ****  * that both that copyright notice and this permission notice appear
  34:/opt/homebrew/Cellar/arm-none-eabi-gcc/10.3-2021.07/gcc/arm-none-eabi/include/c++/10.3.1/bits/stl_algobase.h ****  * in supporting documentation.  Hewlett-Packard Company makes no
  35:/opt/homebrew/Cellar/arm-none-eabi-gcc/10.3-2021.07/gcc/arm-none-eabi/include/c++/10.3.1/bits/stl_algobase.h ****  * representations about the suitability of this software for any
  36:/opt/homebrew/Cellar/arm-none-eabi-gcc/10.3-2021.07/gcc/arm-none-eabi/include/c++/10.3.1/bits/stl_algobase.h ****  * purpose.  It is provided "as is" without express or implied warranty.
  37:/opt/homebrew/Cellar/arm-none-eabi-gcc/10.3-2021.07/gcc/arm-none-eabi/include/c++/10.3.1/bits/stl_algobase.h ****  *
  38:/opt/homebrew/Cellar/arm-none-eabi-gcc/10.3-2021.07/gcc/arm-none-eabi/include/c++/10.3.1/bits/stl_algobase.h ****  *
  39:/opt/homebrew/Cellar/arm-none-eabi-gcc/10.3-2021.07/gcc/arm-none-eabi/include/c++/10.3.1/bits/stl_algobase.h ****  * Copyright (c) 1996-1998
  40:/opt/homebrew/Cellar/arm-none-eabi-gcc/10.3-2021.07/gcc/arm-none-eabi/include/c++/10.3.1/bits/stl_algobase.h ****  * Silicon Graphics Computer Systems, Inc.
  41:/opt/homebrew/Cellar/arm-none-eabi-gcc/10.3-2021.07/gcc/arm-none-eabi/include/c++/10.3.1/bits/stl_algobase.h ****  *
  42:/opt/homebrew/Cellar/arm-none-eabi-gcc/10.3-2021.07/gcc/arm-none-eabi/include/c++/10.3.1/bits/stl_algobase.h ****  * Permission to use, copy, modify, distribute and sell this software
  43:/opt/homebrew/Cellar/arm-none-eabi-gcc/10.3-2021.07/gcc/arm-none-eabi/include/c++/10.3.1/bits/stl_algobase.h ****  * and its documentation for any purpose is hereby granted without fee,
  44:/opt/homebrew/Cellar/arm-none-eabi-gcc/10.3-2021.07/gcc/arm-none-eabi/include/c++/10.3.1/bits/stl_algobase.h ****  * provided that the above copyright notice appear in all copies and
  45:/opt/homebrew/Cellar/arm-none-eabi-gcc/10.3-2021.07/gcc/arm-none-eabi/include/c++/10.3.1/bits/stl_algobase.h ****  * that both that copyright notice and this permission notice appear
  46:/opt/homebrew/Cellar/arm-none-eabi-gcc/10.3-2021.07/gcc/arm-none-eabi/include/c++/10.3.1/bits/stl_algobase.h ****  * in supporting documentation.  Silicon Graphics makes no
  47:/opt/homebrew/Cellar/arm-none-eabi-gcc/10.3-2021.07/gcc/arm-none-eabi/include/c++/10.3.1/bits/stl_algobase.h ****  * representations about the suitability of this software for any
  48:/opt/homebrew/Cellar/arm-none-eabi-gcc/10.3-2021.07/gcc/arm-none-eabi/include/c++/10.3.1/bits/stl_algobase.h ****  * purpose.  It is provided "as is" without express or implied warranty.
  49:/opt/homebrew/Cellar/arm-none-eabi-gcc/10.3-2021.07/gcc/arm-none-eabi/include/c++/10.3.1/bits/stl_algobase.h ****  */
ARM GAS  /var/folders/hl/qgbwny5j0fd895c2c41bk3tw0000gp/T//cc9kFYNb.s 			page 56


  50:/opt/homebrew/Cellar/arm-none-eabi-gcc/10.3-2021.07/gcc/arm-none-eabi/include/c++/10.3.1/bits/stl_algobase.h **** 
  51:/opt/homebrew/Cellar/arm-none-eabi-gcc/10.3-2021.07/gcc/arm-none-eabi/include/c++/10.3.1/bits/stl_algobase.h **** /** @file bits/stl_algobase.h
  52:/opt/homebrew/Cellar/arm-none-eabi-gcc/10.3-2021.07/gcc/arm-none-eabi/include/c++/10.3.1/bits/stl_algobase.h ****  *  This is an internal header file, included by other library headers.
  53:/opt/homebrew/Cellar/arm-none-eabi-gcc/10.3-2021.07/gcc/arm-none-eabi/include/c++/10.3.1/bits/stl_algobase.h ****  *  Do not attempt to use it directly. @headername{algorithm}
  54:/opt/homebrew/Cellar/arm-none-eabi-gcc/10.3-2021.07/gcc/arm-none-eabi/include/c++/10.3.1/bits/stl_algobase.h ****  */
  55:/opt/homebrew/Cellar/arm-none-eabi-gcc/10.3-2021.07/gcc/arm-none-eabi/include/c++/10.3.1/bits/stl_algobase.h **** 
  56:/opt/homebrew/Cellar/arm-none-eabi-gcc/10.3-2021.07/gcc/arm-none-eabi/include/c++/10.3.1/bits/stl_algobase.h **** #ifndef _STL_ALGOBASE_H
  57:/opt/homebrew/Cellar/arm-none-eabi-gcc/10.3-2021.07/gcc/arm-none-eabi/include/c++/10.3.1/bits/stl_algobase.h **** #define _STL_ALGOBASE_H 1
  58:/opt/homebrew/Cellar/arm-none-eabi-gcc/10.3-2021.07/gcc/arm-none-eabi/include/c++/10.3.1/bits/stl_algobase.h **** 
  59:/opt/homebrew/Cellar/arm-none-eabi-gcc/10.3-2021.07/gcc/arm-none-eabi/include/c++/10.3.1/bits/stl_algobase.h **** #include <bits/c++config.h>
  60:/opt/homebrew/Cellar/arm-none-eabi-gcc/10.3-2021.07/gcc/arm-none-eabi/include/c++/10.3.1/bits/stl_algobase.h **** #include <bits/functexcept.h>
  61:/opt/homebrew/Cellar/arm-none-eabi-gcc/10.3-2021.07/gcc/arm-none-eabi/include/c++/10.3.1/bits/stl_algobase.h **** #include <bits/cpp_type_traits.h>
  62:/opt/homebrew/Cellar/arm-none-eabi-gcc/10.3-2021.07/gcc/arm-none-eabi/include/c++/10.3.1/bits/stl_algobase.h **** #include <ext/type_traits.h>
  63:/opt/homebrew/Cellar/arm-none-eabi-gcc/10.3-2021.07/gcc/arm-none-eabi/include/c++/10.3.1/bits/stl_algobase.h **** #include <ext/numeric_traits.h>
  64:/opt/homebrew/Cellar/arm-none-eabi-gcc/10.3-2021.07/gcc/arm-none-eabi/include/c++/10.3.1/bits/stl_algobase.h **** #include <bits/stl_pair.h>
  65:/opt/homebrew/Cellar/arm-none-eabi-gcc/10.3-2021.07/gcc/arm-none-eabi/include/c++/10.3.1/bits/stl_algobase.h **** #include <bits/stl_iterator_base_types.h>
  66:/opt/homebrew/Cellar/arm-none-eabi-gcc/10.3-2021.07/gcc/arm-none-eabi/include/c++/10.3.1/bits/stl_algobase.h **** #include <bits/stl_iterator_base_funcs.h>
  67:/opt/homebrew/Cellar/arm-none-eabi-gcc/10.3-2021.07/gcc/arm-none-eabi/include/c++/10.3.1/bits/stl_algobase.h **** #include <bits/stl_iterator.h>
  68:/opt/homebrew/Cellar/arm-none-eabi-gcc/10.3-2021.07/gcc/arm-none-eabi/include/c++/10.3.1/bits/stl_algobase.h **** #include <bits/concept_check.h>
  69:/opt/homebrew/Cellar/arm-none-eabi-gcc/10.3-2021.07/gcc/arm-none-eabi/include/c++/10.3.1/bits/stl_algobase.h **** #include <debug/debug.h>
  70:/opt/homebrew/Cellar/arm-none-eabi-gcc/10.3-2021.07/gcc/arm-none-eabi/include/c++/10.3.1/bits/stl_algobase.h **** #include <bits/move.h> // For std::swap
  71:/opt/homebrew/Cellar/arm-none-eabi-gcc/10.3-2021.07/gcc/arm-none-eabi/include/c++/10.3.1/bits/stl_algobase.h **** #include <bits/predefined_ops.h>
  72:/opt/homebrew/Cellar/arm-none-eabi-gcc/10.3-2021.07/gcc/arm-none-eabi/include/c++/10.3.1/bits/stl_algobase.h **** #if __cplusplus >= 201103L
  73:/opt/homebrew/Cellar/arm-none-eabi-gcc/10.3-2021.07/gcc/arm-none-eabi/include/c++/10.3.1/bits/stl_algobase.h **** # include <type_traits>
  74:/opt/homebrew/Cellar/arm-none-eabi-gcc/10.3-2021.07/gcc/arm-none-eabi/include/c++/10.3.1/bits/stl_algobase.h **** #endif
  75:/opt/homebrew/Cellar/arm-none-eabi-gcc/10.3-2021.07/gcc/arm-none-eabi/include/c++/10.3.1/bits/stl_algobase.h **** #if __cplusplus > 201703L
  76:/opt/homebrew/Cellar/arm-none-eabi-gcc/10.3-2021.07/gcc/arm-none-eabi/include/c++/10.3.1/bits/stl_algobase.h **** # include <compare>
  77:/opt/homebrew/Cellar/arm-none-eabi-gcc/10.3-2021.07/gcc/arm-none-eabi/include/c++/10.3.1/bits/stl_algobase.h **** #endif
  78:/opt/homebrew/Cellar/arm-none-eabi-gcc/10.3-2021.07/gcc/arm-none-eabi/include/c++/10.3.1/bits/stl_algobase.h **** 
  79:/opt/homebrew/Cellar/arm-none-eabi-gcc/10.3-2021.07/gcc/arm-none-eabi/include/c++/10.3.1/bits/stl_algobase.h **** namespace std _GLIBCXX_VISIBILITY(default)
  80:/opt/homebrew/Cellar/arm-none-eabi-gcc/10.3-2021.07/gcc/arm-none-eabi/include/c++/10.3.1/bits/stl_algobase.h **** {
  81:/opt/homebrew/Cellar/arm-none-eabi-gcc/10.3-2021.07/gcc/arm-none-eabi/include/c++/10.3.1/bits/stl_algobase.h **** _GLIBCXX_BEGIN_NAMESPACE_VERSION
  82:/opt/homebrew/Cellar/arm-none-eabi-gcc/10.3-2021.07/gcc/arm-none-eabi/include/c++/10.3.1/bits/stl_algobase.h **** 
  83:/opt/homebrew/Cellar/arm-none-eabi-gcc/10.3-2021.07/gcc/arm-none-eabi/include/c++/10.3.1/bits/stl_algobase.h ****   /*
  84:/opt/homebrew/Cellar/arm-none-eabi-gcc/10.3-2021.07/gcc/arm-none-eabi/include/c++/10.3.1/bits/stl_algobase.h ****    * A constexpr wrapper for __builtin_memcmp.
  85:/opt/homebrew/Cellar/arm-none-eabi-gcc/10.3-2021.07/gcc/arm-none-eabi/include/c++/10.3.1/bits/stl_algobase.h ****    * @param __num The number of elements of type _Tp (not bytes).
  86:/opt/homebrew/Cellar/arm-none-eabi-gcc/10.3-2021.07/gcc/arm-none-eabi/include/c++/10.3.1/bits/stl_algobase.h ****    */
  87:/opt/homebrew/Cellar/arm-none-eabi-gcc/10.3-2021.07/gcc/arm-none-eabi/include/c++/10.3.1/bits/stl_algobase.h ****   template<typename _Tp, typename _Up>
  88:/opt/homebrew/Cellar/arm-none-eabi-gcc/10.3-2021.07/gcc/arm-none-eabi/include/c++/10.3.1/bits/stl_algobase.h ****     _GLIBCXX14_CONSTEXPR
  89:/opt/homebrew/Cellar/arm-none-eabi-gcc/10.3-2021.07/gcc/arm-none-eabi/include/c++/10.3.1/bits/stl_algobase.h ****     inline int
  90:/opt/homebrew/Cellar/arm-none-eabi-gcc/10.3-2021.07/gcc/arm-none-eabi/include/c++/10.3.1/bits/stl_algobase.h ****     __memcmp(const _Tp* __first1, const _Up* __first2, size_t __num)
  91:/opt/homebrew/Cellar/arm-none-eabi-gcc/10.3-2021.07/gcc/arm-none-eabi/include/c++/10.3.1/bits/stl_algobase.h ****     {
  92:/opt/homebrew/Cellar/arm-none-eabi-gcc/10.3-2021.07/gcc/arm-none-eabi/include/c++/10.3.1/bits/stl_algobase.h **** #if __cplusplus >= 201103L
  93:/opt/homebrew/Cellar/arm-none-eabi-gcc/10.3-2021.07/gcc/arm-none-eabi/include/c++/10.3.1/bits/stl_algobase.h ****       static_assert(sizeof(_Tp) == sizeof(_Up), "can be compared with memcmp");
  94:/opt/homebrew/Cellar/arm-none-eabi-gcc/10.3-2021.07/gcc/arm-none-eabi/include/c++/10.3.1/bits/stl_algobase.h **** #endif
  95:/opt/homebrew/Cellar/arm-none-eabi-gcc/10.3-2021.07/gcc/arm-none-eabi/include/c++/10.3.1/bits/stl_algobase.h **** #ifdef __cpp_lib_is_constant_evaluated
  96:/opt/homebrew/Cellar/arm-none-eabi-gcc/10.3-2021.07/gcc/arm-none-eabi/include/c++/10.3.1/bits/stl_algobase.h ****       if (std::is_constant_evaluated())
  97:/opt/homebrew/Cellar/arm-none-eabi-gcc/10.3-2021.07/gcc/arm-none-eabi/include/c++/10.3.1/bits/stl_algobase.h **** 	{
  98:/opt/homebrew/Cellar/arm-none-eabi-gcc/10.3-2021.07/gcc/arm-none-eabi/include/c++/10.3.1/bits/stl_algobase.h **** 	  for(; __num > 0; ++__first1, ++__first2, --__num)
  99:/opt/homebrew/Cellar/arm-none-eabi-gcc/10.3-2021.07/gcc/arm-none-eabi/include/c++/10.3.1/bits/stl_algobase.h **** 	    if (*__first1 != *__first2)
 100:/opt/homebrew/Cellar/arm-none-eabi-gcc/10.3-2021.07/gcc/arm-none-eabi/include/c++/10.3.1/bits/stl_algobase.h **** 	      return *__first1 < *__first2 ? -1 : 1;
 101:/opt/homebrew/Cellar/arm-none-eabi-gcc/10.3-2021.07/gcc/arm-none-eabi/include/c++/10.3.1/bits/stl_algobase.h **** 	  return 0;
 102:/opt/homebrew/Cellar/arm-none-eabi-gcc/10.3-2021.07/gcc/arm-none-eabi/include/c++/10.3.1/bits/stl_algobase.h **** 	}
 103:/opt/homebrew/Cellar/arm-none-eabi-gcc/10.3-2021.07/gcc/arm-none-eabi/include/c++/10.3.1/bits/stl_algobase.h ****       else
 104:/opt/homebrew/Cellar/arm-none-eabi-gcc/10.3-2021.07/gcc/arm-none-eabi/include/c++/10.3.1/bits/stl_algobase.h **** #endif
 105:/opt/homebrew/Cellar/arm-none-eabi-gcc/10.3-2021.07/gcc/arm-none-eabi/include/c++/10.3.1/bits/stl_algobase.h **** 	return __builtin_memcmp(__first1, __first2, sizeof(_Tp) * __num);
 106:/opt/homebrew/Cellar/arm-none-eabi-gcc/10.3-2021.07/gcc/arm-none-eabi/include/c++/10.3.1/bits/stl_algobase.h ****     }
ARM GAS  /var/folders/hl/qgbwny5j0fd895c2c41bk3tw0000gp/T//cc9kFYNb.s 			page 57


 107:/opt/homebrew/Cellar/arm-none-eabi-gcc/10.3-2021.07/gcc/arm-none-eabi/include/c++/10.3.1/bits/stl_algobase.h **** 
 108:/opt/homebrew/Cellar/arm-none-eabi-gcc/10.3-2021.07/gcc/arm-none-eabi/include/c++/10.3.1/bits/stl_algobase.h **** #if __cplusplus < 201103L
 109:/opt/homebrew/Cellar/arm-none-eabi-gcc/10.3-2021.07/gcc/arm-none-eabi/include/c++/10.3.1/bits/stl_algobase.h ****   // See http://gcc.gnu.org/ml/libstdc++/2004-08/msg00167.html: in a
 110:/opt/homebrew/Cellar/arm-none-eabi-gcc/10.3-2021.07/gcc/arm-none-eabi/include/c++/10.3.1/bits/stl_algobase.h ****   // nutshell, we are partially implementing the resolution of DR 187,
 111:/opt/homebrew/Cellar/arm-none-eabi-gcc/10.3-2021.07/gcc/arm-none-eabi/include/c++/10.3.1/bits/stl_algobase.h ****   // when it's safe, i.e., the value_types are equal.
 112:/opt/homebrew/Cellar/arm-none-eabi-gcc/10.3-2021.07/gcc/arm-none-eabi/include/c++/10.3.1/bits/stl_algobase.h ****   template<bool _BoolType>
 113:/opt/homebrew/Cellar/arm-none-eabi-gcc/10.3-2021.07/gcc/arm-none-eabi/include/c++/10.3.1/bits/stl_algobase.h ****     struct __iter_swap
 114:/opt/homebrew/Cellar/arm-none-eabi-gcc/10.3-2021.07/gcc/arm-none-eabi/include/c++/10.3.1/bits/stl_algobase.h ****     {
 115:/opt/homebrew/Cellar/arm-none-eabi-gcc/10.3-2021.07/gcc/arm-none-eabi/include/c++/10.3.1/bits/stl_algobase.h ****       template<typename _ForwardIterator1, typename _ForwardIterator2>
 116:/opt/homebrew/Cellar/arm-none-eabi-gcc/10.3-2021.07/gcc/arm-none-eabi/include/c++/10.3.1/bits/stl_algobase.h **** 	static void
 117:/opt/homebrew/Cellar/arm-none-eabi-gcc/10.3-2021.07/gcc/arm-none-eabi/include/c++/10.3.1/bits/stl_algobase.h **** 	iter_swap(_ForwardIterator1 __a, _ForwardIterator2 __b)
 118:/opt/homebrew/Cellar/arm-none-eabi-gcc/10.3-2021.07/gcc/arm-none-eabi/include/c++/10.3.1/bits/stl_algobase.h **** 	{
 119:/opt/homebrew/Cellar/arm-none-eabi-gcc/10.3-2021.07/gcc/arm-none-eabi/include/c++/10.3.1/bits/stl_algobase.h **** 	  typedef typename iterator_traits<_ForwardIterator1>::value_type
 120:/opt/homebrew/Cellar/arm-none-eabi-gcc/10.3-2021.07/gcc/arm-none-eabi/include/c++/10.3.1/bits/stl_algobase.h **** 	    _ValueType1;
 121:/opt/homebrew/Cellar/arm-none-eabi-gcc/10.3-2021.07/gcc/arm-none-eabi/include/c++/10.3.1/bits/stl_algobase.h **** 	  _ValueType1 __tmp = *__a;
 122:/opt/homebrew/Cellar/arm-none-eabi-gcc/10.3-2021.07/gcc/arm-none-eabi/include/c++/10.3.1/bits/stl_algobase.h **** 	  *__a = *__b;
 123:/opt/homebrew/Cellar/arm-none-eabi-gcc/10.3-2021.07/gcc/arm-none-eabi/include/c++/10.3.1/bits/stl_algobase.h **** 	  *__b = __tmp;
 124:/opt/homebrew/Cellar/arm-none-eabi-gcc/10.3-2021.07/gcc/arm-none-eabi/include/c++/10.3.1/bits/stl_algobase.h **** 	}
 125:/opt/homebrew/Cellar/arm-none-eabi-gcc/10.3-2021.07/gcc/arm-none-eabi/include/c++/10.3.1/bits/stl_algobase.h ****     };
 126:/opt/homebrew/Cellar/arm-none-eabi-gcc/10.3-2021.07/gcc/arm-none-eabi/include/c++/10.3.1/bits/stl_algobase.h **** 
 127:/opt/homebrew/Cellar/arm-none-eabi-gcc/10.3-2021.07/gcc/arm-none-eabi/include/c++/10.3.1/bits/stl_algobase.h ****   template<>
 128:/opt/homebrew/Cellar/arm-none-eabi-gcc/10.3-2021.07/gcc/arm-none-eabi/include/c++/10.3.1/bits/stl_algobase.h ****     struct __iter_swap<true>
 129:/opt/homebrew/Cellar/arm-none-eabi-gcc/10.3-2021.07/gcc/arm-none-eabi/include/c++/10.3.1/bits/stl_algobase.h ****     {
 130:/opt/homebrew/Cellar/arm-none-eabi-gcc/10.3-2021.07/gcc/arm-none-eabi/include/c++/10.3.1/bits/stl_algobase.h ****       template<typename _ForwardIterator1, typename _ForwardIterator2>
 131:/opt/homebrew/Cellar/arm-none-eabi-gcc/10.3-2021.07/gcc/arm-none-eabi/include/c++/10.3.1/bits/stl_algobase.h **** 	static void
 132:/opt/homebrew/Cellar/arm-none-eabi-gcc/10.3-2021.07/gcc/arm-none-eabi/include/c++/10.3.1/bits/stl_algobase.h **** 	iter_swap(_ForwardIterator1 __a, _ForwardIterator2 __b)
 133:/opt/homebrew/Cellar/arm-none-eabi-gcc/10.3-2021.07/gcc/arm-none-eabi/include/c++/10.3.1/bits/stl_algobase.h **** 	{
 134:/opt/homebrew/Cellar/arm-none-eabi-gcc/10.3-2021.07/gcc/arm-none-eabi/include/c++/10.3.1/bits/stl_algobase.h **** 	  swap(*__a, *__b);
 135:/opt/homebrew/Cellar/arm-none-eabi-gcc/10.3-2021.07/gcc/arm-none-eabi/include/c++/10.3.1/bits/stl_algobase.h **** 	}
 136:/opt/homebrew/Cellar/arm-none-eabi-gcc/10.3-2021.07/gcc/arm-none-eabi/include/c++/10.3.1/bits/stl_algobase.h ****     };
 137:/opt/homebrew/Cellar/arm-none-eabi-gcc/10.3-2021.07/gcc/arm-none-eabi/include/c++/10.3.1/bits/stl_algobase.h **** #endif // C++03
 138:/opt/homebrew/Cellar/arm-none-eabi-gcc/10.3-2021.07/gcc/arm-none-eabi/include/c++/10.3.1/bits/stl_algobase.h **** 
 139:/opt/homebrew/Cellar/arm-none-eabi-gcc/10.3-2021.07/gcc/arm-none-eabi/include/c++/10.3.1/bits/stl_algobase.h ****   /**
 140:/opt/homebrew/Cellar/arm-none-eabi-gcc/10.3-2021.07/gcc/arm-none-eabi/include/c++/10.3.1/bits/stl_algobase.h ****    *  @brief Swaps the contents of two iterators.
 141:/opt/homebrew/Cellar/arm-none-eabi-gcc/10.3-2021.07/gcc/arm-none-eabi/include/c++/10.3.1/bits/stl_algobase.h ****    *  @ingroup mutating_algorithms
 142:/opt/homebrew/Cellar/arm-none-eabi-gcc/10.3-2021.07/gcc/arm-none-eabi/include/c++/10.3.1/bits/stl_algobase.h ****    *  @param  __a  An iterator.
 143:/opt/homebrew/Cellar/arm-none-eabi-gcc/10.3-2021.07/gcc/arm-none-eabi/include/c++/10.3.1/bits/stl_algobase.h ****    *  @param  __b  Another iterator.
 144:/opt/homebrew/Cellar/arm-none-eabi-gcc/10.3-2021.07/gcc/arm-none-eabi/include/c++/10.3.1/bits/stl_algobase.h ****    *  @return   Nothing.
 145:/opt/homebrew/Cellar/arm-none-eabi-gcc/10.3-2021.07/gcc/arm-none-eabi/include/c++/10.3.1/bits/stl_algobase.h ****    *
 146:/opt/homebrew/Cellar/arm-none-eabi-gcc/10.3-2021.07/gcc/arm-none-eabi/include/c++/10.3.1/bits/stl_algobase.h ****    *  This function swaps the values pointed to by two iterators, not the
 147:/opt/homebrew/Cellar/arm-none-eabi-gcc/10.3-2021.07/gcc/arm-none-eabi/include/c++/10.3.1/bits/stl_algobase.h ****    *  iterators themselves.
 148:/opt/homebrew/Cellar/arm-none-eabi-gcc/10.3-2021.07/gcc/arm-none-eabi/include/c++/10.3.1/bits/stl_algobase.h ****   */
 149:/opt/homebrew/Cellar/arm-none-eabi-gcc/10.3-2021.07/gcc/arm-none-eabi/include/c++/10.3.1/bits/stl_algobase.h ****   template<typename _ForwardIterator1, typename _ForwardIterator2>
 150:/opt/homebrew/Cellar/arm-none-eabi-gcc/10.3-2021.07/gcc/arm-none-eabi/include/c++/10.3.1/bits/stl_algobase.h ****     _GLIBCXX20_CONSTEXPR
 151:/opt/homebrew/Cellar/arm-none-eabi-gcc/10.3-2021.07/gcc/arm-none-eabi/include/c++/10.3.1/bits/stl_algobase.h ****     inline void
 152:/opt/homebrew/Cellar/arm-none-eabi-gcc/10.3-2021.07/gcc/arm-none-eabi/include/c++/10.3.1/bits/stl_algobase.h ****     iter_swap(_ForwardIterator1 __a, _ForwardIterator2 __b)
 153:/opt/homebrew/Cellar/arm-none-eabi-gcc/10.3-2021.07/gcc/arm-none-eabi/include/c++/10.3.1/bits/stl_algobase.h ****     {
 154:/opt/homebrew/Cellar/arm-none-eabi-gcc/10.3-2021.07/gcc/arm-none-eabi/include/c++/10.3.1/bits/stl_algobase.h ****       // concept requirements
 155:/opt/homebrew/Cellar/arm-none-eabi-gcc/10.3-2021.07/gcc/arm-none-eabi/include/c++/10.3.1/bits/stl_algobase.h ****       __glibcxx_function_requires(_Mutable_ForwardIteratorConcept<
 156:/opt/homebrew/Cellar/arm-none-eabi-gcc/10.3-2021.07/gcc/arm-none-eabi/include/c++/10.3.1/bits/stl_algobase.h **** 				  _ForwardIterator1>)
 157:/opt/homebrew/Cellar/arm-none-eabi-gcc/10.3-2021.07/gcc/arm-none-eabi/include/c++/10.3.1/bits/stl_algobase.h ****       __glibcxx_function_requires(_Mutable_ForwardIteratorConcept<
 158:/opt/homebrew/Cellar/arm-none-eabi-gcc/10.3-2021.07/gcc/arm-none-eabi/include/c++/10.3.1/bits/stl_algobase.h **** 				  _ForwardIterator2>)
 159:/opt/homebrew/Cellar/arm-none-eabi-gcc/10.3-2021.07/gcc/arm-none-eabi/include/c++/10.3.1/bits/stl_algobase.h **** 
 160:/opt/homebrew/Cellar/arm-none-eabi-gcc/10.3-2021.07/gcc/arm-none-eabi/include/c++/10.3.1/bits/stl_algobase.h **** #if __cplusplus < 201103L
 161:/opt/homebrew/Cellar/arm-none-eabi-gcc/10.3-2021.07/gcc/arm-none-eabi/include/c++/10.3.1/bits/stl_algobase.h ****       typedef typename iterator_traits<_ForwardIterator1>::value_type
 162:/opt/homebrew/Cellar/arm-none-eabi-gcc/10.3-2021.07/gcc/arm-none-eabi/include/c++/10.3.1/bits/stl_algobase.h **** 	_ValueType1;
 163:/opt/homebrew/Cellar/arm-none-eabi-gcc/10.3-2021.07/gcc/arm-none-eabi/include/c++/10.3.1/bits/stl_algobase.h ****       typedef typename iterator_traits<_ForwardIterator2>::value_type
ARM GAS  /var/folders/hl/qgbwny5j0fd895c2c41bk3tw0000gp/T//cc9kFYNb.s 			page 58


 164:/opt/homebrew/Cellar/arm-none-eabi-gcc/10.3-2021.07/gcc/arm-none-eabi/include/c++/10.3.1/bits/stl_algobase.h **** 	_ValueType2;
 165:/opt/homebrew/Cellar/arm-none-eabi-gcc/10.3-2021.07/gcc/arm-none-eabi/include/c++/10.3.1/bits/stl_algobase.h **** 
 166:/opt/homebrew/Cellar/arm-none-eabi-gcc/10.3-2021.07/gcc/arm-none-eabi/include/c++/10.3.1/bits/stl_algobase.h ****       __glibcxx_function_requires(_ConvertibleConcept<_ValueType1,
 167:/opt/homebrew/Cellar/arm-none-eabi-gcc/10.3-2021.07/gcc/arm-none-eabi/include/c++/10.3.1/bits/stl_algobase.h **** 				  _ValueType2>)
 168:/opt/homebrew/Cellar/arm-none-eabi-gcc/10.3-2021.07/gcc/arm-none-eabi/include/c++/10.3.1/bits/stl_algobase.h ****       __glibcxx_function_requires(_ConvertibleConcept<_ValueType2,
 169:/opt/homebrew/Cellar/arm-none-eabi-gcc/10.3-2021.07/gcc/arm-none-eabi/include/c++/10.3.1/bits/stl_algobase.h **** 				  _ValueType1>)
 170:/opt/homebrew/Cellar/arm-none-eabi-gcc/10.3-2021.07/gcc/arm-none-eabi/include/c++/10.3.1/bits/stl_algobase.h **** 
 171:/opt/homebrew/Cellar/arm-none-eabi-gcc/10.3-2021.07/gcc/arm-none-eabi/include/c++/10.3.1/bits/stl_algobase.h ****       typedef typename iterator_traits<_ForwardIterator1>::reference
 172:/opt/homebrew/Cellar/arm-none-eabi-gcc/10.3-2021.07/gcc/arm-none-eabi/include/c++/10.3.1/bits/stl_algobase.h **** 	_ReferenceType1;
 173:/opt/homebrew/Cellar/arm-none-eabi-gcc/10.3-2021.07/gcc/arm-none-eabi/include/c++/10.3.1/bits/stl_algobase.h ****       typedef typename iterator_traits<_ForwardIterator2>::reference
 174:/opt/homebrew/Cellar/arm-none-eabi-gcc/10.3-2021.07/gcc/arm-none-eabi/include/c++/10.3.1/bits/stl_algobase.h **** 	_ReferenceType2;
 175:/opt/homebrew/Cellar/arm-none-eabi-gcc/10.3-2021.07/gcc/arm-none-eabi/include/c++/10.3.1/bits/stl_algobase.h ****       std::__iter_swap<__are_same<_ValueType1, _ValueType2>::__value
 176:/opt/homebrew/Cellar/arm-none-eabi-gcc/10.3-2021.07/gcc/arm-none-eabi/include/c++/10.3.1/bits/stl_algobase.h **** 	&& __are_same<_ValueType1&, _ReferenceType1>::__value
 177:/opt/homebrew/Cellar/arm-none-eabi-gcc/10.3-2021.07/gcc/arm-none-eabi/include/c++/10.3.1/bits/stl_algobase.h **** 	&& __are_same<_ValueType2&, _ReferenceType2>::__value>::
 178:/opt/homebrew/Cellar/arm-none-eabi-gcc/10.3-2021.07/gcc/arm-none-eabi/include/c++/10.3.1/bits/stl_algobase.h **** 	iter_swap(__a, __b);
 179:/opt/homebrew/Cellar/arm-none-eabi-gcc/10.3-2021.07/gcc/arm-none-eabi/include/c++/10.3.1/bits/stl_algobase.h **** #else
 180:/opt/homebrew/Cellar/arm-none-eabi-gcc/10.3-2021.07/gcc/arm-none-eabi/include/c++/10.3.1/bits/stl_algobase.h ****       // _GLIBCXX_RESOLVE_LIB_DEFECTS
 181:/opt/homebrew/Cellar/arm-none-eabi-gcc/10.3-2021.07/gcc/arm-none-eabi/include/c++/10.3.1/bits/stl_algobase.h ****       // 187. iter_swap underspecified
 182:/opt/homebrew/Cellar/arm-none-eabi-gcc/10.3-2021.07/gcc/arm-none-eabi/include/c++/10.3.1/bits/stl_algobase.h ****       swap(*__a, *__b);
 183:/opt/homebrew/Cellar/arm-none-eabi-gcc/10.3-2021.07/gcc/arm-none-eabi/include/c++/10.3.1/bits/stl_algobase.h **** #endif
 184:/opt/homebrew/Cellar/arm-none-eabi-gcc/10.3-2021.07/gcc/arm-none-eabi/include/c++/10.3.1/bits/stl_algobase.h ****     }
 185:/opt/homebrew/Cellar/arm-none-eabi-gcc/10.3-2021.07/gcc/arm-none-eabi/include/c++/10.3.1/bits/stl_algobase.h **** 
 186:/opt/homebrew/Cellar/arm-none-eabi-gcc/10.3-2021.07/gcc/arm-none-eabi/include/c++/10.3.1/bits/stl_algobase.h ****   /**
 187:/opt/homebrew/Cellar/arm-none-eabi-gcc/10.3-2021.07/gcc/arm-none-eabi/include/c++/10.3.1/bits/stl_algobase.h ****    *  @brief Swap the elements of two sequences.
 188:/opt/homebrew/Cellar/arm-none-eabi-gcc/10.3-2021.07/gcc/arm-none-eabi/include/c++/10.3.1/bits/stl_algobase.h ****    *  @ingroup mutating_algorithms
 189:/opt/homebrew/Cellar/arm-none-eabi-gcc/10.3-2021.07/gcc/arm-none-eabi/include/c++/10.3.1/bits/stl_algobase.h ****    *  @param  __first1  A forward iterator.
 190:/opt/homebrew/Cellar/arm-none-eabi-gcc/10.3-2021.07/gcc/arm-none-eabi/include/c++/10.3.1/bits/stl_algobase.h ****    *  @param  __last1   A forward iterator.
 191:/opt/homebrew/Cellar/arm-none-eabi-gcc/10.3-2021.07/gcc/arm-none-eabi/include/c++/10.3.1/bits/stl_algobase.h ****    *  @param  __first2  A forward iterator.
 192:/opt/homebrew/Cellar/arm-none-eabi-gcc/10.3-2021.07/gcc/arm-none-eabi/include/c++/10.3.1/bits/stl_algobase.h ****    *  @return   An iterator equal to @p first2+(last1-first1).
 193:/opt/homebrew/Cellar/arm-none-eabi-gcc/10.3-2021.07/gcc/arm-none-eabi/include/c++/10.3.1/bits/stl_algobase.h ****    *
 194:/opt/homebrew/Cellar/arm-none-eabi-gcc/10.3-2021.07/gcc/arm-none-eabi/include/c++/10.3.1/bits/stl_algobase.h ****    *  Swaps each element in the range @p [first1,last1) with the
 195:/opt/homebrew/Cellar/arm-none-eabi-gcc/10.3-2021.07/gcc/arm-none-eabi/include/c++/10.3.1/bits/stl_algobase.h ****    *  corresponding element in the range @p [first2,(last1-first1)).
 196:/opt/homebrew/Cellar/arm-none-eabi-gcc/10.3-2021.07/gcc/arm-none-eabi/include/c++/10.3.1/bits/stl_algobase.h ****    *  The ranges must not overlap.
 197:/opt/homebrew/Cellar/arm-none-eabi-gcc/10.3-2021.07/gcc/arm-none-eabi/include/c++/10.3.1/bits/stl_algobase.h ****   */
 198:/opt/homebrew/Cellar/arm-none-eabi-gcc/10.3-2021.07/gcc/arm-none-eabi/include/c++/10.3.1/bits/stl_algobase.h ****   template<typename _ForwardIterator1, typename _ForwardIterator2>
 199:/opt/homebrew/Cellar/arm-none-eabi-gcc/10.3-2021.07/gcc/arm-none-eabi/include/c++/10.3.1/bits/stl_algobase.h ****     _GLIBCXX20_CONSTEXPR
 200:/opt/homebrew/Cellar/arm-none-eabi-gcc/10.3-2021.07/gcc/arm-none-eabi/include/c++/10.3.1/bits/stl_algobase.h ****     _ForwardIterator2
 201:/opt/homebrew/Cellar/arm-none-eabi-gcc/10.3-2021.07/gcc/arm-none-eabi/include/c++/10.3.1/bits/stl_algobase.h ****     swap_ranges(_ForwardIterator1 __first1, _ForwardIterator1 __last1,
 202:/opt/homebrew/Cellar/arm-none-eabi-gcc/10.3-2021.07/gcc/arm-none-eabi/include/c++/10.3.1/bits/stl_algobase.h **** 		_ForwardIterator2 __first2)
 203:/opt/homebrew/Cellar/arm-none-eabi-gcc/10.3-2021.07/gcc/arm-none-eabi/include/c++/10.3.1/bits/stl_algobase.h ****     {
 204:/opt/homebrew/Cellar/arm-none-eabi-gcc/10.3-2021.07/gcc/arm-none-eabi/include/c++/10.3.1/bits/stl_algobase.h ****       // concept requirements
 205:/opt/homebrew/Cellar/arm-none-eabi-gcc/10.3-2021.07/gcc/arm-none-eabi/include/c++/10.3.1/bits/stl_algobase.h ****       __glibcxx_function_requires(_Mutable_ForwardIteratorConcept<
 206:/opt/homebrew/Cellar/arm-none-eabi-gcc/10.3-2021.07/gcc/arm-none-eabi/include/c++/10.3.1/bits/stl_algobase.h **** 				  _ForwardIterator1>)
 207:/opt/homebrew/Cellar/arm-none-eabi-gcc/10.3-2021.07/gcc/arm-none-eabi/include/c++/10.3.1/bits/stl_algobase.h ****       __glibcxx_function_requires(_Mutable_ForwardIteratorConcept<
 208:/opt/homebrew/Cellar/arm-none-eabi-gcc/10.3-2021.07/gcc/arm-none-eabi/include/c++/10.3.1/bits/stl_algobase.h **** 				  _ForwardIterator2>)
 209:/opt/homebrew/Cellar/arm-none-eabi-gcc/10.3-2021.07/gcc/arm-none-eabi/include/c++/10.3.1/bits/stl_algobase.h ****       __glibcxx_requires_valid_range(__first1, __last1);
 210:/opt/homebrew/Cellar/arm-none-eabi-gcc/10.3-2021.07/gcc/arm-none-eabi/include/c++/10.3.1/bits/stl_algobase.h **** 
 211:/opt/homebrew/Cellar/arm-none-eabi-gcc/10.3-2021.07/gcc/arm-none-eabi/include/c++/10.3.1/bits/stl_algobase.h ****       for (; __first1 != __last1; ++__first1, (void)++__first2)
 212:/opt/homebrew/Cellar/arm-none-eabi-gcc/10.3-2021.07/gcc/arm-none-eabi/include/c++/10.3.1/bits/stl_algobase.h **** 	std::iter_swap(__first1, __first2);
 213:/opt/homebrew/Cellar/arm-none-eabi-gcc/10.3-2021.07/gcc/arm-none-eabi/include/c++/10.3.1/bits/stl_algobase.h ****       return __first2;
 214:/opt/homebrew/Cellar/arm-none-eabi-gcc/10.3-2021.07/gcc/arm-none-eabi/include/c++/10.3.1/bits/stl_algobase.h ****     }
 215:/opt/homebrew/Cellar/arm-none-eabi-gcc/10.3-2021.07/gcc/arm-none-eabi/include/c++/10.3.1/bits/stl_algobase.h **** 
 216:/opt/homebrew/Cellar/arm-none-eabi-gcc/10.3-2021.07/gcc/arm-none-eabi/include/c++/10.3.1/bits/stl_algobase.h ****   /**
 217:/opt/homebrew/Cellar/arm-none-eabi-gcc/10.3-2021.07/gcc/arm-none-eabi/include/c++/10.3.1/bits/stl_algobase.h ****    *  @brief This does what you think it does.
 218:/opt/homebrew/Cellar/arm-none-eabi-gcc/10.3-2021.07/gcc/arm-none-eabi/include/c++/10.3.1/bits/stl_algobase.h ****    *  @ingroup sorting_algorithms
 219:/opt/homebrew/Cellar/arm-none-eabi-gcc/10.3-2021.07/gcc/arm-none-eabi/include/c++/10.3.1/bits/stl_algobase.h ****    *  @param  __a  A thing of arbitrary type.
 220:/opt/homebrew/Cellar/arm-none-eabi-gcc/10.3-2021.07/gcc/arm-none-eabi/include/c++/10.3.1/bits/stl_algobase.h ****    *  @param  __b  Another thing of arbitrary type.
ARM GAS  /var/folders/hl/qgbwny5j0fd895c2c41bk3tw0000gp/T//cc9kFYNb.s 			page 59


 221:/opt/homebrew/Cellar/arm-none-eabi-gcc/10.3-2021.07/gcc/arm-none-eabi/include/c++/10.3.1/bits/stl_algobase.h ****    *  @return   The lesser of the parameters.
 222:/opt/homebrew/Cellar/arm-none-eabi-gcc/10.3-2021.07/gcc/arm-none-eabi/include/c++/10.3.1/bits/stl_algobase.h ****    *
 223:/opt/homebrew/Cellar/arm-none-eabi-gcc/10.3-2021.07/gcc/arm-none-eabi/include/c++/10.3.1/bits/stl_algobase.h ****    *  This is the simple classic generic implementation.  It will work on
 224:/opt/homebrew/Cellar/arm-none-eabi-gcc/10.3-2021.07/gcc/arm-none-eabi/include/c++/10.3.1/bits/stl_algobase.h ****    *  temporary expressions, since they are only evaluated once, unlike a
 225:/opt/homebrew/Cellar/arm-none-eabi-gcc/10.3-2021.07/gcc/arm-none-eabi/include/c++/10.3.1/bits/stl_algobase.h ****    *  preprocessor macro.
 226:/opt/homebrew/Cellar/arm-none-eabi-gcc/10.3-2021.07/gcc/arm-none-eabi/include/c++/10.3.1/bits/stl_algobase.h ****   */
 227:/opt/homebrew/Cellar/arm-none-eabi-gcc/10.3-2021.07/gcc/arm-none-eabi/include/c++/10.3.1/bits/stl_algobase.h ****   template<typename _Tp>
 228:/opt/homebrew/Cellar/arm-none-eabi-gcc/10.3-2021.07/gcc/arm-none-eabi/include/c++/10.3.1/bits/stl_algobase.h ****     _GLIBCXX14_CONSTEXPR
 229:/opt/homebrew/Cellar/arm-none-eabi-gcc/10.3-2021.07/gcc/arm-none-eabi/include/c++/10.3.1/bits/stl_algobase.h ****     inline const _Tp&
 230:/opt/homebrew/Cellar/arm-none-eabi-gcc/10.3-2021.07/gcc/arm-none-eabi/include/c++/10.3.1/bits/stl_algobase.h ****     min(const _Tp& __a, const _Tp& __b)
 231:/opt/homebrew/Cellar/arm-none-eabi-gcc/10.3-2021.07/gcc/arm-none-eabi/include/c++/10.3.1/bits/stl_algobase.h ****     {
 232:/opt/homebrew/Cellar/arm-none-eabi-gcc/10.3-2021.07/gcc/arm-none-eabi/include/c++/10.3.1/bits/stl_algobase.h ****       // concept requirements
 233:/opt/homebrew/Cellar/arm-none-eabi-gcc/10.3-2021.07/gcc/arm-none-eabi/include/c++/10.3.1/bits/stl_algobase.h ****       __glibcxx_function_requires(_LessThanComparableConcept<_Tp>)
 234:/opt/homebrew/Cellar/arm-none-eabi-gcc/10.3-2021.07/gcc/arm-none-eabi/include/c++/10.3.1/bits/stl_algobase.h ****       //return __b < __a ? __b : __a;
 235:/opt/homebrew/Cellar/arm-none-eabi-gcc/10.3-2021.07/gcc/arm-none-eabi/include/c++/10.3.1/bits/stl_algobase.h ****       if (__b < __a)
 236:/opt/homebrew/Cellar/arm-none-eabi-gcc/10.3-2021.07/gcc/arm-none-eabi/include/c++/10.3.1/bits/stl_algobase.h **** 	return __b;
 237:/opt/homebrew/Cellar/arm-none-eabi-gcc/10.3-2021.07/gcc/arm-none-eabi/include/c++/10.3.1/bits/stl_algobase.h ****       return __a;
 238:/opt/homebrew/Cellar/arm-none-eabi-gcc/10.3-2021.07/gcc/arm-none-eabi/include/c++/10.3.1/bits/stl_algobase.h ****     }
 239:/opt/homebrew/Cellar/arm-none-eabi-gcc/10.3-2021.07/gcc/arm-none-eabi/include/c++/10.3.1/bits/stl_algobase.h **** 
 240:/opt/homebrew/Cellar/arm-none-eabi-gcc/10.3-2021.07/gcc/arm-none-eabi/include/c++/10.3.1/bits/stl_algobase.h ****   /**
 241:/opt/homebrew/Cellar/arm-none-eabi-gcc/10.3-2021.07/gcc/arm-none-eabi/include/c++/10.3.1/bits/stl_algobase.h ****    *  @brief This does what you think it does.
 242:/opt/homebrew/Cellar/arm-none-eabi-gcc/10.3-2021.07/gcc/arm-none-eabi/include/c++/10.3.1/bits/stl_algobase.h ****    *  @ingroup sorting_algorithms
 243:/opt/homebrew/Cellar/arm-none-eabi-gcc/10.3-2021.07/gcc/arm-none-eabi/include/c++/10.3.1/bits/stl_algobase.h ****    *  @param  __a  A thing of arbitrary type.
 244:/opt/homebrew/Cellar/arm-none-eabi-gcc/10.3-2021.07/gcc/arm-none-eabi/include/c++/10.3.1/bits/stl_algobase.h ****    *  @param  __b  Another thing of arbitrary type.
 245:/opt/homebrew/Cellar/arm-none-eabi-gcc/10.3-2021.07/gcc/arm-none-eabi/include/c++/10.3.1/bits/stl_algobase.h ****    *  @return   The greater of the parameters.
 246:/opt/homebrew/Cellar/arm-none-eabi-gcc/10.3-2021.07/gcc/arm-none-eabi/include/c++/10.3.1/bits/stl_algobase.h ****    *
 247:/opt/homebrew/Cellar/arm-none-eabi-gcc/10.3-2021.07/gcc/arm-none-eabi/include/c++/10.3.1/bits/stl_algobase.h ****    *  This is the simple classic generic implementation.  It will work on
 248:/opt/homebrew/Cellar/arm-none-eabi-gcc/10.3-2021.07/gcc/arm-none-eabi/include/c++/10.3.1/bits/stl_algobase.h ****    *  temporary expressions, since they are only evaluated once, unlike a
 249:/opt/homebrew/Cellar/arm-none-eabi-gcc/10.3-2021.07/gcc/arm-none-eabi/include/c++/10.3.1/bits/stl_algobase.h ****    *  preprocessor macro.
 250:/opt/homebrew/Cellar/arm-none-eabi-gcc/10.3-2021.07/gcc/arm-none-eabi/include/c++/10.3.1/bits/stl_algobase.h ****   */
 251:/opt/homebrew/Cellar/arm-none-eabi-gcc/10.3-2021.07/gcc/arm-none-eabi/include/c++/10.3.1/bits/stl_algobase.h ****   template<typename _Tp>
 252:/opt/homebrew/Cellar/arm-none-eabi-gcc/10.3-2021.07/gcc/arm-none-eabi/include/c++/10.3.1/bits/stl_algobase.h ****     _GLIBCXX14_CONSTEXPR
 253:/opt/homebrew/Cellar/arm-none-eabi-gcc/10.3-2021.07/gcc/arm-none-eabi/include/c++/10.3.1/bits/stl_algobase.h ****     inline const _Tp&
 254:/opt/homebrew/Cellar/arm-none-eabi-gcc/10.3-2021.07/gcc/arm-none-eabi/include/c++/10.3.1/bits/stl_algobase.h ****     max(const _Tp& __a, const _Tp& __b)
 255:/opt/homebrew/Cellar/arm-none-eabi-gcc/10.3-2021.07/gcc/arm-none-eabi/include/c++/10.3.1/bits/stl_algobase.h ****     {
 256:/opt/homebrew/Cellar/arm-none-eabi-gcc/10.3-2021.07/gcc/arm-none-eabi/include/c++/10.3.1/bits/stl_algobase.h ****       // concept requirements
 257:/opt/homebrew/Cellar/arm-none-eabi-gcc/10.3-2021.07/gcc/arm-none-eabi/include/c++/10.3.1/bits/stl_algobase.h ****       __glibcxx_function_requires(_LessThanComparableConcept<_Tp>)
 258:/opt/homebrew/Cellar/arm-none-eabi-gcc/10.3-2021.07/gcc/arm-none-eabi/include/c++/10.3.1/bits/stl_algobase.h ****       //return  __a < __b ? __b : __a;
 259:/opt/homebrew/Cellar/arm-none-eabi-gcc/10.3-2021.07/gcc/arm-none-eabi/include/c++/10.3.1/bits/stl_algobase.h ****       if (__a < __b)
 260:/opt/homebrew/Cellar/arm-none-eabi-gcc/10.3-2021.07/gcc/arm-none-eabi/include/c++/10.3.1/bits/stl_algobase.h **** 	return __b;
 261:/opt/homebrew/Cellar/arm-none-eabi-gcc/10.3-2021.07/gcc/arm-none-eabi/include/c++/10.3.1/bits/stl_algobase.h ****       return __a;
 262:/opt/homebrew/Cellar/arm-none-eabi-gcc/10.3-2021.07/gcc/arm-none-eabi/include/c++/10.3.1/bits/stl_algobase.h ****     }
 263:/opt/homebrew/Cellar/arm-none-eabi-gcc/10.3-2021.07/gcc/arm-none-eabi/include/c++/10.3.1/bits/stl_algobase.h **** 
 264:/opt/homebrew/Cellar/arm-none-eabi-gcc/10.3-2021.07/gcc/arm-none-eabi/include/c++/10.3.1/bits/stl_algobase.h ****   /**
 265:/opt/homebrew/Cellar/arm-none-eabi-gcc/10.3-2021.07/gcc/arm-none-eabi/include/c++/10.3.1/bits/stl_algobase.h ****    *  @brief This does what you think it does.
 266:/opt/homebrew/Cellar/arm-none-eabi-gcc/10.3-2021.07/gcc/arm-none-eabi/include/c++/10.3.1/bits/stl_algobase.h ****    *  @ingroup sorting_algorithms
 267:/opt/homebrew/Cellar/arm-none-eabi-gcc/10.3-2021.07/gcc/arm-none-eabi/include/c++/10.3.1/bits/stl_algobase.h ****    *  @param  __a  A thing of arbitrary type.
 268:/opt/homebrew/Cellar/arm-none-eabi-gcc/10.3-2021.07/gcc/arm-none-eabi/include/c++/10.3.1/bits/stl_algobase.h ****    *  @param  __b  Another thing of arbitrary type.
 269:/opt/homebrew/Cellar/arm-none-eabi-gcc/10.3-2021.07/gcc/arm-none-eabi/include/c++/10.3.1/bits/stl_algobase.h ****    *  @param  __comp  A @link comparison_functors comparison functor@endlink.
 270:/opt/homebrew/Cellar/arm-none-eabi-gcc/10.3-2021.07/gcc/arm-none-eabi/include/c++/10.3.1/bits/stl_algobase.h ****    *  @return   The lesser of the parameters.
 271:/opt/homebrew/Cellar/arm-none-eabi-gcc/10.3-2021.07/gcc/arm-none-eabi/include/c++/10.3.1/bits/stl_algobase.h ****    *
 272:/opt/homebrew/Cellar/arm-none-eabi-gcc/10.3-2021.07/gcc/arm-none-eabi/include/c++/10.3.1/bits/stl_algobase.h ****    *  This will work on temporary expressions, since they are only evaluated
 273:/opt/homebrew/Cellar/arm-none-eabi-gcc/10.3-2021.07/gcc/arm-none-eabi/include/c++/10.3.1/bits/stl_algobase.h ****    *  once, unlike a preprocessor macro.
 274:/opt/homebrew/Cellar/arm-none-eabi-gcc/10.3-2021.07/gcc/arm-none-eabi/include/c++/10.3.1/bits/stl_algobase.h ****   */
 275:/opt/homebrew/Cellar/arm-none-eabi-gcc/10.3-2021.07/gcc/arm-none-eabi/include/c++/10.3.1/bits/stl_algobase.h ****   template<typename _Tp, typename _Compare>
 276:/opt/homebrew/Cellar/arm-none-eabi-gcc/10.3-2021.07/gcc/arm-none-eabi/include/c++/10.3.1/bits/stl_algobase.h ****     _GLIBCXX14_CONSTEXPR
 277:/opt/homebrew/Cellar/arm-none-eabi-gcc/10.3-2021.07/gcc/arm-none-eabi/include/c++/10.3.1/bits/stl_algobase.h ****     inline const _Tp&
ARM GAS  /var/folders/hl/qgbwny5j0fd895c2c41bk3tw0000gp/T//cc9kFYNb.s 			page 60


 278:/opt/homebrew/Cellar/arm-none-eabi-gcc/10.3-2021.07/gcc/arm-none-eabi/include/c++/10.3.1/bits/stl_algobase.h ****     min(const _Tp& __a, const _Tp& __b, _Compare __comp)
 279:/opt/homebrew/Cellar/arm-none-eabi-gcc/10.3-2021.07/gcc/arm-none-eabi/include/c++/10.3.1/bits/stl_algobase.h ****     {
 280:/opt/homebrew/Cellar/arm-none-eabi-gcc/10.3-2021.07/gcc/arm-none-eabi/include/c++/10.3.1/bits/stl_algobase.h ****       //return __comp(__b, __a) ? __b : __a;
 281:/opt/homebrew/Cellar/arm-none-eabi-gcc/10.3-2021.07/gcc/arm-none-eabi/include/c++/10.3.1/bits/stl_algobase.h ****       if (__comp(__b, __a))
 282:/opt/homebrew/Cellar/arm-none-eabi-gcc/10.3-2021.07/gcc/arm-none-eabi/include/c++/10.3.1/bits/stl_algobase.h **** 	return __b;
 283:/opt/homebrew/Cellar/arm-none-eabi-gcc/10.3-2021.07/gcc/arm-none-eabi/include/c++/10.3.1/bits/stl_algobase.h ****       return __a;
 284:/opt/homebrew/Cellar/arm-none-eabi-gcc/10.3-2021.07/gcc/arm-none-eabi/include/c++/10.3.1/bits/stl_algobase.h ****     }
 285:/opt/homebrew/Cellar/arm-none-eabi-gcc/10.3-2021.07/gcc/arm-none-eabi/include/c++/10.3.1/bits/stl_algobase.h **** 
 286:/opt/homebrew/Cellar/arm-none-eabi-gcc/10.3-2021.07/gcc/arm-none-eabi/include/c++/10.3.1/bits/stl_algobase.h ****   /**
 287:/opt/homebrew/Cellar/arm-none-eabi-gcc/10.3-2021.07/gcc/arm-none-eabi/include/c++/10.3.1/bits/stl_algobase.h ****    *  @brief This does what you think it does.
 288:/opt/homebrew/Cellar/arm-none-eabi-gcc/10.3-2021.07/gcc/arm-none-eabi/include/c++/10.3.1/bits/stl_algobase.h ****    *  @ingroup sorting_algorithms
 289:/opt/homebrew/Cellar/arm-none-eabi-gcc/10.3-2021.07/gcc/arm-none-eabi/include/c++/10.3.1/bits/stl_algobase.h ****    *  @param  __a  A thing of arbitrary type.
 290:/opt/homebrew/Cellar/arm-none-eabi-gcc/10.3-2021.07/gcc/arm-none-eabi/include/c++/10.3.1/bits/stl_algobase.h ****    *  @param  __b  Another thing of arbitrary type.
 291:/opt/homebrew/Cellar/arm-none-eabi-gcc/10.3-2021.07/gcc/arm-none-eabi/include/c++/10.3.1/bits/stl_algobase.h ****    *  @param  __comp  A @link comparison_functors comparison functor@endlink.
 292:/opt/homebrew/Cellar/arm-none-eabi-gcc/10.3-2021.07/gcc/arm-none-eabi/include/c++/10.3.1/bits/stl_algobase.h ****    *  @return   The greater of the parameters.
 293:/opt/homebrew/Cellar/arm-none-eabi-gcc/10.3-2021.07/gcc/arm-none-eabi/include/c++/10.3.1/bits/stl_algobase.h ****    *
 294:/opt/homebrew/Cellar/arm-none-eabi-gcc/10.3-2021.07/gcc/arm-none-eabi/include/c++/10.3.1/bits/stl_algobase.h ****    *  This will work on temporary expressions, since they are only evaluated
 295:/opt/homebrew/Cellar/arm-none-eabi-gcc/10.3-2021.07/gcc/arm-none-eabi/include/c++/10.3.1/bits/stl_algobase.h ****    *  once, unlike a preprocessor macro.
 296:/opt/homebrew/Cellar/arm-none-eabi-gcc/10.3-2021.07/gcc/arm-none-eabi/include/c++/10.3.1/bits/stl_algobase.h ****   */
 297:/opt/homebrew/Cellar/arm-none-eabi-gcc/10.3-2021.07/gcc/arm-none-eabi/include/c++/10.3.1/bits/stl_algobase.h ****   template<typename _Tp, typename _Compare>
 298:/opt/homebrew/Cellar/arm-none-eabi-gcc/10.3-2021.07/gcc/arm-none-eabi/include/c++/10.3.1/bits/stl_algobase.h ****     _GLIBCXX14_CONSTEXPR
 299:/opt/homebrew/Cellar/arm-none-eabi-gcc/10.3-2021.07/gcc/arm-none-eabi/include/c++/10.3.1/bits/stl_algobase.h ****     inline const _Tp&
 300:/opt/homebrew/Cellar/arm-none-eabi-gcc/10.3-2021.07/gcc/arm-none-eabi/include/c++/10.3.1/bits/stl_algobase.h ****     max(const _Tp& __a, const _Tp& __b, _Compare __comp)
 301:/opt/homebrew/Cellar/arm-none-eabi-gcc/10.3-2021.07/gcc/arm-none-eabi/include/c++/10.3.1/bits/stl_algobase.h ****     {
 302:/opt/homebrew/Cellar/arm-none-eabi-gcc/10.3-2021.07/gcc/arm-none-eabi/include/c++/10.3.1/bits/stl_algobase.h ****       //return __comp(__a, __b) ? __b : __a;
 303:/opt/homebrew/Cellar/arm-none-eabi-gcc/10.3-2021.07/gcc/arm-none-eabi/include/c++/10.3.1/bits/stl_algobase.h ****       if (__comp(__a, __b))
 304:/opt/homebrew/Cellar/arm-none-eabi-gcc/10.3-2021.07/gcc/arm-none-eabi/include/c++/10.3.1/bits/stl_algobase.h **** 	return __b;
 305:/opt/homebrew/Cellar/arm-none-eabi-gcc/10.3-2021.07/gcc/arm-none-eabi/include/c++/10.3.1/bits/stl_algobase.h ****       return __a;
 306:/opt/homebrew/Cellar/arm-none-eabi-gcc/10.3-2021.07/gcc/arm-none-eabi/include/c++/10.3.1/bits/stl_algobase.h ****     }
 307:/opt/homebrew/Cellar/arm-none-eabi-gcc/10.3-2021.07/gcc/arm-none-eabi/include/c++/10.3.1/bits/stl_algobase.h **** 
 308:/opt/homebrew/Cellar/arm-none-eabi-gcc/10.3-2021.07/gcc/arm-none-eabi/include/c++/10.3.1/bits/stl_algobase.h ****   // Fallback implementation of the function in bits/stl_iterator.h used to
 309:/opt/homebrew/Cellar/arm-none-eabi-gcc/10.3-2021.07/gcc/arm-none-eabi/include/c++/10.3.1/bits/stl_algobase.h ****   // remove the __normal_iterator wrapper. See copy, fill, ...
 310:/opt/homebrew/Cellar/arm-none-eabi-gcc/10.3-2021.07/gcc/arm-none-eabi/include/c++/10.3.1/bits/stl_algobase.h ****   template<typename _Iterator>
 311:/opt/homebrew/Cellar/arm-none-eabi-gcc/10.3-2021.07/gcc/arm-none-eabi/include/c++/10.3.1/bits/stl_algobase.h ****     _GLIBCXX20_CONSTEXPR
 312:/opt/homebrew/Cellar/arm-none-eabi-gcc/10.3-2021.07/gcc/arm-none-eabi/include/c++/10.3.1/bits/stl_algobase.h ****     inline _Iterator
 313:/opt/homebrew/Cellar/arm-none-eabi-gcc/10.3-2021.07/gcc/arm-none-eabi/include/c++/10.3.1/bits/stl_algobase.h ****     __niter_base(_Iterator __it)
 314:/opt/homebrew/Cellar/arm-none-eabi-gcc/10.3-2021.07/gcc/arm-none-eabi/include/c++/10.3.1/bits/stl_algobase.h ****     _GLIBCXX_NOEXCEPT_IF(std::is_nothrow_copy_constructible<_Iterator>::value)
 315:/opt/homebrew/Cellar/arm-none-eabi-gcc/10.3-2021.07/gcc/arm-none-eabi/include/c++/10.3.1/bits/stl_algobase.h ****     { return __it; }
 316:/opt/homebrew/Cellar/arm-none-eabi-gcc/10.3-2021.07/gcc/arm-none-eabi/include/c++/10.3.1/bits/stl_algobase.h **** 
 317:/opt/homebrew/Cellar/arm-none-eabi-gcc/10.3-2021.07/gcc/arm-none-eabi/include/c++/10.3.1/bits/stl_algobase.h ****   // Reverse the __niter_base transformation to get a
 318:/opt/homebrew/Cellar/arm-none-eabi-gcc/10.3-2021.07/gcc/arm-none-eabi/include/c++/10.3.1/bits/stl_algobase.h ****   // __normal_iterator back again (this assumes that __normal_iterator
 319:/opt/homebrew/Cellar/arm-none-eabi-gcc/10.3-2021.07/gcc/arm-none-eabi/include/c++/10.3.1/bits/stl_algobase.h ****   // is only used to wrap random access iterators, like pointers).
 320:/opt/homebrew/Cellar/arm-none-eabi-gcc/10.3-2021.07/gcc/arm-none-eabi/include/c++/10.3.1/bits/stl_algobase.h ****   template<typename _From, typename _To>
 321:/opt/homebrew/Cellar/arm-none-eabi-gcc/10.3-2021.07/gcc/arm-none-eabi/include/c++/10.3.1/bits/stl_algobase.h ****     _GLIBCXX20_CONSTEXPR
 322:/opt/homebrew/Cellar/arm-none-eabi-gcc/10.3-2021.07/gcc/arm-none-eabi/include/c++/10.3.1/bits/stl_algobase.h ****     inline _From
 323:/opt/homebrew/Cellar/arm-none-eabi-gcc/10.3-2021.07/gcc/arm-none-eabi/include/c++/10.3.1/bits/stl_algobase.h ****     __niter_wrap(_From __from, _To __res)
 324:/opt/homebrew/Cellar/arm-none-eabi-gcc/10.3-2021.07/gcc/arm-none-eabi/include/c++/10.3.1/bits/stl_algobase.h ****     { return __from + (__res - std::__niter_base(__from)); }
 325:/opt/homebrew/Cellar/arm-none-eabi-gcc/10.3-2021.07/gcc/arm-none-eabi/include/c++/10.3.1/bits/stl_algobase.h **** 
 326:/opt/homebrew/Cellar/arm-none-eabi-gcc/10.3-2021.07/gcc/arm-none-eabi/include/c++/10.3.1/bits/stl_algobase.h ****   // No need to wrap, iterator already has the right type.
 327:/opt/homebrew/Cellar/arm-none-eabi-gcc/10.3-2021.07/gcc/arm-none-eabi/include/c++/10.3.1/bits/stl_algobase.h ****   template<typename _Iterator>
 328:/opt/homebrew/Cellar/arm-none-eabi-gcc/10.3-2021.07/gcc/arm-none-eabi/include/c++/10.3.1/bits/stl_algobase.h ****     _GLIBCXX20_CONSTEXPR
 329:/opt/homebrew/Cellar/arm-none-eabi-gcc/10.3-2021.07/gcc/arm-none-eabi/include/c++/10.3.1/bits/stl_algobase.h ****     inline _Iterator
 330:/opt/homebrew/Cellar/arm-none-eabi-gcc/10.3-2021.07/gcc/arm-none-eabi/include/c++/10.3.1/bits/stl_algobase.h ****     __niter_wrap(const _Iterator&, _Iterator __res)
 331:/opt/homebrew/Cellar/arm-none-eabi-gcc/10.3-2021.07/gcc/arm-none-eabi/include/c++/10.3.1/bits/stl_algobase.h ****     { return __res; }
 332:/opt/homebrew/Cellar/arm-none-eabi-gcc/10.3-2021.07/gcc/arm-none-eabi/include/c++/10.3.1/bits/stl_algobase.h **** 
 333:/opt/homebrew/Cellar/arm-none-eabi-gcc/10.3-2021.07/gcc/arm-none-eabi/include/c++/10.3.1/bits/stl_algobase.h ****   // All of these auxiliary structs serve two purposes.  (1) Replace
 334:/opt/homebrew/Cellar/arm-none-eabi-gcc/10.3-2021.07/gcc/arm-none-eabi/include/c++/10.3.1/bits/stl_algobase.h ****   // calls to copy with memmove whenever possible.  (Memmove, not memcpy,
ARM GAS  /var/folders/hl/qgbwny5j0fd895c2c41bk3tw0000gp/T//cc9kFYNb.s 			page 61


 335:/opt/homebrew/Cellar/arm-none-eabi-gcc/10.3-2021.07/gcc/arm-none-eabi/include/c++/10.3.1/bits/stl_algobase.h ****   // because the input and output ranges are permitted to overlap.)
 336:/opt/homebrew/Cellar/arm-none-eabi-gcc/10.3-2021.07/gcc/arm-none-eabi/include/c++/10.3.1/bits/stl_algobase.h ****   // (2) If we're using random access iterators, then write the loop as
 337:/opt/homebrew/Cellar/arm-none-eabi-gcc/10.3-2021.07/gcc/arm-none-eabi/include/c++/10.3.1/bits/stl_algobase.h ****   // a for loop with an explicit count.
 338:/opt/homebrew/Cellar/arm-none-eabi-gcc/10.3-2021.07/gcc/arm-none-eabi/include/c++/10.3.1/bits/stl_algobase.h **** 
 339:/opt/homebrew/Cellar/arm-none-eabi-gcc/10.3-2021.07/gcc/arm-none-eabi/include/c++/10.3.1/bits/stl_algobase.h ****   template<bool _IsMove, bool _IsSimple, typename _Category>
 340:/opt/homebrew/Cellar/arm-none-eabi-gcc/10.3-2021.07/gcc/arm-none-eabi/include/c++/10.3.1/bits/stl_algobase.h ****     struct __copy_move
 341:/opt/homebrew/Cellar/arm-none-eabi-gcc/10.3-2021.07/gcc/arm-none-eabi/include/c++/10.3.1/bits/stl_algobase.h ****     {
 342:/opt/homebrew/Cellar/arm-none-eabi-gcc/10.3-2021.07/gcc/arm-none-eabi/include/c++/10.3.1/bits/stl_algobase.h ****       template<typename _II, typename _OI>
 343:/opt/homebrew/Cellar/arm-none-eabi-gcc/10.3-2021.07/gcc/arm-none-eabi/include/c++/10.3.1/bits/stl_algobase.h **** 	_GLIBCXX20_CONSTEXPR
 344:/opt/homebrew/Cellar/arm-none-eabi-gcc/10.3-2021.07/gcc/arm-none-eabi/include/c++/10.3.1/bits/stl_algobase.h **** 	static _OI
 345:/opt/homebrew/Cellar/arm-none-eabi-gcc/10.3-2021.07/gcc/arm-none-eabi/include/c++/10.3.1/bits/stl_algobase.h **** 	__copy_m(_II __first, _II __last, _OI __result)
 346:/opt/homebrew/Cellar/arm-none-eabi-gcc/10.3-2021.07/gcc/arm-none-eabi/include/c++/10.3.1/bits/stl_algobase.h **** 	{
 347:/opt/homebrew/Cellar/arm-none-eabi-gcc/10.3-2021.07/gcc/arm-none-eabi/include/c++/10.3.1/bits/stl_algobase.h **** 	  for (; __first != __last; ++__result, (void)++__first)
 348:/opt/homebrew/Cellar/arm-none-eabi-gcc/10.3-2021.07/gcc/arm-none-eabi/include/c++/10.3.1/bits/stl_algobase.h **** 	    *__result = *__first;
 349:/opt/homebrew/Cellar/arm-none-eabi-gcc/10.3-2021.07/gcc/arm-none-eabi/include/c++/10.3.1/bits/stl_algobase.h **** 	  return __result;
 350:/opt/homebrew/Cellar/arm-none-eabi-gcc/10.3-2021.07/gcc/arm-none-eabi/include/c++/10.3.1/bits/stl_algobase.h **** 	}
 351:/opt/homebrew/Cellar/arm-none-eabi-gcc/10.3-2021.07/gcc/arm-none-eabi/include/c++/10.3.1/bits/stl_algobase.h ****     };
 352:/opt/homebrew/Cellar/arm-none-eabi-gcc/10.3-2021.07/gcc/arm-none-eabi/include/c++/10.3.1/bits/stl_algobase.h **** 
 353:/opt/homebrew/Cellar/arm-none-eabi-gcc/10.3-2021.07/gcc/arm-none-eabi/include/c++/10.3.1/bits/stl_algobase.h **** #if __cplusplus >= 201103L
 354:/opt/homebrew/Cellar/arm-none-eabi-gcc/10.3-2021.07/gcc/arm-none-eabi/include/c++/10.3.1/bits/stl_algobase.h ****   template<typename _Category>
 355:/opt/homebrew/Cellar/arm-none-eabi-gcc/10.3-2021.07/gcc/arm-none-eabi/include/c++/10.3.1/bits/stl_algobase.h ****     struct __copy_move<true, false, _Category>
 356:/opt/homebrew/Cellar/arm-none-eabi-gcc/10.3-2021.07/gcc/arm-none-eabi/include/c++/10.3.1/bits/stl_algobase.h ****     {
 357:/opt/homebrew/Cellar/arm-none-eabi-gcc/10.3-2021.07/gcc/arm-none-eabi/include/c++/10.3.1/bits/stl_algobase.h ****       template<typename _II, typename _OI>
 358:/opt/homebrew/Cellar/arm-none-eabi-gcc/10.3-2021.07/gcc/arm-none-eabi/include/c++/10.3.1/bits/stl_algobase.h **** 	_GLIBCXX20_CONSTEXPR
 359:/opt/homebrew/Cellar/arm-none-eabi-gcc/10.3-2021.07/gcc/arm-none-eabi/include/c++/10.3.1/bits/stl_algobase.h **** 	static _OI
 360:/opt/homebrew/Cellar/arm-none-eabi-gcc/10.3-2021.07/gcc/arm-none-eabi/include/c++/10.3.1/bits/stl_algobase.h **** 	__copy_m(_II __first, _II __last, _OI __result)
 361:/opt/homebrew/Cellar/arm-none-eabi-gcc/10.3-2021.07/gcc/arm-none-eabi/include/c++/10.3.1/bits/stl_algobase.h **** 	{
 362:/opt/homebrew/Cellar/arm-none-eabi-gcc/10.3-2021.07/gcc/arm-none-eabi/include/c++/10.3.1/bits/stl_algobase.h **** 	  for (; __first != __last; ++__result, (void)++__first)
 363:/opt/homebrew/Cellar/arm-none-eabi-gcc/10.3-2021.07/gcc/arm-none-eabi/include/c++/10.3.1/bits/stl_algobase.h **** 	    *__result = std::move(*__first);
 364:/opt/homebrew/Cellar/arm-none-eabi-gcc/10.3-2021.07/gcc/arm-none-eabi/include/c++/10.3.1/bits/stl_algobase.h **** 	  return __result;
 365:/opt/homebrew/Cellar/arm-none-eabi-gcc/10.3-2021.07/gcc/arm-none-eabi/include/c++/10.3.1/bits/stl_algobase.h **** 	}
 366:/opt/homebrew/Cellar/arm-none-eabi-gcc/10.3-2021.07/gcc/arm-none-eabi/include/c++/10.3.1/bits/stl_algobase.h ****     };
 367:/opt/homebrew/Cellar/arm-none-eabi-gcc/10.3-2021.07/gcc/arm-none-eabi/include/c++/10.3.1/bits/stl_algobase.h **** #endif
 368:/opt/homebrew/Cellar/arm-none-eabi-gcc/10.3-2021.07/gcc/arm-none-eabi/include/c++/10.3.1/bits/stl_algobase.h **** 
 369:/opt/homebrew/Cellar/arm-none-eabi-gcc/10.3-2021.07/gcc/arm-none-eabi/include/c++/10.3.1/bits/stl_algobase.h ****   template<>
 370:/opt/homebrew/Cellar/arm-none-eabi-gcc/10.3-2021.07/gcc/arm-none-eabi/include/c++/10.3.1/bits/stl_algobase.h ****     struct __copy_move<false, false, random_access_iterator_tag>
 371:/opt/homebrew/Cellar/arm-none-eabi-gcc/10.3-2021.07/gcc/arm-none-eabi/include/c++/10.3.1/bits/stl_algobase.h ****     {
 372:/opt/homebrew/Cellar/arm-none-eabi-gcc/10.3-2021.07/gcc/arm-none-eabi/include/c++/10.3.1/bits/stl_algobase.h ****       template<typename _II, typename _OI>
 373:/opt/homebrew/Cellar/arm-none-eabi-gcc/10.3-2021.07/gcc/arm-none-eabi/include/c++/10.3.1/bits/stl_algobase.h **** 	_GLIBCXX20_CONSTEXPR
 374:/opt/homebrew/Cellar/arm-none-eabi-gcc/10.3-2021.07/gcc/arm-none-eabi/include/c++/10.3.1/bits/stl_algobase.h **** 	static _OI
 375:/opt/homebrew/Cellar/arm-none-eabi-gcc/10.3-2021.07/gcc/arm-none-eabi/include/c++/10.3.1/bits/stl_algobase.h **** 	__copy_m(_II __first, _II __last, _OI __result)
 376:/opt/homebrew/Cellar/arm-none-eabi-gcc/10.3-2021.07/gcc/arm-none-eabi/include/c++/10.3.1/bits/stl_algobase.h **** 	{
 377:/opt/homebrew/Cellar/arm-none-eabi-gcc/10.3-2021.07/gcc/arm-none-eabi/include/c++/10.3.1/bits/stl_algobase.h **** 	  typedef typename iterator_traits<_II>::difference_type _Distance;
 378:/opt/homebrew/Cellar/arm-none-eabi-gcc/10.3-2021.07/gcc/arm-none-eabi/include/c++/10.3.1/bits/stl_algobase.h **** 	  for(_Distance __n = __last - __first; __n > 0; --__n)
 379:/opt/homebrew/Cellar/arm-none-eabi-gcc/10.3-2021.07/gcc/arm-none-eabi/include/c++/10.3.1/bits/stl_algobase.h **** 	    {
 380:/opt/homebrew/Cellar/arm-none-eabi-gcc/10.3-2021.07/gcc/arm-none-eabi/include/c++/10.3.1/bits/stl_algobase.h **** 	      *__result = *__first;
 381:/opt/homebrew/Cellar/arm-none-eabi-gcc/10.3-2021.07/gcc/arm-none-eabi/include/c++/10.3.1/bits/stl_algobase.h **** 	      ++__first;
 382:/opt/homebrew/Cellar/arm-none-eabi-gcc/10.3-2021.07/gcc/arm-none-eabi/include/c++/10.3.1/bits/stl_algobase.h **** 	      ++__result;
 383:/opt/homebrew/Cellar/arm-none-eabi-gcc/10.3-2021.07/gcc/arm-none-eabi/include/c++/10.3.1/bits/stl_algobase.h **** 	    }
 384:/opt/homebrew/Cellar/arm-none-eabi-gcc/10.3-2021.07/gcc/arm-none-eabi/include/c++/10.3.1/bits/stl_algobase.h **** 	  return __result;
 385:/opt/homebrew/Cellar/arm-none-eabi-gcc/10.3-2021.07/gcc/arm-none-eabi/include/c++/10.3.1/bits/stl_algobase.h **** 	}
 386:/opt/homebrew/Cellar/arm-none-eabi-gcc/10.3-2021.07/gcc/arm-none-eabi/include/c++/10.3.1/bits/stl_algobase.h ****     };
 387:/opt/homebrew/Cellar/arm-none-eabi-gcc/10.3-2021.07/gcc/arm-none-eabi/include/c++/10.3.1/bits/stl_algobase.h **** 
 388:/opt/homebrew/Cellar/arm-none-eabi-gcc/10.3-2021.07/gcc/arm-none-eabi/include/c++/10.3.1/bits/stl_algobase.h **** #if __cplusplus >= 201103L
 389:/opt/homebrew/Cellar/arm-none-eabi-gcc/10.3-2021.07/gcc/arm-none-eabi/include/c++/10.3.1/bits/stl_algobase.h ****   template<>
 390:/opt/homebrew/Cellar/arm-none-eabi-gcc/10.3-2021.07/gcc/arm-none-eabi/include/c++/10.3.1/bits/stl_algobase.h ****     struct __copy_move<true, false, random_access_iterator_tag>
 391:/opt/homebrew/Cellar/arm-none-eabi-gcc/10.3-2021.07/gcc/arm-none-eabi/include/c++/10.3.1/bits/stl_algobase.h ****     {
ARM GAS  /var/folders/hl/qgbwny5j0fd895c2c41bk3tw0000gp/T//cc9kFYNb.s 			page 62


 392:/opt/homebrew/Cellar/arm-none-eabi-gcc/10.3-2021.07/gcc/arm-none-eabi/include/c++/10.3.1/bits/stl_algobase.h ****       template<typename _II, typename _OI>
 393:/opt/homebrew/Cellar/arm-none-eabi-gcc/10.3-2021.07/gcc/arm-none-eabi/include/c++/10.3.1/bits/stl_algobase.h **** 	_GLIBCXX20_CONSTEXPR
 394:/opt/homebrew/Cellar/arm-none-eabi-gcc/10.3-2021.07/gcc/arm-none-eabi/include/c++/10.3.1/bits/stl_algobase.h **** 	static _OI
 395:/opt/homebrew/Cellar/arm-none-eabi-gcc/10.3-2021.07/gcc/arm-none-eabi/include/c++/10.3.1/bits/stl_algobase.h **** 	__copy_m(_II __first, _II __last, _OI __result)
 396:/opt/homebrew/Cellar/arm-none-eabi-gcc/10.3-2021.07/gcc/arm-none-eabi/include/c++/10.3.1/bits/stl_algobase.h **** 	{
 397:/opt/homebrew/Cellar/arm-none-eabi-gcc/10.3-2021.07/gcc/arm-none-eabi/include/c++/10.3.1/bits/stl_algobase.h **** 	  typedef typename iterator_traits<_II>::difference_type _Distance;
 398:/opt/homebrew/Cellar/arm-none-eabi-gcc/10.3-2021.07/gcc/arm-none-eabi/include/c++/10.3.1/bits/stl_algobase.h **** 	  for(_Distance __n = __last - __first; __n > 0; --__n)
 399:/opt/homebrew/Cellar/arm-none-eabi-gcc/10.3-2021.07/gcc/arm-none-eabi/include/c++/10.3.1/bits/stl_algobase.h **** 	    {
 400:/opt/homebrew/Cellar/arm-none-eabi-gcc/10.3-2021.07/gcc/arm-none-eabi/include/c++/10.3.1/bits/stl_algobase.h **** 	      *__result = std::move(*__first);
 401:/opt/homebrew/Cellar/arm-none-eabi-gcc/10.3-2021.07/gcc/arm-none-eabi/include/c++/10.3.1/bits/stl_algobase.h **** 	      ++__first;
 402:/opt/homebrew/Cellar/arm-none-eabi-gcc/10.3-2021.07/gcc/arm-none-eabi/include/c++/10.3.1/bits/stl_algobase.h **** 	      ++__result;
 403:/opt/homebrew/Cellar/arm-none-eabi-gcc/10.3-2021.07/gcc/arm-none-eabi/include/c++/10.3.1/bits/stl_algobase.h **** 	    }
 404:/opt/homebrew/Cellar/arm-none-eabi-gcc/10.3-2021.07/gcc/arm-none-eabi/include/c++/10.3.1/bits/stl_algobase.h **** 	  return __result;
 405:/opt/homebrew/Cellar/arm-none-eabi-gcc/10.3-2021.07/gcc/arm-none-eabi/include/c++/10.3.1/bits/stl_algobase.h **** 	}
 406:/opt/homebrew/Cellar/arm-none-eabi-gcc/10.3-2021.07/gcc/arm-none-eabi/include/c++/10.3.1/bits/stl_algobase.h ****     };
 407:/opt/homebrew/Cellar/arm-none-eabi-gcc/10.3-2021.07/gcc/arm-none-eabi/include/c++/10.3.1/bits/stl_algobase.h **** #endif
 408:/opt/homebrew/Cellar/arm-none-eabi-gcc/10.3-2021.07/gcc/arm-none-eabi/include/c++/10.3.1/bits/stl_algobase.h **** 
 409:/opt/homebrew/Cellar/arm-none-eabi-gcc/10.3-2021.07/gcc/arm-none-eabi/include/c++/10.3.1/bits/stl_algobase.h ****   template<bool _IsMove>
 410:/opt/homebrew/Cellar/arm-none-eabi-gcc/10.3-2021.07/gcc/arm-none-eabi/include/c++/10.3.1/bits/stl_algobase.h ****     struct __copy_move<_IsMove, true, random_access_iterator_tag>
 411:/opt/homebrew/Cellar/arm-none-eabi-gcc/10.3-2021.07/gcc/arm-none-eabi/include/c++/10.3.1/bits/stl_algobase.h ****     {
 412:/opt/homebrew/Cellar/arm-none-eabi-gcc/10.3-2021.07/gcc/arm-none-eabi/include/c++/10.3.1/bits/stl_algobase.h ****       template<typename _Tp>
 413:/opt/homebrew/Cellar/arm-none-eabi-gcc/10.3-2021.07/gcc/arm-none-eabi/include/c++/10.3.1/bits/stl_algobase.h **** 	_GLIBCXX20_CONSTEXPR
 414:/opt/homebrew/Cellar/arm-none-eabi-gcc/10.3-2021.07/gcc/arm-none-eabi/include/c++/10.3.1/bits/stl_algobase.h **** 	static _Tp*
 415:/opt/homebrew/Cellar/arm-none-eabi-gcc/10.3-2021.07/gcc/arm-none-eabi/include/c++/10.3.1/bits/stl_algobase.h **** 	__copy_m(const _Tp* __first, const _Tp* __last, _Tp* __result)
 416:/opt/homebrew/Cellar/arm-none-eabi-gcc/10.3-2021.07/gcc/arm-none-eabi/include/c++/10.3.1/bits/stl_algobase.h **** 	{
 417:/opt/homebrew/Cellar/arm-none-eabi-gcc/10.3-2021.07/gcc/arm-none-eabi/include/c++/10.3.1/bits/stl_algobase.h **** #if __cplusplus >= 201103L
 418:/opt/homebrew/Cellar/arm-none-eabi-gcc/10.3-2021.07/gcc/arm-none-eabi/include/c++/10.3.1/bits/stl_algobase.h **** 	  using __assignable = conditional<_IsMove,
 419:/opt/homebrew/Cellar/arm-none-eabi-gcc/10.3-2021.07/gcc/arm-none-eabi/include/c++/10.3.1/bits/stl_algobase.h **** 					   is_move_assignable<_Tp>,
 420:/opt/homebrew/Cellar/arm-none-eabi-gcc/10.3-2021.07/gcc/arm-none-eabi/include/c++/10.3.1/bits/stl_algobase.h **** 					   is_copy_assignable<_Tp>>;
 421:/opt/homebrew/Cellar/arm-none-eabi-gcc/10.3-2021.07/gcc/arm-none-eabi/include/c++/10.3.1/bits/stl_algobase.h **** 	  // trivial types can have deleted assignment
 422:/opt/homebrew/Cellar/arm-none-eabi-gcc/10.3-2021.07/gcc/arm-none-eabi/include/c++/10.3.1/bits/stl_algobase.h **** 	  static_assert( __assignable::type::value, "type is not assignable" );
 423:/opt/homebrew/Cellar/arm-none-eabi-gcc/10.3-2021.07/gcc/arm-none-eabi/include/c++/10.3.1/bits/stl_algobase.h **** #endif
 424:/opt/homebrew/Cellar/arm-none-eabi-gcc/10.3-2021.07/gcc/arm-none-eabi/include/c++/10.3.1/bits/stl_algobase.h **** 	  const ptrdiff_t _Num = __last - __first;
 425:/opt/homebrew/Cellar/arm-none-eabi-gcc/10.3-2021.07/gcc/arm-none-eabi/include/c++/10.3.1/bits/stl_algobase.h **** 	  if (_Num)
 426:/opt/homebrew/Cellar/arm-none-eabi-gcc/10.3-2021.07/gcc/arm-none-eabi/include/c++/10.3.1/bits/stl_algobase.h **** 	    __builtin_memmove(__result, __first, sizeof(_Tp) * _Num);
 427:/opt/homebrew/Cellar/arm-none-eabi-gcc/10.3-2021.07/gcc/arm-none-eabi/include/c++/10.3.1/bits/stl_algobase.h **** 	  return __result + _Num;
 428:/opt/homebrew/Cellar/arm-none-eabi-gcc/10.3-2021.07/gcc/arm-none-eabi/include/c++/10.3.1/bits/stl_algobase.h **** 	}
 429:/opt/homebrew/Cellar/arm-none-eabi-gcc/10.3-2021.07/gcc/arm-none-eabi/include/c++/10.3.1/bits/stl_algobase.h ****     };
 430:/opt/homebrew/Cellar/arm-none-eabi-gcc/10.3-2021.07/gcc/arm-none-eabi/include/c++/10.3.1/bits/stl_algobase.h **** 
 431:/opt/homebrew/Cellar/arm-none-eabi-gcc/10.3-2021.07/gcc/arm-none-eabi/include/c++/10.3.1/bits/stl_algobase.h ****   // Helpers for streambuf iterators (either istream or ostream).
 432:/opt/homebrew/Cellar/arm-none-eabi-gcc/10.3-2021.07/gcc/arm-none-eabi/include/c++/10.3.1/bits/stl_algobase.h ****   // NB: avoid including <iosfwd>, relatively large.
 433:/opt/homebrew/Cellar/arm-none-eabi-gcc/10.3-2021.07/gcc/arm-none-eabi/include/c++/10.3.1/bits/stl_algobase.h ****   template<typename _CharT>
 434:/opt/homebrew/Cellar/arm-none-eabi-gcc/10.3-2021.07/gcc/arm-none-eabi/include/c++/10.3.1/bits/stl_algobase.h ****     struct char_traits;
 435:/opt/homebrew/Cellar/arm-none-eabi-gcc/10.3-2021.07/gcc/arm-none-eabi/include/c++/10.3.1/bits/stl_algobase.h **** 
 436:/opt/homebrew/Cellar/arm-none-eabi-gcc/10.3-2021.07/gcc/arm-none-eabi/include/c++/10.3.1/bits/stl_algobase.h ****   template<typename _CharT, typename _Traits>
 437:/opt/homebrew/Cellar/arm-none-eabi-gcc/10.3-2021.07/gcc/arm-none-eabi/include/c++/10.3.1/bits/stl_algobase.h ****     class istreambuf_iterator;
 438:/opt/homebrew/Cellar/arm-none-eabi-gcc/10.3-2021.07/gcc/arm-none-eabi/include/c++/10.3.1/bits/stl_algobase.h **** 
 439:/opt/homebrew/Cellar/arm-none-eabi-gcc/10.3-2021.07/gcc/arm-none-eabi/include/c++/10.3.1/bits/stl_algobase.h ****   template<typename _CharT, typename _Traits>
 440:/opt/homebrew/Cellar/arm-none-eabi-gcc/10.3-2021.07/gcc/arm-none-eabi/include/c++/10.3.1/bits/stl_algobase.h ****     class ostreambuf_iterator;
 441:/opt/homebrew/Cellar/arm-none-eabi-gcc/10.3-2021.07/gcc/arm-none-eabi/include/c++/10.3.1/bits/stl_algobase.h **** 
 442:/opt/homebrew/Cellar/arm-none-eabi-gcc/10.3-2021.07/gcc/arm-none-eabi/include/c++/10.3.1/bits/stl_algobase.h ****   template<bool _IsMove, typename _CharT>
 443:/opt/homebrew/Cellar/arm-none-eabi-gcc/10.3-2021.07/gcc/arm-none-eabi/include/c++/10.3.1/bits/stl_algobase.h ****     typename __gnu_cxx::__enable_if<__is_char<_CharT>::__value,
 444:/opt/homebrew/Cellar/arm-none-eabi-gcc/10.3-2021.07/gcc/arm-none-eabi/include/c++/10.3.1/bits/stl_algobase.h **** 	     ostreambuf_iterator<_CharT, char_traits<_CharT> > >::__type
 445:/opt/homebrew/Cellar/arm-none-eabi-gcc/10.3-2021.07/gcc/arm-none-eabi/include/c++/10.3.1/bits/stl_algobase.h ****     __copy_move_a2(_CharT*, _CharT*,
 446:/opt/homebrew/Cellar/arm-none-eabi-gcc/10.3-2021.07/gcc/arm-none-eabi/include/c++/10.3.1/bits/stl_algobase.h **** 		   ostreambuf_iterator<_CharT, char_traits<_CharT> >);
 447:/opt/homebrew/Cellar/arm-none-eabi-gcc/10.3-2021.07/gcc/arm-none-eabi/include/c++/10.3.1/bits/stl_algobase.h **** 
 448:/opt/homebrew/Cellar/arm-none-eabi-gcc/10.3-2021.07/gcc/arm-none-eabi/include/c++/10.3.1/bits/stl_algobase.h ****   template<bool _IsMove, typename _CharT>
ARM GAS  /var/folders/hl/qgbwny5j0fd895c2c41bk3tw0000gp/T//cc9kFYNb.s 			page 63


 449:/opt/homebrew/Cellar/arm-none-eabi-gcc/10.3-2021.07/gcc/arm-none-eabi/include/c++/10.3.1/bits/stl_algobase.h ****     typename __gnu_cxx::__enable_if<__is_char<_CharT>::__value,
 450:/opt/homebrew/Cellar/arm-none-eabi-gcc/10.3-2021.07/gcc/arm-none-eabi/include/c++/10.3.1/bits/stl_algobase.h **** 	     ostreambuf_iterator<_CharT, char_traits<_CharT> > >::__type
 451:/opt/homebrew/Cellar/arm-none-eabi-gcc/10.3-2021.07/gcc/arm-none-eabi/include/c++/10.3.1/bits/stl_algobase.h ****     __copy_move_a2(const _CharT*, const _CharT*,
 452:/opt/homebrew/Cellar/arm-none-eabi-gcc/10.3-2021.07/gcc/arm-none-eabi/include/c++/10.3.1/bits/stl_algobase.h **** 		   ostreambuf_iterator<_CharT, char_traits<_CharT> >);
 453:/opt/homebrew/Cellar/arm-none-eabi-gcc/10.3-2021.07/gcc/arm-none-eabi/include/c++/10.3.1/bits/stl_algobase.h **** 
 454:/opt/homebrew/Cellar/arm-none-eabi-gcc/10.3-2021.07/gcc/arm-none-eabi/include/c++/10.3.1/bits/stl_algobase.h ****   template<bool _IsMove, typename _CharT>
 455:/opt/homebrew/Cellar/arm-none-eabi-gcc/10.3-2021.07/gcc/arm-none-eabi/include/c++/10.3.1/bits/stl_algobase.h ****     typename __gnu_cxx::__enable_if<__is_char<_CharT>::__value,
 456:/opt/homebrew/Cellar/arm-none-eabi-gcc/10.3-2021.07/gcc/arm-none-eabi/include/c++/10.3.1/bits/stl_algobase.h **** 				    _CharT*>::__type
 457:/opt/homebrew/Cellar/arm-none-eabi-gcc/10.3-2021.07/gcc/arm-none-eabi/include/c++/10.3.1/bits/stl_algobase.h ****     __copy_move_a2(istreambuf_iterator<_CharT, char_traits<_CharT> >,
 458:/opt/homebrew/Cellar/arm-none-eabi-gcc/10.3-2021.07/gcc/arm-none-eabi/include/c++/10.3.1/bits/stl_algobase.h **** 		   istreambuf_iterator<_CharT, char_traits<_CharT> >, _CharT*);
 459:/opt/homebrew/Cellar/arm-none-eabi-gcc/10.3-2021.07/gcc/arm-none-eabi/include/c++/10.3.1/bits/stl_algobase.h **** 
 460:/opt/homebrew/Cellar/arm-none-eabi-gcc/10.3-2021.07/gcc/arm-none-eabi/include/c++/10.3.1/bits/stl_algobase.h ****   template<bool _IsMove, typename _II, typename _OI>
 461:/opt/homebrew/Cellar/arm-none-eabi-gcc/10.3-2021.07/gcc/arm-none-eabi/include/c++/10.3.1/bits/stl_algobase.h ****     _GLIBCXX20_CONSTEXPR
 462:/opt/homebrew/Cellar/arm-none-eabi-gcc/10.3-2021.07/gcc/arm-none-eabi/include/c++/10.3.1/bits/stl_algobase.h ****     inline _OI
