ARM GAS  /var/folders/hl/qgbwny5j0fd895c2c41bk3tw0000gp/T//cceIFtrC.s 			page 1


   1              		.cpu cortex-m7
   2              		.eabi_attribute 28, 1
   3              		.eabi_attribute 20, 1
   4              		.eabi_attribute 21, 1
   5              		.eabi_attribute 23, 3
   6              		.eabi_attribute 24, 1
   7              		.eabi_attribute 25, 1
   8              		.eabi_attribute 26, 1
   9              		.eabi_attribute 30, 2
  10              		.eabi_attribute 34, 1
  11              		.eabi_attribute 18, 4
  12              		.file	"ifft.cpp"
  13              		.text
  14              	.Ltext0:
  15              		.cfi_sections	.debug_frame
  16              		.section	.text._ZN5daisy8patch_sm12DaisyPatchSMD2Ev,"axG",%progbits,_ZN5daisy8patch_sm12DaisyPatch
  17              		.align	1
  18              		.p2align 2,,3
  19              		.weak	_ZN5daisy8patch_sm12DaisyPatchSMD2Ev
  20              		.arch armv7e-m
  21              		.syntax unified
  22              		.thumb
  23              		.thumb_func
  24              		.fpu fpv5-d16
  26              	_ZN5daisy8patch_sm12DaisyPatchSMD2Ev:
  27              	.LVL0:
  28              	.LFB2529:
  29              		.file 1 "../../libDaisy//src/daisy_patch_sm.h"
   1:../../libDaisy//src/daisy_patch_sm.h **** #pragma once
   2:../../libDaisy//src/daisy_patch_sm.h **** 
   3:../../libDaisy//src/daisy_patch_sm.h **** #include "daisy.h"
   4:../../libDaisy//src/daisy_patch_sm.h **** 
   5:../../libDaisy//src/daisy_patch_sm.h **** namespace daisy
   6:../../libDaisy//src/daisy_patch_sm.h **** {
   7:../../libDaisy//src/daisy_patch_sm.h **** namespace patch_sm
   8:../../libDaisy//src/daisy_patch_sm.h **** {
   9:../../libDaisy//src/daisy_patch_sm.h ****     /** Accessors for the Analog Controls. 
  10:../../libDaisy//src/daisy_patch_sm.h ****      *  These cover the 8x Bipolar CV inputs
  11:../../libDaisy//src/daisy_patch_sm.h ****      *  as well as the 4x 0-3V3 ADC inputs on
  12:../../libDaisy//src/daisy_patch_sm.h ****      *  the hardware 
  13:../../libDaisy//src/daisy_patch_sm.h ****      * 
  14:../../libDaisy//src/daisy_patch_sm.h ****      *  When reading a value with DaisyPatchSM::GetAdcValue()
  15:../../libDaisy//src/daisy_patch_sm.h ****      * 
  16:../../libDaisy//src/daisy_patch_sm.h ****      *  patch.GetAdcValue(patch_sm::CV_1);
  17:../../libDaisy//src/daisy_patch_sm.h ****      */
  18:../../libDaisy//src/daisy_patch_sm.h ****     enum
  19:../../libDaisy//src/daisy_patch_sm.h ****     {
  20:../../libDaisy//src/daisy_patch_sm.h ****         CV_1 = 0,
  21:../../libDaisy//src/daisy_patch_sm.h ****         CV_2,
  22:../../libDaisy//src/daisy_patch_sm.h ****         CV_3,
  23:../../libDaisy//src/daisy_patch_sm.h ****         CV_4,
  24:../../libDaisy//src/daisy_patch_sm.h ****         CV_5,
  25:../../libDaisy//src/daisy_patch_sm.h ****         CV_6,
  26:../../libDaisy//src/daisy_patch_sm.h ****         CV_7,
  27:../../libDaisy//src/daisy_patch_sm.h ****         CV_8,
  28:../../libDaisy//src/daisy_patch_sm.h ****         ADC_9,
  29:../../libDaisy//src/daisy_patch_sm.h ****         ADC_10,
ARM GAS  /var/folders/hl/qgbwny5j0fd895c2c41bk3tw0000gp/T//cceIFtrC.s 			page 2


  30:../../libDaisy//src/daisy_patch_sm.h ****         ADC_11,
  31:../../libDaisy//src/daisy_patch_sm.h ****         ADC_12,
  32:../../libDaisy//src/daisy_patch_sm.h ****         ADC_LAST,
  33:../../libDaisy//src/daisy_patch_sm.h ****     };
  34:../../libDaisy//src/daisy_patch_sm.h **** 
  35:../../libDaisy//src/daisy_patch_sm.h ****     /** Enum for addressing the CV Outputs via the WriteCvOut function. */
  36:../../libDaisy//src/daisy_patch_sm.h ****     enum
  37:../../libDaisy//src/daisy_patch_sm.h ****     {
  38:../../libDaisy//src/daisy_patch_sm.h ****         CV_OUT_BOTH = 0,
  39:../../libDaisy//src/daisy_patch_sm.h ****         CV_OUT_1,
  40:../../libDaisy//src/daisy_patch_sm.h ****         CV_OUT_2,
  41:../../libDaisy//src/daisy_patch_sm.h ****     };
  42:../../libDaisy//src/daisy_patch_sm.h **** 
  43:../../libDaisy//src/daisy_patch_sm.h **** 
  44:../../libDaisy//src/daisy_patch_sm.h ****     /** @brief Board support file for DaisyPatchSM hardware
  45:../../libDaisy//src/daisy_patch_sm.h ****      *  @author shensley
  46:../../libDaisy//src/daisy_patch_sm.h ****      *  @ingroup boards
  47:../../libDaisy//src/daisy_patch_sm.h ****      * 
  48:../../libDaisy//src/daisy_patch_sm.h ****      *  Daisy Patch SM is a complete Eurorack module DSP engine.
  49:../../libDaisy//src/daisy_patch_sm.h ****      *  Based on the Daisy Seed, with circuits added for 
  50:../../libDaisy//src/daisy_patch_sm.h ****      *  interfacing directly with eurorack modular synthesizers.
  51:../../libDaisy//src/daisy_patch_sm.h ****      */
  52:../../libDaisy//src/daisy_patch_sm.h ****     class DaisyPatchSM
  53:../../libDaisy//src/daisy_patch_sm.h ****     {
  54:../../libDaisy//src/daisy_patch_sm.h ****       public:
  55:../../libDaisy//src/daisy_patch_sm.h ****         /** Helper for mapping pins, and accessing them using the `GetPin` function */
  56:../../libDaisy//src/daisy_patch_sm.h ****         enum class PinBank
  57:../../libDaisy//src/daisy_patch_sm.h ****         {
  58:../../libDaisy//src/daisy_patch_sm.h ****             A,
  59:../../libDaisy//src/daisy_patch_sm.h ****             B,
  60:../../libDaisy//src/daisy_patch_sm.h ****             C,
  61:../../libDaisy//src/daisy_patch_sm.h ****             D
  62:../../libDaisy//src/daisy_patch_sm.h ****         };
  63:../../libDaisy//src/daisy_patch_sm.h **** 
  64:../../libDaisy//src/daisy_patch_sm.h ****         DaisyPatchSM() {}
  65:../../libDaisy//src/daisy_patch_sm.h ****         ~DaisyPatchSM() {}
  30              		.loc 1 65 9 view -0
  31              		.cfi_startproc
  32              		@ args = 0, pretend = 0, frame = 0
  33              		@ frame_needed = 0, uses_anonymous_args = 0
  34              		@ link register save eliminated.
  35              	.LBB478:
  36              	.LBI478:
  37              		.file 2 "../../libDaisy//src/hid/gatein.h"
   1:../../libDaisy//src/hid/gatein.h **** #pragma once
   2:../../libDaisy//src/hid/gatein.h **** #ifndef DSY_GATEIN_H
   3:../../libDaisy//src/hid/gatein.h **** #define DSY_GATEIN_H
   4:../../libDaisy//src/hid/gatein.h **** #include "per/gpio.h"
   5:../../libDaisy//src/hid/gatein.h **** 
   6:../../libDaisy//src/hid/gatein.h **** namespace daisy
   7:../../libDaisy//src/hid/gatein.h **** {
   8:../../libDaisy//src/hid/gatein.h **** /**
   9:../../libDaisy//src/hid/gatein.h ****    @brief Generic Class for handling gate inputs through GPIO.
  10:../../libDaisy//src/hid/gatein.h ****    @author Stephen Hensley
  11:../../libDaisy//src/hid/gatein.h ****    @date    March 2020
  12:../../libDaisy//src/hid/gatein.h ****    @ingroup controls
  13:../../libDaisy//src/hid/gatein.h **** */
ARM GAS  /var/folders/hl/qgbwny5j0fd895c2c41bk3tw0000gp/T//cceIFtrC.s 			page 3


  14:../../libDaisy//src/hid/gatein.h **** class GateIn
  15:../../libDaisy//src/hid/gatein.h **** {
  16:../../libDaisy//src/hid/gatein.h ****   public:
  17:../../libDaisy//src/hid/gatein.h ****     /** GateIn 
  18:../../libDaisy//src/hid/gatein.h ****     Constructor 
  19:../../libDaisy//src/hid/gatein.h ****     */
  20:../../libDaisy//src/hid/gatein.h ****     GateIn() {}
  21:../../libDaisy//src/hid/gatein.h ****     /** GateIn~
  22:../../libDaisy//src/hid/gatein.h ****     Destructor 
  23:../../libDaisy//src/hid/gatein.h ****     */
  24:../../libDaisy//src/hid/gatein.h ****     ~GateIn() {}
  38              		.loc 2 24 5 view .LVU1
  39              		.loc 2 24 5 is_stmt 0 view .LVU2
  40              	.LBE478:
  41              	.LBB479:
  42              	.LBI479:
  43              		.loc 2 24 5 is_stmt 1 view .LVU3
  44              		.loc 2 24 5 is_stmt 0 view .LVU4
  45              	.LBE479:
  46              	.LBB480:
  47              	.LBI480:
  48              		.file 3 "../../libDaisy//src/dev/codec_pcm3060.h"
   1:../../libDaisy//src/dev/codec_pcm3060.h **** #pragma once
   2:../../libDaisy//src/dev/codec_pcm3060.h **** #ifndef DSY_CODEC_PCM3060_H
   3:../../libDaisy//src/dev/codec_pcm3060.h **** #define DSY_CODEC_PCM3060_H
   4:../../libDaisy//src/dev/codec_pcm3060.h **** #include "per/i2c.h"
   5:../../libDaisy//src/dev/codec_pcm3060.h **** namespace daisy
   6:../../libDaisy//src/dev/codec_pcm3060.h **** {
   7:../../libDaisy//src/dev/codec_pcm3060.h **** /**
   8:../../libDaisy//src/dev/codec_pcm3060.h ****  * @brief Driver for the TI PCM3060 Audio Codec.
   9:../../libDaisy//src/dev/codec_pcm3060.h ****  * @addtogroup codec
  10:../../libDaisy//src/dev/codec_pcm3060.h ****  * 
  11:../../libDaisy//src/dev/codec_pcm3060.h ****  * For now this is a limited interface that uses I2C to communicate with the PCM3060
  12:../../libDaisy//src/dev/codec_pcm3060.h ****  * The device can also be accessed with SPI, which is not yet supported.
  13:../../libDaisy//src/dev/codec_pcm3060.h ****  * 
  14:../../libDaisy//src/dev/codec_pcm3060.h ****  * For now all registers are set to their defaults, and the Init function will 
  15:../../libDaisy//src/dev/codec_pcm3060.h ****  * perform a MRST and SRST before setting the format to 24bit LJ, and disabling 
  16:../../libDaisy//src/dev/codec_pcm3060.h ****  * power save for both the ADC and DAC.
  17:../../libDaisy//src/dev/codec_pcm3060.h ****  *
  18:../../libDaisy//src/dev/codec_pcm3060.h ****  */
  19:../../libDaisy//src/dev/codec_pcm3060.h **** class Pcm3060
  20:../../libDaisy//src/dev/codec_pcm3060.h **** {
  21:../../libDaisy//src/dev/codec_pcm3060.h ****   public:
  22:../../libDaisy//src/dev/codec_pcm3060.h ****     enum class Result
  23:../../libDaisy//src/dev/codec_pcm3060.h ****     {
  24:../../libDaisy//src/dev/codec_pcm3060.h ****         OK,
  25:../../libDaisy//src/dev/codec_pcm3060.h ****         ERR,
  26:../../libDaisy//src/dev/codec_pcm3060.h ****     };
  27:../../libDaisy//src/dev/codec_pcm3060.h **** 
  28:../../libDaisy//src/dev/codec_pcm3060.h ****     Pcm3060() {}
  29:../../libDaisy//src/dev/codec_pcm3060.h ****     ~Pcm3060() {}
  49              		.loc 3 29 5 is_stmt 1 view .LVU5
  50              		.loc 3 29 5 is_stmt 0 view .LVU6
  51              	.LBE480:
  52              	.LBB481:
  53              	.LBI481:
  54              		.file 4 "../../libDaisy//src/hid/usb.h"
ARM GAS  /var/folders/hl/qgbwny5j0fd895c2c41bk3tw0000gp/T//cceIFtrC.s 			page 4


   1:../../libDaisy//src/hid/usb.h **** #pragma once
   2:../../libDaisy//src/hid/usb.h **** #ifndef DSY_HID_USB_H
   3:../../libDaisy//src/hid/usb.h **** #define DSY_HID_USB_H
   4:../../libDaisy//src/hid/usb.h **** #include <stdint.h>
   5:../../libDaisy//src/hid/usb.h **** #include <stdlib.h>
   6:../../libDaisy//src/hid/usb.h **** 
   7:../../libDaisy//src/hid/usb.h **** namespace daisy
   8:../../libDaisy//src/hid/usb.h **** /** @addtogroup human_interface
   9:../../libDaisy//src/hid/usb.h ****     @{
  10:../../libDaisy//src/hid/usb.h **** */
  11:../../libDaisy//src/hid/usb.h **** 
  12:../../libDaisy//src/hid/usb.h **** {
  13:../../libDaisy//src/hid/usb.h **** /** 
  14:../../libDaisy//src/hid/usb.h ****     @brief Interface for initializing and using the USB Peripherals on the daisy
  15:../../libDaisy//src/hid/usb.h ****     @author Stephen Hensley
  16:../../libDaisy//src/hid/usb.h ****     @date December 2019
  17:../../libDaisy//src/hid/usb.h **** */
  18:../../libDaisy//src/hid/usb.h **** class UsbHandle
  19:../../libDaisy//src/hid/usb.h **** {
  20:../../libDaisy//src/hid/usb.h ****   public:
  21:../../libDaisy//src/hid/usb.h ****     /** Return values for USBHandle Functions */
  22:../../libDaisy//src/hid/usb.h ****     enum class Result
  23:../../libDaisy//src/hid/usb.h ****     {
  24:../../libDaisy//src/hid/usb.h ****         OK,
  25:../../libDaisy//src/hid/usb.h ****         ERR,
  26:../../libDaisy//src/hid/usb.h ****     };
  27:../../libDaisy//src/hid/usb.h **** 
  28:../../libDaisy//src/hid/usb.h ****     /** Specified which of the two USB Peripherals to initialize. */
  29:../../libDaisy//src/hid/usb.h ****     enum UsbPeriph
  30:../../libDaisy//src/hid/usb.h ****     {
  31:../../libDaisy//src/hid/usb.h ****         FS_INTERNAL, /**< Internal pin */
  32:../../libDaisy//src/hid/usb.h ****         FS_EXTERNAL, /**< FS External D+ pin is Pin 38 (GPIO32). FS External D- pin is Pin 37 (GPIO
  33:../../libDaisy//src/hid/usb.h ****         FS_BOTH,     /**< Both */
  34:../../libDaisy//src/hid/usb.h ****     };
  35:../../libDaisy//src/hid/usb.h **** 
  36:../../libDaisy//src/hid/usb.h **** 
  37:../../libDaisy//src/hid/usb.h ****     /** Function called upon reception of a buffer */
  38:../../libDaisy//src/hid/usb.h ****     typedef void (*ReceiveCallback)(uint8_t* buff, uint32_t* len);
  39:../../libDaisy//src/hid/usb.h **** 
  40:../../libDaisy//src/hid/usb.h ****     UsbHandle() {}
  41:../../libDaisy//src/hid/usb.h **** 
  42:../../libDaisy//src/hid/usb.h ****     ~UsbHandle() {}
  55              		.loc 4 42 5 is_stmt 1 view .LVU7
  56              		.loc 4 42 5 is_stmt 0 view .LVU8
  57              	.LBE481:
  58              	.LBB482:
  59              	.LBI482:
  60              		.file 5 "../../libDaisy//src/per/adc.h"
   1:../../libDaisy//src/per/adc.h **** #pragma once
   2:../../libDaisy//src/per/adc.h **** #ifndef DSY_ADC_H
   3:../../libDaisy//src/per/adc.h **** #define DSY_ADC_H /**< Macro */
   4:../../libDaisy//src/per/adc.h **** #include <stdint.h>
   5:../../libDaisy//src/per/adc.h **** #include <stdlib.h>
   6:../../libDaisy//src/per/adc.h **** #include "daisy_core.h"
   7:../../libDaisy//src/per/adc.h **** #include "per/gpio.h"
   8:../../libDaisy//src/per/adc.h **** 
   9:../../libDaisy//src/per/adc.h **** #define DSY_ADC_MAX_CHANNELS 16 /**< Maximum number of ADC channels */
ARM GAS  /var/folders/hl/qgbwny5j0fd895c2c41bk3tw0000gp/T//cceIFtrC.s 			page 5


  10:../../libDaisy//src/per/adc.h **** 
  11:../../libDaisy//src/per/adc.h **** namespace daisy
  12:../../libDaisy//src/per/adc.h **** {
  13:../../libDaisy//src/per/adc.h **** /** @addtogroup per_analog
  14:../../libDaisy//src/per/adc.h ****     @{
  15:../../libDaisy//src/per/adc.h **** */
  16:../../libDaisy//src/per/adc.h **** 
  17:../../libDaisy//src/per/adc.h **** /* While there may not be many configuration options here,
  18:../../libDaisy//src/per/adc.h **** using a struct like this allows us to add more configuration
  19:../../libDaisy//src/per/adc.h **** later without breaking existing functionality.
  20:../../libDaisy//src/per/adc.h **** */
  21:../../libDaisy//src/per/adc.h **** 
  22:../../libDaisy//src/per/adc.h **** /** @brief   Configuration Structure for an ADC Channel 
  23:../../libDaisy//src/per/adc.h ****  *  @details This can be used to configure a a single input, 
  24:../../libDaisy//src/per/adc.h ****  *           or a multiplexed input, allowing up to 8 inputs on 
  25:../../libDaisy//src/per/adc.h ****  *           one channel.
  26:../../libDaisy//src/per/adc.h ****  *  @note    Sharing data lines to multiple muxes _is_ possible, but
  27:../../libDaisy//src/per/adc.h ****  *           each channel sharing data lines must be set to the maximum
  28:../../libDaisy//src/per/adc.h ****  *           number of channels, even if some multiplexers have fewer
  29:../../libDaisy//src/per/adc.h ****  *           inputs connected.
  30:../../libDaisy//src/per/adc.h **** */
  31:../../libDaisy//src/per/adc.h **** struct AdcChannelConfig
  32:../../libDaisy//src/per/adc.h **** {
  33:../../libDaisy//src/per/adc.h ****     /** Which pin to use for multiplexing */
  34:../../libDaisy//src/per/adc.h ****     enum MuxPin
  35:../../libDaisy//src/per/adc.h ****     {
  36:../../libDaisy//src/per/adc.h ****         MUX_SEL_0,    /**< & */
  37:../../libDaisy//src/per/adc.h ****         MUX_SEL_1,    /**< & */
  38:../../libDaisy//src/per/adc.h ****         MUX_SEL_2,    /**< & */
  39:../../libDaisy//src/per/adc.h ****         MUX_SEL_LAST, /**< & */
  40:../../libDaisy//src/per/adc.h ****     };
  41:../../libDaisy//src/per/adc.h **** 
  42:../../libDaisy//src/per/adc.h ****     /** Initializes a single ADC pin as an ADC. 
  43:../../libDaisy//src/per/adc.h ****     \param pin Pin to init.
  44:../../libDaisy//src/per/adc.h ****      */
  45:../../libDaisy//src/per/adc.h ****     void InitSingle(dsy_gpio_pin pin);
  46:../../libDaisy//src/per/adc.h **** 
  47:../../libDaisy//src/per/adc.h ****     /** 
  48:../../libDaisy//src/per/adc.h ****     Initializes a single ADC pin as a Multiplexed ADC.
  49:../../libDaisy//src/per/adc.h ****     Requires a CD405X Multiplexer connected to the pin.
  50:../../libDaisy//src/per/adc.h ****     You only need to supply the mux pins that are required,
  51:../../libDaisy//src/per/adc.h ****     e.g. a 4052 mux would only require mux_0 and mux_1.
  52:../../libDaisy//src/per/adc.h ****     Internal Callbacks handle the pin addressing.
  53:../../libDaisy//src/per/adc.h ****     \param mux_channels must be 1-8
  54:../../libDaisy//src/per/adc.h ****     \param mux_0 First mux pin
  55:../../libDaisy//src/per/adc.h ****     \param mux_1 Second mux pin
  56:../../libDaisy//src/per/adc.h ****     \param mux_2 Third mux pin
  57:../../libDaisy//src/per/adc.h ****     \param adc_pin &
  58:../../libDaisy//src/per/adc.h ****     */
  59:../../libDaisy//src/per/adc.h ****     void InitMux(dsy_gpio_pin adc_pin,
  60:../../libDaisy//src/per/adc.h ****                  size_t       mux_channels,
  61:../../libDaisy//src/per/adc.h ****                  dsy_gpio_pin mux_0,
  62:../../libDaisy//src/per/adc.h ****                  dsy_gpio_pin mux_1 = {DSY_GPIOX, 0},
  63:../../libDaisy//src/per/adc.h ****                  dsy_gpio_pin mux_2 = {DSY_GPIOX, 0});
  64:../../libDaisy//src/per/adc.h **** 
  65:../../libDaisy//src/per/adc.h ****     dsy_gpio pin_;                   /**< & */
  66:../../libDaisy//src/per/adc.h ****     dsy_gpio mux_pin_[MUX_SEL_LAST]; /**< & */
ARM GAS  /var/folders/hl/qgbwny5j0fd895c2c41bk3tw0000gp/T//cceIFtrC.s 			page 6


  67:../../libDaisy//src/per/adc.h ****     uint8_t  mux_channels_;          /**< & */
  68:../../libDaisy//src/per/adc.h **** };
  69:../../libDaisy//src/per/adc.h **** 
  70:../../libDaisy//src/per/adc.h **** /**
  71:../../libDaisy//src/per/adc.h ****    @brief Handler for analog to digital conversion
  72:../../libDaisy//src/per/adc.h **** */
  73:../../libDaisy//src/per/adc.h **** class AdcHandle
  74:../../libDaisy//src/per/adc.h **** {
  75:../../libDaisy//src/per/adc.h ****   public:
  76:../../libDaisy//src/per/adc.h ****     /** Supported oversampling amounts */
  77:../../libDaisy//src/per/adc.h ****     enum OverSampling
  78:../../libDaisy//src/per/adc.h ****     {
  79:../../libDaisy//src/per/adc.h ****         OVS_NONE, /**< & */
  80:../../libDaisy//src/per/adc.h ****         OVS_4,    /**< & */
  81:../../libDaisy//src/per/adc.h ****         OVS_8,    /**< & */
  82:../../libDaisy//src/per/adc.h ****         OVS_16,   /**< & */
  83:../../libDaisy//src/per/adc.h ****         OVS_32,   /**< & */
  84:../../libDaisy//src/per/adc.h ****         OVS_64,   /**< & */
  85:../../libDaisy//src/per/adc.h ****         OVS_128,  /**< & */
  86:../../libDaisy//src/per/adc.h ****         OVS_256,  /**< & */
  87:../../libDaisy//src/per/adc.h ****         OVS_512,  /**< & */
  88:../../libDaisy//src/per/adc.h ****         OVS_1024, /**< & */
  89:../../libDaisy//src/per/adc.h ****         OVS_LAST, /**< & */
  90:../../libDaisy//src/per/adc.h ****     };
  91:../../libDaisy//src/per/adc.h **** 
  92:../../libDaisy//src/per/adc.h ****     AdcHandle() {}
  93:../../libDaisy//src/per/adc.h ****     ~AdcHandle() {}
  61              		.loc 5 93 5 is_stmt 1 view .LVU9
  62              		.loc 5 93 5 is_stmt 0 view .LVU10
  63              	.LBE482:
  64              	.LBB483:
  65              	.LBI483:
  66              		.file 6 "../../libDaisy//src/hid/audio.h"
   1:../../libDaisy//src/hid/audio.h **** #ifndef DSY_AUDIO_H
   2:../../libDaisy//src/hid/audio.h **** #define DSY_AUDIO_H /**< & */
   3:../../libDaisy//src/hid/audio.h **** 
   4:../../libDaisy//src/hid/audio.h **** #include "per/sai.h"
   5:../../libDaisy//src/hid/audio.h **** 
   6:../../libDaisy//src/hid/audio.h **** namespace daisy
   7:../../libDaisy//src/hid/audio.h **** {
   8:../../libDaisy//src/hid/audio.h **** /** @brief Audio Engine Handle
   9:../../libDaisy//src/hid/audio.h ****  *  @ingroup audio 
  10:../../libDaisy//src/hid/audio.h ****  *  @details This class allows for higher level access to an audio engine.
  11:../../libDaisy//src/hid/audio.h ****  *           If you're using a SOM like the DaisySeed or DaisyPatchSM (or any 
  12:../../libDaisy//src/hid/audio.h ****  *            board that includes one of those objects) then the intialization
  13:../../libDaisy//src/hid/audio.h ****  *            is already taken  care of.
  14:../../libDaisy//src/hid/audio.h ****  *           If you're setting up your own custom hardware, or need to make changes
  15:../../libDaisy//src/hid/audio.h ****  *           you will have to take the following steps:
  16:../../libDaisy//src/hid/audio.h ****  *             1. Create and Initialize an SaiHandle or two depending on your requirements
  17:../../libDaisy//src/hid/audio.h ****  *             2. Initialize the Audio Handle with the desired settings and the Initialized SaiHand
  18:../../libDaisy//src/hid/audio.h ****  *             3. If the connected codec requires special configuration or initialization, do so
  19:../../libDaisy//src/hid/audio.h ****  *             4. Write a callback method using either the AudioCallback or the InterleavingAudioCa
  20:../../libDaisy//src/hid/audio.h ****  *             5. Start the Audio using one of the StartAudio function
  21:../../libDaisy//src/hid/audio.h ****  */
  22:../../libDaisy//src/hid/audio.h **** class AudioHandle
  23:../../libDaisy//src/hid/audio.h **** {
  24:../../libDaisy//src/hid/audio.h ****   public:
ARM GAS  /var/folders/hl/qgbwny5j0fd895c2c41bk3tw0000gp/T//cceIFtrC.s 			page 7


  25:../../libDaisy//src/hid/audio.h ****     /** Manually configurable details about the Audio Engine */
  26:../../libDaisy//src/hid/audio.h ****     /** TODO: Figure out how to get samplerate in here. */
  27:../../libDaisy//src/hid/audio.h ****     struct Config
  28:../../libDaisy//src/hid/audio.h ****     {
  29:../../libDaisy//src/hid/audio.h ****         /** number of samples to process per callback */
  30:../../libDaisy//src/hid/audio.h ****         size_t blocksize;
  31:../../libDaisy//src/hid/audio.h **** 
  32:../../libDaisy//src/hid/audio.h ****         /**< Sample rate of audio */
  33:../../libDaisy//src/hid/audio.h ****         SaiHandle::Config::SampleRate samplerate;
  34:../../libDaisy//src/hid/audio.h **** 
  35:../../libDaisy//src/hid/audio.h ****         /** factor for adjustment before and after callback for hardware that may have extra headro
  36:../../libDaisy//src/hid/audio.h ****         float postgain;
  37:../../libDaisy//src/hid/audio.h **** 
  38:../../libDaisy//src/hid/audio.h ****         /** factor for additional one-sided compensation to audio path for hardware that may
  39:../../libDaisy//src/hid/audio.h ****          *  have unequal input/output ranges
  40:../../libDaisy//src/hid/audio.h ****          */
  41:../../libDaisy//src/hid/audio.h ****         float output_compensation;
  42:../../libDaisy//src/hid/audio.h **** 
  43:../../libDaisy//src/hid/audio.h ****         /** Sets default values for config struct */
  44:../../libDaisy//src/hid/audio.h ****         Config()
  45:../../libDaisy//src/hid/audio.h ****         : blocksize(48),
  46:../../libDaisy//src/hid/audio.h ****           samplerate(SaiHandle::Config::SampleRate::SAI_48KHZ),
  47:../../libDaisy//src/hid/audio.h ****           postgain(1.f),
  48:../../libDaisy//src/hid/audio.h ****           output_compensation(1.f)
  49:../../libDaisy//src/hid/audio.h ****         {
  50:../../libDaisy//src/hid/audio.h ****         }
  51:../../libDaisy//src/hid/audio.h ****     };
  52:../../libDaisy//src/hid/audio.h **** 
  53:../../libDaisy//src/hid/audio.h ****     enum class Result
  54:../../libDaisy//src/hid/audio.h ****     {
  55:../../libDaisy//src/hid/audio.h ****         OK,
  56:../../libDaisy//src/hid/audio.h ****         ERR,
  57:../../libDaisy//src/hid/audio.h ****     };
  58:../../libDaisy//src/hid/audio.h **** 
  59:../../libDaisy//src/hid/audio.h ****     /** Non-Interleaving input buffer
  60:../../libDaisy//src/hid/audio.h ****      * Buffer arranged by float[chn][sample] 
  61:../../libDaisy//src/hid/audio.h ****      * const so that the user can't modify the input
  62:../../libDaisy//src/hid/audio.h ****      */
  63:../../libDaisy//src/hid/audio.h ****     typedef const float* const* InputBuffer;
  64:../../libDaisy//src/hid/audio.h **** 
  65:../../libDaisy//src/hid/audio.h ****     /** Non-Interleaving output buffer
  66:../../libDaisy//src/hid/audio.h ****      * Arranged by float[chn][sample] 
  67:../../libDaisy//src/hid/audio.h ****      */
  68:../../libDaisy//src/hid/audio.h ****     typedef float** OutputBuffer;
  69:../../libDaisy//src/hid/audio.h **** 
  70:../../libDaisy//src/hid/audio.h ****     /** Type for a Non-Interleaving audio callback 
  71:../../libDaisy//src/hid/audio.h ****      * Non-Interleaving audio callbacks in daisy will be of this type
  72:../../libDaisy//src/hid/audio.h ****      */
  73:../../libDaisy//src/hid/audio.h ****     typedef void (*AudioCallback)(InputBuffer  in,
  74:../../libDaisy//src/hid/audio.h ****                                   OutputBuffer out,
  75:../../libDaisy//src/hid/audio.h ****                                   size_t       size);
  76:../../libDaisy//src/hid/audio.h **** 
  77:../../libDaisy//src/hid/audio.h ****     /** Interleaving Input buffer
  78:../../libDaisy//src/hid/audio.h ****      ** audio is prepared as { L0, R0, L1, R1, . . . LN, RN }]
  79:../../libDaisy//src/hid/audio.h ****      ** this is const, as the user shouldn't modify it
  80:../../libDaisy//src/hid/audio.h ****     */
  81:../../libDaisy//src/hid/audio.h ****     typedef const float* InterleavingInputBuffer;
ARM GAS  /var/folders/hl/qgbwny5j0fd895c2c41bk3tw0000gp/T//cceIFtrC.s 			page 8


  82:../../libDaisy//src/hid/audio.h **** 
  83:../../libDaisy//src/hid/audio.h ****     /** Interleaving Output buffer 
  84:../../libDaisy//src/hid/audio.h ****      ** audio is prepared as { L0, R0, L1, R1, . . . LN, RN }
  85:../../libDaisy//src/hid/audio.h ****     */
  86:../../libDaisy//src/hid/audio.h ****     typedef float* InterleavingOutputBuffer;
  87:../../libDaisy//src/hid/audio.h **** 
  88:../../libDaisy//src/hid/audio.h ****     /** Interleaving Audio Callback 
  89:../../libDaisy//src/hid/audio.h ****      * Interleaving audio callbacks in daisy must be of this type
  90:../../libDaisy//src/hid/audio.h ****      */
  91:../../libDaisy//src/hid/audio.h ****     typedef void (*InterleavingAudioCallback)(InterleavingInputBuffer  in,
  92:../../libDaisy//src/hid/audio.h ****                                               InterleavingOutputBuffer out,
  93:../../libDaisy//src/hid/audio.h ****                                               size_t                   size);
  94:../../libDaisy//src/hid/audio.h **** 
  95:../../libDaisy//src/hid/audio.h ****     AudioHandle() : pimpl_(nullptr) {}
  96:../../libDaisy//src/hid/audio.h ****     ~AudioHandle() {}
  67              		.loc 6 96 5 is_stmt 1 view .LVU11
  68              		.loc 6 96 5 is_stmt 0 view .LVU12
  69              	.LBE483:
  70              	.LBB484:
  71              	.LBI484:
  72              		.file 7 "../../libDaisy//src/sys/system.h"
   1:../../libDaisy//src/sys/system.h **** #ifndef DSY_SYSTEM_H
   2:../../libDaisy//src/sys/system.h **** #define DSY_SYSTEM_H
   3:../../libDaisy//src/sys/system.h **** 
   4:../../libDaisy//src/sys/system.h **** #ifndef UNIT_TEST // for unit tests, a dummy implementation is provided below
   5:../../libDaisy//src/sys/system.h **** 
   6:../../libDaisy//src/sys/system.h **** #include <cstdint>
   7:../../libDaisy//src/sys/system.h **** #include "per/tim.h"
   8:../../libDaisy//src/sys/system.h **** 
   9:../../libDaisy//src/sys/system.h **** namespace daisy
  10:../../libDaisy//src/sys/system.h **** {
  11:../../libDaisy//src/sys/system.h **** /** A handle for interacting with the Core System. 
  12:../../libDaisy//src/sys/system.h ****  ** This includes the Clock tree, MPU, global DMA initialization,
  13:../../libDaisy//src/sys/system.h ****  ** cache handling, and any other necessary global initiailzation
  14:../../libDaisy//src/sys/system.h ****  **
  15:../../libDaisy//src/sys/system.h ****  ** @author shensley
  16:../../libDaisy//src/sys/system.h ****  ** @ingroup system
  17:../../libDaisy//src/sys/system.h ****  */
  18:../../libDaisy//src/sys/system.h **** class System
  19:../../libDaisy//src/sys/system.h **** {
  20:../../libDaisy//src/sys/system.h ****   public:
  21:../../libDaisy//src/sys/system.h ****     /** Contains settings for initializing the System */
  22:../../libDaisy//src/sys/system.h ****     struct Config
  23:../../libDaisy//src/sys/system.h ****     {
  24:../../libDaisy//src/sys/system.h ****         /** Specifies the system clock frequency that feeds APB/AHB clocks, etc. */
  25:../../libDaisy//src/sys/system.h ****         enum class SysClkFreq
  26:../../libDaisy//src/sys/system.h ****         {
  27:../../libDaisy//src/sys/system.h ****             FREQ_400MHZ,
  28:../../libDaisy//src/sys/system.h ****             FREQ_480MHZ,
  29:../../libDaisy//src/sys/system.h ****         };
  30:../../libDaisy//src/sys/system.h **** 
  31:../../libDaisy//src/sys/system.h ****         /** Method to call on the struct to set to defaults
  32:../../libDaisy//src/sys/system.h ****          ** CPU Freq set to 400MHz
  33:../../libDaisy//src/sys/system.h ****          ** Cache Enabled 
  34:../../libDaisy//src/sys/system.h ****          ** */
  35:../../libDaisy//src/sys/system.h ****         void Defaults()
  36:../../libDaisy//src/sys/system.h ****         {
ARM GAS  /var/folders/hl/qgbwny5j0fd895c2c41bk3tw0000gp/T//cceIFtrC.s 			page 9


  37:../../libDaisy//src/sys/system.h ****             cpu_freq    = SysClkFreq::FREQ_400MHZ;
  38:../../libDaisy//src/sys/system.h ****             use_dcache  = true;
  39:../../libDaisy//src/sys/system.h ****             use_icache  = true;
  40:../../libDaisy//src/sys/system.h ****             skip_clocks = false;
  41:../../libDaisy//src/sys/system.h ****         }
  42:../../libDaisy//src/sys/system.h **** 
  43:../../libDaisy//src/sys/system.h ****         /** Method to call on the struct to set to boost mode:
  44:../../libDaisy//src/sys/system.h ****          ** CPU Freq set to 480MHz
  45:../../libDaisy//src/sys/system.h ****          ** Cache Enabled 
  46:../../libDaisy//src/sys/system.h ****          ** */
  47:../../libDaisy//src/sys/system.h ****         void Boost()
  48:../../libDaisy//src/sys/system.h ****         {
  49:../../libDaisy//src/sys/system.h ****             cpu_freq    = SysClkFreq::FREQ_480MHZ;
  50:../../libDaisy//src/sys/system.h ****             use_dcache  = true;
  51:../../libDaisy//src/sys/system.h ****             use_icache  = true;
  52:../../libDaisy//src/sys/system.h ****             skip_clocks = false;
  53:../../libDaisy//src/sys/system.h ****         }
  54:../../libDaisy//src/sys/system.h **** 
  55:../../libDaisy//src/sys/system.h ****         SysClkFreq cpu_freq;
  56:../../libDaisy//src/sys/system.h ****         bool       use_dcache;
  57:../../libDaisy//src/sys/system.h ****         bool       use_icache;
  58:../../libDaisy//src/sys/system.h ****         bool       skip_clocks;
  59:../../libDaisy//src/sys/system.h ****     };
  60:../../libDaisy//src/sys/system.h **** 
  61:../../libDaisy//src/sys/system.h ****     /** Describes the different regions of memory available to the Daisy
  62:../../libDaisy//src/sys/system.h ****      * 
  63:../../libDaisy//src/sys/system.h ****      */
  64:../../libDaisy//src/sys/system.h ****     enum MemoryRegion
  65:../../libDaisy//src/sys/system.h ****     {
  66:../../libDaisy//src/sys/system.h ****         INTERNAL_FLASH = 0,
  67:../../libDaisy//src/sys/system.h ****         ITCMRAM,
  68:../../libDaisy//src/sys/system.h ****         DTCMRAM,
  69:../../libDaisy//src/sys/system.h ****         SRAM_D1,
  70:../../libDaisy//src/sys/system.h ****         SRAM_D2,
  71:../../libDaisy//src/sys/system.h ****         SRAM_D3,
  72:../../libDaisy//src/sys/system.h ****         SDRAM,
  73:../../libDaisy//src/sys/system.h ****         QSPI,
  74:../../libDaisy//src/sys/system.h ****         INVALID_ADDRESS,
  75:../../libDaisy//src/sys/system.h ****     };
  76:../../libDaisy//src/sys/system.h **** 
  77:../../libDaisy//src/sys/system.h ****     System() {}
  78:../../libDaisy//src/sys/system.h ****     ~System() {}
  73              		.loc 7 78 5 is_stmt 1 view .LVU13
  74              		.loc 7 78 5 is_stmt 0 view .LVU14
  75              	.LBE484:
  76              		.loc 1 65 26 view .LVU15
  77 0000 7047     		bx	lr
  78              		.cfi_endproc
  79              	.LFE2529:
  81              		.weak	_ZN5daisy8patch_sm12DaisyPatchSMD1Ev
  82              		.thumb_set _ZN5daisy8patch_sm12DaisyPatchSMD1Ev,_ZN5daisy8patch_sm12DaisyPatchSMD2Ev
  83 0002 00BF     		.section	.text._ZN5daisy11OledDisplayINS_13SSD130xDriverILj128ELj64ENS_19SSD130xI2CTransportEEEED2
  84              		.align	1
  85              		.p2align 2,,3
  86              		.weak	_ZN5daisy11OledDisplayINS_13SSD130xDriverILj128ELj64ENS_19SSD130xI2CTransportEEEED2Ev
  87              		.syntax unified
  88              		.thumb
ARM GAS  /var/folders/hl/qgbwny5j0fd895c2c41bk3tw0000gp/T//cceIFtrC.s 			page 10


  89              		.thumb_func
  90              		.fpu fpv5-d16
  92              	_ZN5daisy11OledDisplayINS_13SSD130xDriverILj128ELj64ENS_19SSD130xI2CTransportEEEED2Ev:
  93              	.LVL1:
  94              	.LFB5176:
  95              		.file 8 "../../libDaisy//src/hid/disp/oled_display.h"
   1:../../libDaisy//src/hid/disp/oled_display.h **** #pragma once
   2:../../libDaisy//src/hid/disp/oled_display.h **** #ifndef DSY_OLED_DISPLAY_H
   3:../../libDaisy//src/hid/disp/oled_display.h **** #define DSY_OLED_DISPLAY_H /**< Macro */
   4:../../libDaisy//src/hid/disp/oled_display.h **** 
   5:../../libDaisy//src/hid/disp/oled_display.h **** #include "display.h"
   6:../../libDaisy//src/hid/disp/oled_display.h **** 
   7:../../libDaisy//src/hid/disp/oled_display.h **** namespace daisy
   8:../../libDaisy//src/hid/disp/oled_display.h **** {
   9:../../libDaisy//src/hid/disp/oled_display.h **** /** 
  10:../../libDaisy//src/hid/disp/oled_display.h ****  * This class is for drawing to a monochrome OLED display. 
  11:../../libDaisy//src/hid/disp/oled_display.h ****  * @ingroup device
  12:../../libDaisy//src/hid/disp/oled_display.h **** */
  13:../../libDaisy//src/hid/disp/oled_display.h **** template <typename DisplayDriver>
  14:../../libDaisy//src/hid/disp/oled_display.h **** class OledDisplay : public OneBitGraphicsDisplayImpl<OledDisplay<DisplayDriver>>
  15:../../libDaisy//src/hid/disp/oled_display.h **** {
  16:../../libDaisy//src/hid/disp/oled_display.h ****   public:
  17:../../libDaisy//src/hid/disp/oled_display.h ****     OledDisplay() {}
  18:../../libDaisy//src/hid/disp/oled_display.h ****     virtual ~OledDisplay() {}
  96              		.loc 8 18 13 is_stmt 1 view -0
  97              		.cfi_startproc
  98              		@ args = 0, pretend = 0, frame = 0
  99              		@ frame_needed = 0, uses_anonymous_args = 0
 100              		@ link register save eliminated.
 101              	.LBB485:
 102              	.LBI485:
 103              		.file 9 "../../libDaisy//src/hid/disp/display.h"
   1:../../libDaisy//src/hid/disp/display.h **** #pragma once
   2:../../libDaisy//src/hid/disp/display.h **** #ifndef DSY_DISPLAY_H
   3:../../libDaisy//src/hid/disp/display.h **** #define DSY_DISPLAY_H /**< Macro */
   4:../../libDaisy//src/hid/disp/display.h **** #include <cmath>
   5:../../libDaisy//src/hid/disp/display.h **** #include "util/oled_fonts.h"
   6:../../libDaisy//src/hid/disp/display.h **** #include "daisy_core.h"
   7:../../libDaisy//src/hid/disp/display.h **** #include "graphics_common.h"
   8:../../libDaisy//src/hid/disp/display.h **** 
   9:../../libDaisy//src/hid/disp/display.h **** #ifndef deg2rad
  10:../../libDaisy//src/hid/disp/display.h **** #define deg2rad(deg) ((deg)*3.141592 / 180.0)
  11:../../libDaisy//src/hid/disp/display.h **** #endif
  12:../../libDaisy//src/hid/disp/display.h **** 
  13:../../libDaisy//src/hid/disp/display.h **** namespace daisy
  14:../../libDaisy//src/hid/disp/display.h **** {
  15:../../libDaisy//src/hid/disp/display.h **** /** 
  16:../../libDaisy//src/hid/disp/display.h ****  * This interface is used as a base class for all types of 1bit-per-pixel
  17:../../libDaisy//src/hid/disp/display.h ****  * graphics displays.
  18:../../libDaisy//src/hid/disp/display.h **** */
  19:../../libDaisy//src/hid/disp/display.h **** class OneBitGraphicsDisplay
  20:../../libDaisy//src/hid/disp/display.h **** {
  21:../../libDaisy//src/hid/disp/display.h ****   public:
  22:../../libDaisy//src/hid/disp/display.h ****     OneBitGraphicsDisplay() {}
  23:../../libDaisy//src/hid/disp/display.h ****     virtual ~OneBitGraphicsDisplay() {}
  24:../../libDaisy//src/hid/disp/display.h **** 
  25:../../libDaisy//src/hid/disp/display.h ****     virtual uint16_t Height() const = 0;
ARM GAS  /var/folders/hl/qgbwny5j0fd895c2c41bk3tw0000gp/T//cceIFtrC.s 			page 11


  26:../../libDaisy//src/hid/disp/display.h ****     virtual uint16_t Width() const  = 0;
  27:../../libDaisy//src/hid/disp/display.h **** 
  28:../../libDaisy//src/hid/disp/display.h ****     Rectangle GetBounds() const
  29:../../libDaisy//src/hid/disp/display.h ****     {
  30:../../libDaisy//src/hid/disp/display.h ****         return Rectangle(int16_t(Width()), int16_t(Height()));
  31:../../libDaisy//src/hid/disp/display.h ****     }
  32:../../libDaisy//src/hid/disp/display.h **** 
  33:../../libDaisy//src/hid/disp/display.h **** 
  34:../../libDaisy//src/hid/disp/display.h ****     size_t CurrentX() { return currentX_; };
  35:../../libDaisy//src/hid/disp/display.h ****     size_t CurrentY() { return currentY_; };
  36:../../libDaisy//src/hid/disp/display.h **** 
  37:../../libDaisy//src/hid/disp/display.h ****     /** 
  38:../../libDaisy//src/hid/disp/display.h ****     Fills the entire display with either on/off.
  39:../../libDaisy//src/hid/disp/display.h ****     \param on Sets on or off.
  40:../../libDaisy//src/hid/disp/display.h ****     */
  41:../../libDaisy//src/hid/disp/display.h ****     virtual void Fill(bool on) = 0;
  42:../../libDaisy//src/hid/disp/display.h **** 
  43:../../libDaisy//src/hid/disp/display.h ****     /**
  44:../../libDaisy//src/hid/disp/display.h ****     Sets the pixel at the specified coordinate to be on/off.
  45:../../libDaisy//src/hid/disp/display.h ****     \param x   x Coordinate
  46:../../libDaisy//src/hid/disp/display.h ****     \param y   y coordinate
  47:../../libDaisy//src/hid/disp/display.h ****     \param on  on or off
  48:../../libDaisy//src/hid/disp/display.h ****     */
  49:../../libDaisy//src/hid/disp/display.h ****     virtual void DrawPixel(uint_fast8_t x, uint_fast8_t y, bool on) = 0;
  50:../../libDaisy//src/hid/disp/display.h **** 
  51:../../libDaisy//src/hid/disp/display.h ****     /**
  52:../../libDaisy//src/hid/disp/display.h ****     Draws a line from (x1, y1) to (y1, y2)
  53:../../libDaisy//src/hid/disp/display.h ****     \param x1  x Coordinate of the starting point
  54:../../libDaisy//src/hid/disp/display.h ****     \param y1  y Coordinate of the starting point
  55:../../libDaisy//src/hid/disp/display.h ****     \param x2  x Coordinate of the ending point
  56:../../libDaisy//src/hid/disp/display.h ****     \param y2  y Coordinate of the ending point
  57:../../libDaisy//src/hid/disp/display.h ****     \param on  on or off
  58:../../libDaisy//src/hid/disp/display.h ****     */
  59:../../libDaisy//src/hid/disp/display.h ****     virtual void DrawLine(uint_fast8_t x1,
  60:../../libDaisy//src/hid/disp/display.h ****                           uint_fast8_t y1,
  61:../../libDaisy//src/hid/disp/display.h ****                           uint_fast8_t x2,
  62:../../libDaisy//src/hid/disp/display.h ****                           uint_fast8_t y2,
  63:../../libDaisy//src/hid/disp/display.h ****                           bool         on)
  64:../../libDaisy//src/hid/disp/display.h ****         = 0;
  65:../../libDaisy//src/hid/disp/display.h **** 
  66:../../libDaisy//src/hid/disp/display.h ****     /**
  67:../../libDaisy//src/hid/disp/display.h ****     Draws a rectangle based on two coordinates.
  68:../../libDaisy//src/hid/disp/display.h ****     \param x1 x Coordinate of the first point
  69:../../libDaisy//src/hid/disp/display.h ****     \param y1 y Coordinate of the first point
  70:../../libDaisy//src/hid/disp/display.h ****     \param x2 x Coordinate of the second point
  71:../../libDaisy//src/hid/disp/display.h ****     \param y2 y Coordinate of the second point
  72:../../libDaisy//src/hid/disp/display.h ****     \param on on or off
  73:../../libDaisy//src/hid/disp/display.h ****     \param fill fill the rectangle or draw only the outline
  74:../../libDaisy//src/hid/disp/display.h ****     */
  75:../../libDaisy//src/hid/disp/display.h ****     virtual void DrawRect(uint_fast8_t x1,
  76:../../libDaisy//src/hid/disp/display.h ****                           uint_fast8_t y1,
  77:../../libDaisy//src/hid/disp/display.h ****                           uint_fast8_t x2,
  78:../../libDaisy//src/hid/disp/display.h ****                           uint_fast8_t y2,
  79:../../libDaisy//src/hid/disp/display.h ****                           bool         on,
  80:../../libDaisy//src/hid/disp/display.h ****                           bool         fill = false)
  81:../../libDaisy//src/hid/disp/display.h ****         = 0;
  82:../../libDaisy//src/hid/disp/display.h **** 
ARM GAS  /var/folders/hl/qgbwny5j0fd895c2c41bk3tw0000gp/T//cceIFtrC.s 			page 12


  83:../../libDaisy//src/hid/disp/display.h ****     /**
  84:../../libDaisy//src/hid/disp/display.h ****     Draws a rectangle.
  85:../../libDaisy//src/hid/disp/display.h ****     \param rect the rectangle
  86:../../libDaisy//src/hid/disp/display.h ****     \param on   on or off
  87:../../libDaisy//src/hid/disp/display.h ****     \param fill fill the rectangle or draw only the outline
  88:../../libDaisy//src/hid/disp/display.h ****     */
  89:../../libDaisy//src/hid/disp/display.h ****     void DrawRect(const Rectangle& rect, bool on, bool fill = false)
  90:../../libDaisy//src/hid/disp/display.h ****     {
  91:../../libDaisy//src/hid/disp/display.h ****         DrawRect(rect.GetX(),
  92:../../libDaisy//src/hid/disp/display.h ****                  rect.GetY(),
  93:../../libDaisy//src/hid/disp/display.h ****                  rect.GetRight(),
  94:../../libDaisy//src/hid/disp/display.h ****                  rect.GetBottom(),
  95:../../libDaisy//src/hid/disp/display.h ****                  on,
  96:../../libDaisy//src/hid/disp/display.h ****                  fill);
  97:../../libDaisy//src/hid/disp/display.h ****     }
  98:../../libDaisy//src/hid/disp/display.h **** 
  99:../../libDaisy//src/hid/disp/display.h ****     /**
 100:../../libDaisy//src/hid/disp/display.h ****     Draws an arc around the specified coordinate
 101:../../libDaisy//src/hid/disp/display.h ****     \param x           x Coordinate of the center of the arc
 102:../../libDaisy//src/hid/disp/display.h ****     \param y           y Coordinate of the center of the arc
 103:../../libDaisy//src/hid/disp/display.h ****     \param radius      radius of the arc
 104:../../libDaisy//src/hid/disp/display.h ****     \param start_angle angle where to start the arc
 105:../../libDaisy//src/hid/disp/display.h ****     \param sweep       total angle of the arc
 106:../../libDaisy//src/hid/disp/display.h ****     \param on  on or off
 107:../../libDaisy//src/hid/disp/display.h ****     */
 108:../../libDaisy//src/hid/disp/display.h ****     virtual void DrawArc(uint_fast8_t x,
 109:../../libDaisy//src/hid/disp/display.h ****                          uint_fast8_t y,
 110:../../libDaisy//src/hid/disp/display.h ****                          uint_fast8_t radius,
 111:../../libDaisy//src/hid/disp/display.h ****                          int_fast16_t start_angle,
 112:../../libDaisy//src/hid/disp/display.h ****                          int_fast16_t sweep,
 113:../../libDaisy//src/hid/disp/display.h ****                          bool         on)
 114:../../libDaisy//src/hid/disp/display.h ****         = 0;
 115:../../libDaisy//src/hid/disp/display.h **** 
 116:../../libDaisy//src/hid/disp/display.h ****     /**
 117:../../libDaisy//src/hid/disp/display.h ****     Draws a circle around the specified coordinate
 118:../../libDaisy//src/hid/disp/display.h ****     \param x           x Coordinate of the center of the circle
 119:../../libDaisy//src/hid/disp/display.h ****     \param y           y Coordinate of the center of the circle
 120:../../libDaisy//src/hid/disp/display.h ****     \param radius      radius of the circle
 121:../../libDaisy//src/hid/disp/display.h ****     \param on  on or off
 122:../../libDaisy//src/hid/disp/display.h ****     */
 123:../../libDaisy//src/hid/disp/display.h ****     void
 124:../../libDaisy//src/hid/disp/display.h ****     DrawCircle(uint_fast8_t x, uint_fast8_t y, uint_fast8_t radius, bool on)
 125:../../libDaisy//src/hid/disp/display.h ****     {
 126:../../libDaisy//src/hid/disp/display.h ****         DrawArc(x, y, radius, 0, 360, on);
 127:../../libDaisy//src/hid/disp/display.h ****     };
 128:../../libDaisy//src/hid/disp/display.h **** 
 129:../../libDaisy//src/hid/disp/display.h ****     /** 
 130:../../libDaisy//src/hid/disp/display.h ****     Writes the character with the specific FontDef
 131:../../libDaisy//src/hid/disp/display.h ****     to the display buffer at the current Cursor position.
 132:../../libDaisy//src/hid/disp/display.h ****     \param ch character to be written
 133:../../libDaisy//src/hid/disp/display.h ****     \param font font to be written in
 134:../../libDaisy//src/hid/disp/display.h ****     \param on    on or off
 135:../../libDaisy//src/hid/disp/display.h ****     \return &
 136:../../libDaisy//src/hid/disp/display.h ****     */
 137:../../libDaisy//src/hid/disp/display.h ****     virtual char WriteChar(char ch, FontDef font, bool on) = 0;
 138:../../libDaisy//src/hid/disp/display.h **** 
 139:../../libDaisy//src/hid/disp/display.h ****     /** 
ARM GAS  /var/folders/hl/qgbwny5j0fd895c2c41bk3tw0000gp/T//cceIFtrC.s 			page 13


 140:../../libDaisy//src/hid/disp/display.h ****     Similar to WriteChar, except it will handle an entire String.
 141:../../libDaisy//src/hid/disp/display.h ****     Wrapping does not happen automatically, so the width
 142:../../libDaisy//src/hid/disp/display.h ****     of the string must be kept within the dimensions of the screen.
 143:../../libDaisy//src/hid/disp/display.h ****     \param str string to be written
 144:../../libDaisy//src/hid/disp/display.h ****     \param font font to use
 145:../../libDaisy//src/hid/disp/display.h ****     \param on  on or off
 146:../../libDaisy//src/hid/disp/display.h ****     \return &
 147:../../libDaisy//src/hid/disp/display.h ****     */
 148:../../libDaisy//src/hid/disp/display.h ****     virtual char WriteString(const char* str, FontDef font, bool on) = 0;
 149:../../libDaisy//src/hid/disp/display.h **** 
 150:../../libDaisy//src/hid/disp/display.h ****     /** 
 151:../../libDaisy//src/hid/disp/display.h ****     Similar to WriteString but justified within a bounding box.
 152:../../libDaisy//src/hid/disp/display.h ****     \param str          string to be written
 153:../../libDaisy//src/hid/disp/display.h ****     \param font         font to use
 154:../../libDaisy//src/hid/disp/display.h ****     \param boundingBox  the bounding box to draw the text in
 155:../../libDaisy//src/hid/disp/display.h ****     \param alignment    the alignment to use
 156:../../libDaisy//src/hid/disp/display.h ****     \param on           on or off
 157:../../libDaisy//src/hid/disp/display.h ****     \return The rectangle that was drawn to
 158:../../libDaisy//src/hid/disp/display.h ****     */
 159:../../libDaisy//src/hid/disp/display.h ****     virtual Rectangle WriteStringAligned(const char*    str,
 160:../../libDaisy//src/hid/disp/display.h ****                                          const FontDef& font,
 161:../../libDaisy//src/hid/disp/display.h ****                                          Rectangle      boundingBox,
 162:../../libDaisy//src/hid/disp/display.h ****                                          Alignment      alignment,
 163:../../libDaisy//src/hid/disp/display.h ****                                          bool           on)
 164:../../libDaisy//src/hid/disp/display.h ****         = 0;
 165:../../libDaisy//src/hid/disp/display.h **** 
 166:../../libDaisy//src/hid/disp/display.h ****     /** 
 167:../../libDaisy//src/hid/disp/display.h ****     Moves the 'Cursor' position used for WriteChar, and WriteStr to the specified coordinate.
 168:../../libDaisy//src/hid/disp/display.h ****     \param x x pos
 169:../../libDaisy//src/hid/disp/display.h ****     \param y y pos
 170:../../libDaisy//src/hid/disp/display.h ****     */
 171:../../libDaisy//src/hid/disp/display.h ****     void SetCursor(uint16_t x, uint16_t y)
 172:../../libDaisy//src/hid/disp/display.h ****     {
 173:../../libDaisy//src/hid/disp/display.h ****         currentX_ = (x >= Width()) ? Width() - 1 : x;
 174:../../libDaisy//src/hid/disp/display.h ****         currentY_ = (y >= Height()) ? Height() - 1 : y;
 175:../../libDaisy//src/hid/disp/display.h ****     }
 176:../../libDaisy//src/hid/disp/display.h **** 
 177:../../libDaisy//src/hid/disp/display.h ****     /** 
 178:../../libDaisy//src/hid/disp/display.h ****     Writes the current display buffer to the OLED device using SPI or I2C depending on 
 179:../../libDaisy//src/hid/disp/display.h ****     how the object was initialized.
 180:../../libDaisy//src/hid/disp/display.h ****     */
 181:../../libDaisy//src/hid/disp/display.h ****     virtual void Update() = 0;
 182:../../libDaisy//src/hid/disp/display.h **** 
 183:../../libDaisy//src/hid/disp/display.h ****   protected:
 184:../../libDaisy//src/hid/disp/display.h ****     uint16_t currentX_;
 185:../../libDaisy//src/hid/disp/display.h ****     uint16_t currentY_;
 186:../../libDaisy//src/hid/disp/display.h **** };
 187:../../libDaisy//src/hid/disp/display.h **** 
 188:../../libDaisy//src/hid/disp/display.h **** /** This class is intended as a intermediary class for your actual implementation of the OneBitGrap
 189:../../libDaisy//src/hid/disp/display.h ****  *  interface. It uses the CRTP design pattern where the template argument is the child class. It p
 190:../../libDaisy//src/hid/disp/display.h ****  *  implementations for most of the functions, except DrawPixel(), Update() and Fill(), which you'l
 191:../../libDaisy//src/hid/disp/display.h ****  *  to provide in your child class.
 192:../../libDaisy//src/hid/disp/display.h ****  *  The main goal of this class is to provide common drawing functions without relying on massive a
 193:../../libDaisy//src/hid/disp/display.h ****  *  virtual function calls that would result in a performance loss. To achieve this, any drawing fu
 194:../../libDaisy//src/hid/disp/display.h ****  *  is implemented here and internally calls other drawing functions (e.g. DrawRect() which interna
 195:../../libDaisy//src/hid/disp/display.h ****  *  DrawPixel() and DrawLine()) makes these calls via the qualified name of these functions to expl
 196:../../libDaisy//src/hid/disp/display.h ****  *  suppress the virtual dispatch mechanism like this:
ARM GAS  /var/folders/hl/qgbwny5j0fd895c2c41bk3tw0000gp/T//cceIFtrC.s 			page 14


 197:../../libDaisy//src/hid/disp/display.h ****  * 
 198:../../libDaisy//src/hid/disp/display.h ****  *      ChildType::DrawPixel(...); // no virtual function call; direct call into the child class fu
 199:../../libDaisy//src/hid/disp/display.h ****  *  
 200:../../libDaisy//src/hid/disp/display.h ****  *  To create a custom OneBitGraphicsDisplay implementation, you can 
 201:../../libDaisy//src/hid/disp/display.h ****  *  A) inherit from OneBitGraphicsDisplay directly and provide all the drawing functions yourself
 202:../../libDaisy//src/hid/disp/display.h ****  *  B) Inherit from OneBitGraphicsDisplayImpl and only provide DrawPixel(), Fill() and Update()
 203:../../libDaisy//src/hid/disp/display.h ****  *     like this:
 204:../../libDaisy//src/hid/disp/display.h ****  *  
 205:../../libDaisy//src/hid/disp/display.h ****  *      class MyDisplayClass : public OneBitGraphicsDisplayImpl<MyDisplayClass> 
 206:../../libDaisy//src/hid/disp/display.h ****  *      {
 207:../../libDaisy//src/hid/disp/display.h ****  *      public:
 208:../../libDaisy//src/hid/disp/display.h ****  *          void Fill() override { ... };
 209:../../libDaisy//src/hid/disp/display.h ****  *          void DrawPixel(uint_fast8_t x, uint_fast8_t y, bool on) override { ... };
 210:../../libDaisy//src/hid/disp/display.h ****  *          void Update() override { ... }
 211:../../libDaisy//src/hid/disp/display.h ****  *      };
 212:../../libDaisy//src/hid/disp/display.h ****  *  
 213:../../libDaisy//src/hid/disp/display.h ****  */
 214:../../libDaisy//src/hid/disp/display.h **** template <class ChildType>
 215:../../libDaisy//src/hid/disp/display.h **** class OneBitGraphicsDisplayImpl : public OneBitGraphicsDisplay
 216:../../libDaisy//src/hid/disp/display.h **** {
 217:../../libDaisy//src/hid/disp/display.h ****   public:
 218:../../libDaisy//src/hid/disp/display.h ****     OneBitGraphicsDisplayImpl() {}
 219:../../libDaisy//src/hid/disp/display.h ****     virtual ~OneBitGraphicsDisplayImpl() {}
 104              		.loc 9 219 13 view .LVU17
 105              	.LBB486:
 106              	.LBI486:
  23:../../libDaisy//src/hid/disp/display.h **** 
 107              		.loc 9 23 13 view .LVU18
  23:../../libDaisy//src/hid/disp/display.h **** 
 108              		.loc 9 23 13 is_stmt 0 view .LVU19
 109              	.LBE486:
 110              	.LBE485:
 111              		.loc 8 18 29 view .LVU20
 112 0000 7047     		bx	lr
 113              		.cfi_endproc
 114              	.LFE5176:
 116              		.weak	_ZN5daisy11OledDisplayINS_13SSD130xDriverILj128ELj64ENS_19SSD130xI2CTransportEEEED1Ev
 117              		.thumb_set _ZN5daisy11OledDisplayINS_13SSD130xDriverILj128ELj64ENS_19SSD130xI2CTransportEEEED1Ev,_
 118 0002 00BF     		.section	.text._ZN5daisy9Patch_BayD2Ev,"axG",%progbits,_ZN5daisy9Patch_BayD5Ev,comdat
 119              		.align	1
 120              		.p2align 2,,3
 121              		.weak	_ZN5daisy9Patch_BayD2Ev
 122              		.syntax unified
 123              		.thumb
 124              		.thumb_func
 125              		.fpu fpv5-d16
 127              	_ZN5daisy9Patch_BayD2Ev:
 128              	.LVL2:
 129              	.LFB5442:
 130              		.file 10 "patch_bay.h"
   1:patch_bay.h   **** #pragma once 
   2:patch_bay.h   **** #ifndef PATCH_BAY_BSP_H
   3:patch_bay.h   **** #define PATCH_BAY_BSP_H
   4:patch_bay.h   **** 
   5:patch_bay.h   **** #include "daisy.h"
   6:patch_bay.h   **** #include "daisy_patch_sm.h"
   7:patch_bay.h   **** #include "dev/oled_ssd130x.h"
ARM GAS  /var/folders/hl/qgbwny5j0fd895c2c41bk3tw0000gp/T//cceIFtrC.s 			page 15


   8:patch_bay.h   **** 
   9:patch_bay.h   **** using namespace daisy;
  10:patch_bay.h   **** using namespace patch_sm;
  11:patch_bay.h   **** 
  12:patch_bay.h   **** namespace daisy {
  13:patch_bay.h   **** 
  14:patch_bay.h   **** class Patch_Bay
 131              		.loc 10 14 7 is_stmt 1 view -0
 132              		.cfi_startproc
 133              		@ args = 0, pretend = 0, frame = 0
 134              		@ frame_needed = 0, uses_anonymous_args = 0
 135              		@ link register save eliminated.
 136              	.LBB487:
 137              	.LBI487:
 138              		.file 11 "../../libDaisy//src/hid/led.h"
   1:../../libDaisy//src/hid/led.h **** 
   2:../../libDaisy//src/hid/led.h **** #pragma once
   3:../../libDaisy//src/hid/led.h **** #ifndef DSY_LED_H
   4:../../libDaisy//src/hid/led.h **** #define DSY_LED_H
   5:../../libDaisy//src/hid/led.h **** #include "daisy_core.h"
   6:../../libDaisy//src/hid/led.h **** #include "per/gpio.h"
   7:../../libDaisy//src/hid/led.h **** 
   8:../../libDaisy//src/hid/led.h **** /* TODO - Get this set up to work with the dev_leddriver stuff as well
   9:../../libDaisy//src/hid/led.h **** - Setup Hardware PWM for pins that have it
  10:../../libDaisy//src/hid/led.h **** */
  11:../../libDaisy//src/hid/led.h **** 
  12:../../libDaisy//src/hid/led.h **** namespace daisy
  13:../../libDaisy//src/hid/led.h **** {
  14:../../libDaisy//src/hid/led.h **** /**
  15:../../libDaisy//src/hid/led.h ****     @brief LED Class providing simple Software PWM ability, etc \n 
  16:../../libDaisy//src/hid/led.h ****     Eventually this will work with hardware PWM, and external LED Driver devices as well.
  17:../../libDaisy//src/hid/led.h ****     @author shensley
  18:../../libDaisy//src/hid/led.h ****     @date March 2020
  19:../../libDaisy//src/hid/led.h ****     @ingroup feedback
  20:../../libDaisy//src/hid/led.h **** */
  21:../../libDaisy//src/hid/led.h **** class Led
  22:../../libDaisy//src/hid/led.h **** {
  23:../../libDaisy//src/hid/led.h ****   public:
  24:../../libDaisy//src/hid/led.h ****     Led() {}
  25:../../libDaisy//src/hid/led.h ****     ~Led() {}
 139              		.loc 11 25 5 view .LVU22
 140              		.loc 11 25 5 is_stmt 0 view .LVU23
 141              	.LBE487:
 142              	.LBB488:
 143              	.LBI488:
 144              		.loc 11 25 5 is_stmt 1 view .LVU24
 145              		.loc 11 25 5 is_stmt 0 view .LVU25
 146              	.LBE488:
 147              	.LBB489:
 148              	.LBI489:
 149              		.loc 11 25 5 is_stmt 1 view .LVU26
 150              		.loc 11 25 5 is_stmt 0 view .LVU27
 151              	.LBE489:
 152              	.LBB490:
 153              	.LBI490:
 154              		.loc 8 18 13 is_stmt 1 view .LVU28
 155              	.LBB491:
ARM GAS  /var/folders/hl/qgbwny5j0fd895c2c41bk3tw0000gp/T//cceIFtrC.s 			page 16


 156              	.LBI491:
 157              		.loc 9 219 13 view .LVU29
 158              	.LBB492:
 159              	.LBI492:
  23:../../libDaisy//src/hid/disp/display.h **** 
 160              		.loc 9 23 13 view .LVU30
  23:../../libDaisy//src/hid/disp/display.h **** 
 161              		.loc 9 23 13 is_stmt 0 view .LVU31
 162              	.LBE492:
 163              	.LBE491:
 164              	.LBE490:
 165              	.LBB493:
 166              	.LBI493:
 167              		.file 12 "../../libDaisy//src/hid/encoder.h"
   1:../../libDaisy//src/hid/encoder.h **** #pragma once
   2:../../libDaisy//src/hid/encoder.h **** #ifndef DSY_ENCODER_H
   3:../../libDaisy//src/hid/encoder.h **** #define DSY_ENCODER_H
   4:../../libDaisy//src/hid/encoder.h **** #include "daisy_core.h"
   5:../../libDaisy//src/hid/encoder.h **** #include "per/gpio.h"
   6:../../libDaisy//src/hid/encoder.h **** #include "hid/switch.h"
   7:../../libDaisy//src/hid/encoder.h **** 
   8:../../libDaisy//src/hid/encoder.h **** namespace daisy
   9:../../libDaisy//src/hid/encoder.h **** {
  10:../../libDaisy//src/hid/encoder.h **** /** 
  11:../../libDaisy//src/hid/encoder.h ****     @brief Generic Class for handling Quadrature Encoders \n 
  12:../../libDaisy//src/hid/encoder.h ****     Inspired/influenced by Mutable Instruments (pichenettes) Encoder classes
  13:../../libDaisy//src/hid/encoder.h ****     @author Stephen Hensley
  14:../../libDaisy//src/hid/encoder.h ****     @date December 2019
  15:../../libDaisy//src/hid/encoder.h ****     @ingroup controls
  16:../../libDaisy//src/hid/encoder.h **** */
  17:../../libDaisy//src/hid/encoder.h **** class Encoder
  18:../../libDaisy//src/hid/encoder.h **** {
  19:../../libDaisy//src/hid/encoder.h ****   public:
  20:../../libDaisy//src/hid/encoder.h ****     Encoder() {}
  21:../../libDaisy//src/hid/encoder.h ****     ~Encoder() {}
 168              		.loc 12 21 5 is_stmt 1 view .LVU32
 169              	.LBB494:
 170              	.LBI494:
 171              		.file 13 "../../libDaisy//src/hid/switch.h"
   1:../../libDaisy//src/hid/switch.h **** #pragma once
   2:../../libDaisy//src/hid/switch.h **** #ifndef DSY_SWITCH_H
   3:../../libDaisy//src/hid/switch.h **** #define DSY_SWITCH_H
   4:../../libDaisy//src/hid/switch.h **** #include "daisy_core.h"
   5:../../libDaisy//src/hid/switch.h **** #include "per/gpio.h"
   6:../../libDaisy//src/hid/switch.h **** #include "sys/system.h"
   7:../../libDaisy//src/hid/switch.h **** 
   8:../../libDaisy//src/hid/switch.h **** namespace daisy
   9:../../libDaisy//src/hid/switch.h **** {
  10:../../libDaisy//src/hid/switch.h **** /** 
  11:../../libDaisy//src/hid/switch.h ****     Generic Class for handling momentary/latching switches \n 
  12:../../libDaisy//src/hid/switch.h ****     Inspired/influenced by Mutable Instruments (pichenettes) Switch classes
  13:../../libDaisy//src/hid/switch.h ****     @author Stephen Hensley
  14:../../libDaisy//src/hid/switch.h ****     @date December 2019
  15:../../libDaisy//src/hid/switch.h ****     @ingroup controls
  16:../../libDaisy//src/hid/switch.h **** */
  17:../../libDaisy//src/hid/switch.h **** class Switch
  18:../../libDaisy//src/hid/switch.h **** {
ARM GAS  /var/folders/hl/qgbwny5j0fd895c2c41bk3tw0000gp/T//cceIFtrC.s 			page 17


  19:../../libDaisy//src/hid/switch.h ****   public:
  20:../../libDaisy//src/hid/switch.h ****     /** Specifies the expected behavior of the switch */
  21:../../libDaisy//src/hid/switch.h ****     enum Type
  22:../../libDaisy//src/hid/switch.h ****     {
  23:../../libDaisy//src/hid/switch.h ****         TYPE_TOGGLE,    /**< & */
  24:../../libDaisy//src/hid/switch.h ****         TYPE_MOMENTARY, /**< & */
  25:../../libDaisy//src/hid/switch.h ****     };
  26:../../libDaisy//src/hid/switch.h ****     /** Specifies whether the pressed is HIGH or LOW. */
  27:../../libDaisy//src/hid/switch.h ****     enum Polarity
  28:../../libDaisy//src/hid/switch.h ****     {
  29:../../libDaisy//src/hid/switch.h ****         POLARITY_NORMAL,   /**< & */
  30:../../libDaisy//src/hid/switch.h ****         POLARITY_INVERTED, /**< & */
  31:../../libDaisy//src/hid/switch.h ****     };
  32:../../libDaisy//src/hid/switch.h **** 
  33:../../libDaisy//src/hid/switch.h ****     /** Specifies whether to use built-in Pull Up/Down resistors to hold button at a given state wh
  34:../../libDaisy//src/hid/switch.h ****     enum Pull
  35:../../libDaisy//src/hid/switch.h ****     {
  36:../../libDaisy//src/hid/switch.h ****         PULL_UP,   /**< & */
  37:../../libDaisy//src/hid/switch.h ****         PULL_DOWN, /**< & */
  38:../../libDaisy//src/hid/switch.h ****         PULL_NONE, /**< & */
  39:../../libDaisy//src/hid/switch.h ****     };
  40:../../libDaisy//src/hid/switch.h **** 
  41:../../libDaisy//src/hid/switch.h ****     Switch() {}
  42:../../libDaisy//src/hid/switch.h ****     ~Switch() {}
 172              		.loc 13 42 5 view .LVU33
 173              		.loc 13 42 5 is_stmt 0 view .LVU34
 174              	.LBE494:
 175              	.LBE493:
 176              	.LBB495:
 177              	.LBI495:
 178              		.loc 13 42 5 is_stmt 1 view .LVU35
 179              		.loc 13 42 5 is_stmt 0 view .LVU36
 180              	.LBE495:
 181              	.LBB496:
 182              	.LBI496:
 183              		.file 14 "../../libDaisy//src/per/sdmmc.h"
   1:../../libDaisy//src/per/sdmmc.h **** /*
   2:../../libDaisy//src/per/sdmmc.h **** TODO: 
   3:../../libDaisy//src/per/sdmmc.h **** - Implement configuration (currently all settings are fixed).
   4:../../libDaisy//src/per/sdmmc.h **** */
   5:../../libDaisy//src/per/sdmmc.h **** #pragma once
   6:../../libDaisy//src/per/sdmmc.h **** #ifndef DSY_SDMMC_H
   7:../../libDaisy//src/per/sdmmc.h **** #define DSY_SDMMC_H /**< macro */
   8:../../libDaisy//src/per/sdmmc.h **** 
   9:../../libDaisy//src/per/sdmmc.h **** #include <stdint.h>
  10:../../libDaisy//src/per/sdmmc.h **** 
  11:../../libDaisy//src/per/sdmmc.h **** 
  12:../../libDaisy//src/per/sdmmc.h **** namespace daisy
  13:../../libDaisy//src/per/sdmmc.h **** {
  14:../../libDaisy//src/per/sdmmc.h **** /** @ingroup peripheral
  15:../../libDaisy//src/per/sdmmc.h ****     @{
  16:../../libDaisy//src/per/sdmmc.h ****     */
  17:../../libDaisy//src/per/sdmmc.h **** 
  18:../../libDaisy//src/per/sdmmc.h **** /** Configuration for interfacing with SD cards.
  19:../../libDaisy//src/per/sdmmc.h ****  *  Currently only supports operation using FatFS filesystem
  20:../../libDaisy//src/per/sdmmc.h ****  * 
  21:../../libDaisy//src/per/sdmmc.h ****  *  Only SDMMC1 is supported at this time.
ARM GAS  /var/folders/hl/qgbwny5j0fd895c2c41bk3tw0000gp/T//cceIFtrC.s 			page 18


  22:../../libDaisy//src/per/sdmmc.h ****  *
  23:../../libDaisy//src/per/sdmmc.h ****  *  Pins are fixed to the following:
  24:../../libDaisy//src/per/sdmmc.h ****  *  PC12 - SDMMC1 CK
  25:../../libDaisy//src/per/sdmmc.h ****  *  PD2  - SDMMC1 CMD
  26:../../libDaisy//src/per/sdmmc.h ****  *  PC8  - SDMMC1 D0
  27:../../libDaisy//src/per/sdmmc.h ****  *  PC9  - SDMMC1 D1 (optional)
  28:../../libDaisy//src/per/sdmmc.h ****  *  PC10 - SDMMC1 D2 (optional)
  29:../../libDaisy//src/per/sdmmc.h ****  *  PC11 - SDMMC1 D3 (optional)
  30:../../libDaisy//src/per/sdmmc.h **** */
  31:../../libDaisy//src/per/sdmmc.h **** class SdmmcHandler
  32:../../libDaisy//src/per/sdmmc.h **** {
  33:../../libDaisy//src/per/sdmmc.h ****   public:
  34:../../libDaisy//src/per/sdmmc.h ****     /** Return values for the SdmmcHandler class */
  35:../../libDaisy//src/per/sdmmc.h ****     enum class Result
  36:../../libDaisy//src/per/sdmmc.h ****     {
  37:../../libDaisy//src/per/sdmmc.h ****         OK,
  38:../../libDaisy//src/per/sdmmc.h ****         ERROR,
  39:../../libDaisy//src/per/sdmmc.h ****     };
  40:../../libDaisy//src/per/sdmmc.h **** 
  41:../../libDaisy//src/per/sdmmc.h ****     /** Sets whether 4-bit mode or 1-bit mode is used for the SDMMC */
  42:../../libDaisy//src/per/sdmmc.h ****     enum class BusWidth
  43:../../libDaisy//src/per/sdmmc.h ****     {
  44:../../libDaisy//src/per/sdmmc.h ****         BITS_1, /**< Only 1 bit of data per clock is transferred */
  45:../../libDaisy//src/per/sdmmc.h ****         BITS_4, /**< 4-bits of parallel data for each clock pulse */
  46:../../libDaisy//src/per/sdmmc.h ****     };
  47:../../libDaisy//src/per/sdmmc.h **** 
  48:../../libDaisy//src/per/sdmmc.h ****     /** 
  49:../../libDaisy//src/per/sdmmc.h ****     Sets the desired clock speed of the SD card bus. \n 
  50:../../libDaisy//src/per/sdmmc.h ****     Initialization is always done at or below 400kHz, and then the user speed is set.
  51:../../libDaisy//src/per/sdmmc.h ****     */
  52:../../libDaisy//src/per/sdmmc.h ****     enum class Speed
  53:../../libDaisy//src/per/sdmmc.h ****     {
  54:../../libDaisy//src/per/sdmmc.h ****         SLOW, /**< 400kHz, initialization  performed at this rate, before moving to user value */
  55:../../libDaisy//src/per/sdmmc.h ****         MEDIUM_SLOW, /**< 12.5MHz - half of standard rate */
  56:../../libDaisy//src/per/sdmmc.h ****         STANDARD,    /**< 25MHz - DS (Default Speed for SDMMC) */
  57:../../libDaisy//src/per/sdmmc.h ****         FAST,        /**< 50MHz - HS (High Speed signaling) */
  58:../../libDaisy//src/per/sdmmc.h ****         VERY_FAST, /**< 100MHz - SDR50 Overclocked rate for maximum transfer rates */
  59:../../libDaisy//src/per/sdmmc.h ****     };
  60:../../libDaisy//src/per/sdmmc.h **** 
  61:../../libDaisy//src/per/sdmmc.h ****     struct Config
  62:../../libDaisy//src/per/sdmmc.h ****     {
  63:../../libDaisy//src/per/sdmmc.h ****         Speed    speed;
  64:../../libDaisy//src/per/sdmmc.h ****         BusWidth width;
  65:../../libDaisy//src/per/sdmmc.h ****         bool
  66:../../libDaisy//src/per/sdmmc.h ****             clock_powersave; /**< When true, the clock will stop between transfers to save power. *
  67:../../libDaisy//src/per/sdmmc.h **** 
  68:../../libDaisy//src/per/sdmmc.h ****         /** Configures settings to their default settings */
  69:../../libDaisy//src/per/sdmmc.h ****         void Defaults()
  70:../../libDaisy//src/per/sdmmc.h ****         {
  71:../../libDaisy//src/per/sdmmc.h ****             speed           = Speed::FAST;
  72:../../libDaisy//src/per/sdmmc.h ****             width           = BusWidth::BITS_4;
  73:../../libDaisy//src/per/sdmmc.h ****             clock_powersave = false;
  74:../../libDaisy//src/per/sdmmc.h ****         }
  75:../../libDaisy//src/per/sdmmc.h ****     };
  76:../../libDaisy//src/per/sdmmc.h **** 
  77:../../libDaisy//src/per/sdmmc.h ****     SdmmcHandler() {}
  78:../../libDaisy//src/per/sdmmc.h ****     ~SdmmcHandler() {}
ARM GAS  /var/folders/hl/qgbwny5j0fd895c2c41bk3tw0000gp/T//cceIFtrC.s 			page 19


 184              		.loc 14 78 5 is_stmt 1 view .LVU37
 185              		.loc 14 78 5 is_stmt 0 view .LVU38
 186              	.LBE496:
 187              		.loc 10 14 7 view .LVU39
 188 0000 7047     		bx	lr
 189              		.cfi_endproc
 190              	.LFE5442:
 192              		.weak	_ZN5daisy9Patch_BayD1Ev
 193              		.thumb_set _ZN5daisy9Patch_BayD1Ev,_ZN5daisy9Patch_BayD2Ev
 194 0002 00BF     		.section	.text._ZNK5daisy11OledDisplayINS_13SSD130xDriverILj128ELj64ENS_19SSD130xI2CTransportEEEE6
 195              		.align	1
 196              		.p2align 2,,3
 197              		.weak	_ZNK5daisy11OledDisplayINS_13SSD130xDriverILj128ELj64ENS_19SSD130xI2CTransportEEEE6HeightEv
 198              		.syntax unified
 199              		.thumb
 200              		.thumb_func
 201              		.fpu fpv5-d16
 203              	_ZNK5daisy11OledDisplayINS_13SSD130xDriverILj128ELj64ENS_19SSD130xI2CTransportEEEE6HeightEv:
 204              	.LVL3:
 205              	.LFB5444:
  19:../../libDaisy//src/hid/disp/oled_display.h **** 
  20:../../libDaisy//src/hid/disp/oled_display.h ****     struct Config
  21:../../libDaisy//src/hid/disp/oled_display.h ****     {
  22:../../libDaisy//src/hid/disp/oled_display.h ****         typename DisplayDriver::Config driver_config;
  23:../../libDaisy//src/hid/disp/oled_display.h ****     };
  24:../../libDaisy//src/hid/disp/oled_display.h **** 
  25:../../libDaisy//src/hid/disp/oled_display.h ****     void Init(Config config) { driver_.Init(config.driver_config); }
  26:../../libDaisy//src/hid/disp/oled_display.h **** 
  27:../../libDaisy//src/hid/disp/oled_display.h ****     uint16_t Height() const override { return driver_.Height(); }
 206              		.loc 8 27 14 is_stmt 1 view -0
 207              		.cfi_startproc
 208              		@ args = 0, pretend = 0, frame = 0
 209              		@ frame_needed = 0, uses_anonymous_args = 0
 210              		@ link register save eliminated.
 211              		.loc 8 27 65 is_stmt 0 view .LVU41
 212 0000 4020     		movs	r0, #64
 213              	.LVL4:
 214              		.loc 8 27 65 view .LVU42
 215 0002 7047     		bx	lr
 216              		.cfi_endproc
 217              	.LFE5444:
 219              		.section	.text._ZNK5daisy11OledDisplayINS_13SSD130xDriverILj128ELj64ENS_19SSD130xI2CTransportEEEE5
 220              		.align	1
 221              		.p2align 2,,3
 222              		.weak	_ZNK5daisy11OledDisplayINS_13SSD130xDriverILj128ELj64ENS_19SSD130xI2CTransportEEEE5WidthEv
 223              		.syntax unified
 224              		.thumb
 225              		.thumb_func
 226              		.fpu fpv5-d16
 228              	_ZNK5daisy11OledDisplayINS_13SSD130xDriverILj128ELj64ENS_19SSD130xI2CTransportEEEE5WidthEv:
 229              	.LVL5:
 230              	.LFB5445:
  28:../../libDaisy//src/hid/disp/oled_display.h ****     uint16_t Width() const override { return driver_.Width(); }
 231              		.loc 8 28 14 is_stmt 1 view -0
 232              		.cfi_startproc
 233              		@ args = 0, pretend = 0, frame = 0
 234              		@ frame_needed = 0, uses_anonymous_args = 0
ARM GAS  /var/folders/hl/qgbwny5j0fd895c2c41bk3tw0000gp/T//cceIFtrC.s 			page 20


 235              		@ link register save eliminated.
 236              		.loc 8 28 63 is_stmt 0 view .LVU44
 237 0000 8020     		movs	r0, #128
 238              	.LVL6:
 239              		.loc 8 28 63 view .LVU45
 240 0002 7047     		bx	lr
 241              		.cfi_endproc
 242              	.LFE5445:
 244              		.section	.text._ZN5daisy11OledDisplayINS_13SSD130xDriverILj128ELj64ENS_19SSD130xI2CTransportEEEE4F
 245              		.align	1
 246              		.p2align 2,,3
 247              		.weak	_ZN5daisy11OledDisplayINS_13SSD130xDriverILj128ELj64ENS_19SSD130xI2CTransportEEEE4FillEb
 248              		.syntax unified
 249              		.thumb
 250              		.thumb_func
 251              		.fpu fpv5-d16
 253              	_ZN5daisy11OledDisplayINS_13SSD130xDriverILj128ELj64ENS_19SSD130xI2CTransportEEEE4FillEb:
 254              	.LVL7:
 255              	.LFB5446:
  29:../../libDaisy//src/hid/disp/oled_display.h **** 
  30:../../libDaisy//src/hid/disp/oled_display.h ****     /** 
  31:../../libDaisy//src/hid/disp/oled_display.h ****     Fills the entire display with either on/off.
  32:../../libDaisy//src/hid/disp/oled_display.h ****     \param on Sets on or off.
  33:../../libDaisy//src/hid/disp/oled_display.h ****     */
  34:../../libDaisy//src/hid/disp/oled_display.h ****     void Fill(bool on) override { driver_.Fill(on); }
 256              		.loc 8 34 10 is_stmt 1 view -0
 257              		.cfi_startproc
 258              		@ args = 0, pretend = 0, frame = 0
 259              		@ frame_needed = 0, uses_anonymous_args = 0
 260              		@ link register save eliminated.
 261              	.LBB497:
 262              	.LBI497:
 263              		.file 15 "../../libDaisy//src/dev/oled_ssd130x.h"
   1:../../libDaisy//src/dev/oled_ssd130x.h **** #pragma once
   2:../../libDaisy//src/dev/oled_ssd130x.h **** #ifndef SA_OLED_SSD130X_H
   3:../../libDaisy//src/dev/oled_ssd130x.h **** #define SA_OLED_SSD130X_H /**< & */
   4:../../libDaisy//src/dev/oled_ssd130x.h **** 
   5:../../libDaisy//src/dev/oled_ssd130x.h **** #include "per/i2c.h"
   6:../../libDaisy//src/dev/oled_ssd130x.h **** #include "per/spi.h"
   7:../../libDaisy//src/dev/oled_ssd130x.h **** #include "per/gpio.h"
   8:../../libDaisy//src/dev/oled_ssd130x.h **** #include "sys/system.h"
   9:../../libDaisy//src/dev/oled_ssd130x.h **** 
  10:../../libDaisy//src/dev/oled_ssd130x.h **** namespace daisy
  11:../../libDaisy//src/dev/oled_ssd130x.h **** {
  12:../../libDaisy//src/dev/oled_ssd130x.h **** /**
  13:../../libDaisy//src/dev/oled_ssd130x.h ****  * I2C Transport for SSD1306 / SSD1309 OLED display devices
  14:../../libDaisy//src/dev/oled_ssd130x.h ****  */
  15:../../libDaisy//src/dev/oled_ssd130x.h **** class SSD130xI2CTransport
  16:../../libDaisy//src/dev/oled_ssd130x.h **** {
  17:../../libDaisy//src/dev/oled_ssd130x.h ****   public:
  18:../../libDaisy//src/dev/oled_ssd130x.h ****     struct Config
  19:../../libDaisy//src/dev/oled_ssd130x.h ****     {
  20:../../libDaisy//src/dev/oled_ssd130x.h ****         Config()
  21:../../libDaisy//src/dev/oled_ssd130x.h ****         {
  22:../../libDaisy//src/dev/oled_ssd130x.h ****             // Intialize using defaults
  23:../../libDaisy//src/dev/oled_ssd130x.h ****             Defaults();
  24:../../libDaisy//src/dev/oled_ssd130x.h ****         }
ARM GAS  /var/folders/hl/qgbwny5j0fd895c2c41bk3tw0000gp/T//cceIFtrC.s 			page 21


  25:../../libDaisy//src/dev/oled_ssd130x.h ****         I2CHandle::Config i2c_config;
  26:../../libDaisy//src/dev/oled_ssd130x.h ****         uint8_t           i2c_address;
  27:../../libDaisy//src/dev/oled_ssd130x.h ****         void              Defaults()
  28:../../libDaisy//src/dev/oled_ssd130x.h ****         {
  29:../../libDaisy//src/dev/oled_ssd130x.h ****             i2c_config.periph         = I2CHandle::Config::Peripheral::I2C_1;
  30:../../libDaisy//src/dev/oled_ssd130x.h ****             i2c_config.speed          = I2CHandle::Config::Speed::I2C_1MHZ;
  31:../../libDaisy//src/dev/oled_ssd130x.h ****             i2c_config.mode           = I2CHandle::Config::Mode::I2C_MASTER;
  32:../../libDaisy//src/dev/oled_ssd130x.h ****             i2c_config.pin_config.scl = {DSY_GPIOB, 8};
  33:../../libDaisy//src/dev/oled_ssd130x.h ****             i2c_config.pin_config.sda = {DSY_GPIOB, 9};
  34:../../libDaisy//src/dev/oled_ssd130x.h ****             i2c_address               = 0x3C;
  35:../../libDaisy//src/dev/oled_ssd130x.h ****         }
  36:../../libDaisy//src/dev/oled_ssd130x.h ****     };
  37:../../libDaisy//src/dev/oled_ssd130x.h ****     void Init(const Config& config)
  38:../../libDaisy//src/dev/oled_ssd130x.h ****     {
  39:../../libDaisy//src/dev/oled_ssd130x.h ****         i2c_address_ = config.i2c_address;
  40:../../libDaisy//src/dev/oled_ssd130x.h ****         i2c_.Init(config.i2c_config);
  41:../../libDaisy//src/dev/oled_ssd130x.h ****     };
  42:../../libDaisy//src/dev/oled_ssd130x.h ****     void SendCommand(uint8_t cmd)
  43:../../libDaisy//src/dev/oled_ssd130x.h ****     {
  44:../../libDaisy//src/dev/oled_ssd130x.h ****         uint8_t buf[2] = {0X00, cmd};
  45:../../libDaisy//src/dev/oled_ssd130x.h ****         i2c_.TransmitBlocking(i2c_address_, buf, 2, 1000);
  46:../../libDaisy//src/dev/oled_ssd130x.h ****     };
  47:../../libDaisy//src/dev/oled_ssd130x.h **** 
  48:../../libDaisy//src/dev/oled_ssd130x.h ****     void SendData(uint8_t* buff, size_t size)
  49:../../libDaisy//src/dev/oled_ssd130x.h ****     {
  50:../../libDaisy//src/dev/oled_ssd130x.h ****         for(size_t i = 0; i < size; i++)
  51:../../libDaisy//src/dev/oled_ssd130x.h ****         {
  52:../../libDaisy//src/dev/oled_ssd130x.h ****             uint8_t buf[2] = {0X40, buff[i]};
  53:../../libDaisy//src/dev/oled_ssd130x.h ****             i2c_.TransmitBlocking(i2c_address_, buf, 2, 1000);
  54:../../libDaisy//src/dev/oled_ssd130x.h ****         }
  55:../../libDaisy//src/dev/oled_ssd130x.h ****     };
  56:../../libDaisy//src/dev/oled_ssd130x.h **** 
  57:../../libDaisy//src/dev/oled_ssd130x.h ****   private:
  58:../../libDaisy//src/dev/oled_ssd130x.h ****     daisy::I2CHandle i2c_;
  59:../../libDaisy//src/dev/oled_ssd130x.h ****     uint8_t          i2c_address_;
  60:../../libDaisy//src/dev/oled_ssd130x.h **** };
  61:../../libDaisy//src/dev/oled_ssd130x.h **** 
  62:../../libDaisy//src/dev/oled_ssd130x.h **** /**
  63:../../libDaisy//src/dev/oled_ssd130x.h ****  * 4 Wire SPI Transport for SSD1306 / SSD1309 OLED display devices
  64:../../libDaisy//src/dev/oled_ssd130x.h ****  */
  65:../../libDaisy//src/dev/oled_ssd130x.h **** class SSD130x4WireSpiTransport
  66:../../libDaisy//src/dev/oled_ssd130x.h **** {
  67:../../libDaisy//src/dev/oled_ssd130x.h ****   public:
  68:../../libDaisy//src/dev/oled_ssd130x.h ****     struct Config
  69:../../libDaisy//src/dev/oled_ssd130x.h ****     {
  70:../../libDaisy//src/dev/oled_ssd130x.h ****         Config()
  71:../../libDaisy//src/dev/oled_ssd130x.h ****         {
  72:../../libDaisy//src/dev/oled_ssd130x.h ****             // Initialize using defaults
  73:../../libDaisy//src/dev/oled_ssd130x.h ****             Defaults();
  74:../../libDaisy//src/dev/oled_ssd130x.h ****         }
  75:../../libDaisy//src/dev/oled_ssd130x.h ****         SpiHandle::Config spi_config;
  76:../../libDaisy//src/dev/oled_ssd130x.h ****         struct
  77:../../libDaisy//src/dev/oled_ssd130x.h ****         {
  78:../../libDaisy//src/dev/oled_ssd130x.h ****             dsy_gpio_pin dc;    /**< & */
  79:../../libDaisy//src/dev/oled_ssd130x.h ****             dsy_gpio_pin reset; /**< & */
  80:../../libDaisy//src/dev/oled_ssd130x.h ****         } pin_config;
  81:../../libDaisy//src/dev/oled_ssd130x.h ****         void Defaults()
ARM GAS  /var/folders/hl/qgbwny5j0fd895c2c41bk3tw0000gp/T//cceIFtrC.s 			page 22


  82:../../libDaisy//src/dev/oled_ssd130x.h ****         {
  83:../../libDaisy//src/dev/oled_ssd130x.h ****             // SPI peripheral config
  84:../../libDaisy//src/dev/oled_ssd130x.h ****             spi_config.periph = SpiHandle::Config::Peripheral::SPI_1;
  85:../../libDaisy//src/dev/oled_ssd130x.h ****             spi_config.mode   = SpiHandle::Config::Mode::MASTER;
  86:../../libDaisy//src/dev/oled_ssd130x.h ****             spi_config.direction
  87:../../libDaisy//src/dev/oled_ssd130x.h ****                 = SpiHandle::Config::Direction::TWO_LINES_TX_ONLY;
  88:../../libDaisy//src/dev/oled_ssd130x.h ****             spi_config.datasize       = 8;
  89:../../libDaisy//src/dev/oled_ssd130x.h ****             spi_config.clock_polarity = SpiHandle::Config::ClockPolarity::LOW;
  90:../../libDaisy//src/dev/oled_ssd130x.h ****             spi_config.clock_phase    = SpiHandle::Config::ClockPhase::ONE_EDGE;
  91:../../libDaisy//src/dev/oled_ssd130x.h ****             spi_config.nss            = SpiHandle::Config::NSS::HARD_OUTPUT;
  92:../../libDaisy//src/dev/oled_ssd130x.h ****             spi_config.baud_prescaler = SpiHandle::Config::BaudPrescaler::PS_8;
  93:../../libDaisy//src/dev/oled_ssd130x.h ****             // SPI pin config
  94:../../libDaisy//src/dev/oled_ssd130x.h ****             spi_config.pin_config.sclk = {DSY_GPIOG, 11};
  95:../../libDaisy//src/dev/oled_ssd130x.h ****             spi_config.pin_config.miso = {DSY_GPIOX, 0};
  96:../../libDaisy//src/dev/oled_ssd130x.h ****             spi_config.pin_config.mosi = {DSY_GPIOB, 5};
  97:../../libDaisy//src/dev/oled_ssd130x.h ****             spi_config.pin_config.nss  = {DSY_GPIOG, 10};
  98:../../libDaisy//src/dev/oled_ssd130x.h ****             // SSD130x control pin config
  99:../../libDaisy//src/dev/oled_ssd130x.h ****             pin_config.dc    = {DSY_GPIOB, 4};
 100:../../libDaisy//src/dev/oled_ssd130x.h ****             pin_config.reset = {DSY_GPIOB, 15};
 101:../../libDaisy//src/dev/oled_ssd130x.h ****         }
 102:../../libDaisy//src/dev/oled_ssd130x.h ****     };
 103:../../libDaisy//src/dev/oled_ssd130x.h ****     void Init(const Config& config)
 104:../../libDaisy//src/dev/oled_ssd130x.h ****     {
 105:../../libDaisy//src/dev/oled_ssd130x.h ****         // Initialize both GPIO
 106:../../libDaisy//src/dev/oled_ssd130x.h ****         pin_dc_.mode = DSY_GPIO_MODE_OUTPUT_PP;
 107:../../libDaisy//src/dev/oled_ssd130x.h ****         pin_dc_.pin  = config.pin_config.dc;
 108:../../libDaisy//src/dev/oled_ssd130x.h ****         dsy_gpio_init(&pin_dc_);
 109:../../libDaisy//src/dev/oled_ssd130x.h ****         pin_reset_.mode = DSY_GPIO_MODE_OUTPUT_PP;
 110:../../libDaisy//src/dev/oled_ssd130x.h ****         pin_reset_.pin  = config.pin_config.reset;
 111:../../libDaisy//src/dev/oled_ssd130x.h ****         dsy_gpio_init(&pin_reset_);
 112:../../libDaisy//src/dev/oled_ssd130x.h **** 
 113:../../libDaisy//src/dev/oled_ssd130x.h ****         // Initialize SPI
 114:../../libDaisy//src/dev/oled_ssd130x.h ****         spi_.Init(config.spi_config);
 115:../../libDaisy//src/dev/oled_ssd130x.h **** 
 116:../../libDaisy//src/dev/oled_ssd130x.h ****         // Reset and Configure OLED.
 117:../../libDaisy//src/dev/oled_ssd130x.h ****         dsy_gpio_write(&pin_reset_, 0);
 118:../../libDaisy//src/dev/oled_ssd130x.h ****         System::Delay(10);
 119:../../libDaisy//src/dev/oled_ssd130x.h ****         dsy_gpio_write(&pin_reset_, 1);
 120:../../libDaisy//src/dev/oled_ssd130x.h ****         System::Delay(10);
 121:../../libDaisy//src/dev/oled_ssd130x.h ****     };
 122:../../libDaisy//src/dev/oled_ssd130x.h ****     void SendCommand(uint8_t cmd)
 123:../../libDaisy//src/dev/oled_ssd130x.h ****     {
 124:../../libDaisy//src/dev/oled_ssd130x.h ****         dsy_gpio_write(&pin_dc_, 0);
 125:../../libDaisy//src/dev/oled_ssd130x.h ****         spi_.BlockingTransmit(&cmd, 1);
 126:../../libDaisy//src/dev/oled_ssd130x.h ****     };
 127:../../libDaisy//src/dev/oled_ssd130x.h **** 
 128:../../libDaisy//src/dev/oled_ssd130x.h ****     void SendData(uint8_t* buff, size_t size)
 129:../../libDaisy//src/dev/oled_ssd130x.h ****     {
 130:../../libDaisy//src/dev/oled_ssd130x.h ****         dsy_gpio_write(&pin_dc_, 1);
 131:../../libDaisy//src/dev/oled_ssd130x.h ****         spi_.BlockingTransmit(buff, size);
 132:../../libDaisy//src/dev/oled_ssd130x.h ****     };
 133:../../libDaisy//src/dev/oled_ssd130x.h **** 
 134:../../libDaisy//src/dev/oled_ssd130x.h ****   private:
 135:../../libDaisy//src/dev/oled_ssd130x.h ****     SpiHandle spi_;
 136:../../libDaisy//src/dev/oled_ssd130x.h ****     dsy_gpio  pin_reset_;
 137:../../libDaisy//src/dev/oled_ssd130x.h ****     dsy_gpio  pin_dc_;
 138:../../libDaisy//src/dev/oled_ssd130x.h **** };
ARM GAS  /var/folders/hl/qgbwny5j0fd895c2c41bk3tw0000gp/T//cceIFtrC.s 			page 23


 139:../../libDaisy//src/dev/oled_ssd130x.h **** 
 140:../../libDaisy//src/dev/oled_ssd130x.h **** /**
 141:../../libDaisy//src/dev/oled_ssd130x.h ****  * Soft SPI Transport for SSD1306 / SSD1309 OLED display devices
 142:../../libDaisy//src/dev/oled_ssd130x.h ****  */
 143:../../libDaisy//src/dev/oled_ssd130x.h **** class SSD130x4WireSoftSpiTransport
 144:../../libDaisy//src/dev/oled_ssd130x.h **** {
 145:../../libDaisy//src/dev/oled_ssd130x.h ****   public:
 146:../../libDaisy//src/dev/oled_ssd130x.h ****     struct Config
 147:../../libDaisy//src/dev/oled_ssd130x.h ****     {
 148:../../libDaisy//src/dev/oled_ssd130x.h ****         Config()
 149:../../libDaisy//src/dev/oled_ssd130x.h ****         {
 150:../../libDaisy//src/dev/oled_ssd130x.h ****             // Initialize using defaults
 151:../../libDaisy//src/dev/oled_ssd130x.h ****             Defaults();
 152:../../libDaisy//src/dev/oled_ssd130x.h ****         }
 153:../../libDaisy//src/dev/oled_ssd130x.h ****         struct
 154:../../libDaisy//src/dev/oled_ssd130x.h ****         {
 155:../../libDaisy//src/dev/oled_ssd130x.h ****             uint32_t     sclk_delay;
 156:../../libDaisy//src/dev/oled_ssd130x.h ****             dsy_gpio_pin sclk;
 157:../../libDaisy//src/dev/oled_ssd130x.h ****             dsy_gpio_pin mosi;
 158:../../libDaisy//src/dev/oled_ssd130x.h ****             dsy_gpio_pin dc;
 159:../../libDaisy//src/dev/oled_ssd130x.h ****             dsy_gpio_pin reset;
 160:../../libDaisy//src/dev/oled_ssd130x.h ****         } pin_config;
 161:../../libDaisy//src/dev/oled_ssd130x.h ****         void Defaults()
 162:../../libDaisy//src/dev/oled_ssd130x.h ****         {
 163:../../libDaisy//src/dev/oled_ssd130x.h ****             pin_config.sclk_delay = 0; // fast as possible?!
 164:../../libDaisy//src/dev/oled_ssd130x.h ****             // SPI peripheral config
 165:../../libDaisy//src/dev/oled_ssd130x.h ****             pin_config.sclk = {DSY_GPIOD, 3}; /**< D10 - SPI2 SCK  */
 166:../../libDaisy//src/dev/oled_ssd130x.h ****             pin_config.mosi = {DSY_GPIOC, 3}; /**< D9  - SPI2 MOSI */
 167:../../libDaisy//src/dev/oled_ssd130x.h ****             // SSD130x control pin config
 168:../../libDaisy//src/dev/oled_ssd130x.h ****             pin_config.dc    = {DSY_GPIOC, 11}; //D2
 169:../../libDaisy//src/dev/oled_ssd130x.h ****             pin_config.reset = {DSY_GPIOC, 10}; //D3
 170:../../libDaisy//src/dev/oled_ssd130x.h ****         }
 171:../../libDaisy//src/dev/oled_ssd130x.h ****     };
 172:../../libDaisy//src/dev/oled_ssd130x.h ****     void Init(const Config& config)
 173:../../libDaisy//src/dev/oled_ssd130x.h ****     {
 174:../../libDaisy//src/dev/oled_ssd130x.h ****         // Initialize both GPIO
 175:../../libDaisy//src/dev/oled_ssd130x.h ****         pin_sclk_.mode = DSY_GPIO_MODE_OUTPUT_PP;
 176:../../libDaisy//src/dev/oled_ssd130x.h ****         pin_sclk_.pin  = config.pin_config.sclk;
 177:../../libDaisy//src/dev/oled_ssd130x.h ****         dsy_gpio_init(&pin_sclk_);
 178:../../libDaisy//src/dev/oled_ssd130x.h ****         dsy_gpio_write(&pin_sclk_, 1); //ClockPolarity::LOW
 179:../../libDaisy//src/dev/oled_ssd130x.h ****         clk_delay      = config.pin_config.sclk_delay;
 180:../../libDaisy//src/dev/oled_ssd130x.h ****         pin_mosi_.mode = DSY_GPIO_MODE_OUTPUT_PP;
 181:../../libDaisy//src/dev/oled_ssd130x.h ****         pin_mosi_.pin  = config.pin_config.mosi;
 182:../../libDaisy//src/dev/oled_ssd130x.h ****         dsy_gpio_init(&pin_mosi_);
 183:../../libDaisy//src/dev/oled_ssd130x.h ****         dsy_gpio_write(&pin_mosi_, 0);
 184:../../libDaisy//src/dev/oled_ssd130x.h **** 
 185:../../libDaisy//src/dev/oled_ssd130x.h ****         pin_dc_.mode = DSY_GPIO_MODE_OUTPUT_PP;
 186:../../libDaisy//src/dev/oled_ssd130x.h ****         pin_dc_.pin  = config.pin_config.dc;
 187:../../libDaisy//src/dev/oled_ssd130x.h ****         dsy_gpio_init(&pin_dc_);
 188:../../libDaisy//src/dev/oled_ssd130x.h ****         pin_reset_.mode = DSY_GPIO_MODE_OUTPUT_PP;
 189:../../libDaisy//src/dev/oled_ssd130x.h ****         pin_reset_.pin  = config.pin_config.reset;
 190:../../libDaisy//src/dev/oled_ssd130x.h ****         dsy_gpio_init(&pin_reset_);
 191:../../libDaisy//src/dev/oled_ssd130x.h **** 
 192:../../libDaisy//src/dev/oled_ssd130x.h ****         // Reset and Configure OLED.
 193:../../libDaisy//src/dev/oled_ssd130x.h ****         dsy_gpio_write(&pin_reset_, 0);
 194:../../libDaisy//src/dev/oled_ssd130x.h ****         System::Delay(10);
 195:../../libDaisy//src/dev/oled_ssd130x.h ****         dsy_gpio_write(&pin_reset_, 1);
ARM GAS  /var/folders/hl/qgbwny5j0fd895c2c41bk3tw0000gp/T//cceIFtrC.s 			page 24


 196:../../libDaisy//src/dev/oled_ssd130x.h ****         System::Delay(10);
 197:../../libDaisy//src/dev/oled_ssd130x.h ****     };
 198:../../libDaisy//src/dev/oled_ssd130x.h ****     void SendCommand(uint8_t cmd)
 199:../../libDaisy//src/dev/oled_ssd130x.h ****     {
 200:../../libDaisy//src/dev/oled_ssd130x.h ****         dsy_gpio_write(&pin_dc_, 0);
 201:../../libDaisy//src/dev/oled_ssd130x.h ****         SoftSpiTransmit(cmd);
 202:../../libDaisy//src/dev/oled_ssd130x.h ****     };
 203:../../libDaisy//src/dev/oled_ssd130x.h **** 
 204:../../libDaisy//src/dev/oled_ssd130x.h ****     void SendData(uint8_t* buff, size_t size)
 205:../../libDaisy//src/dev/oled_ssd130x.h ****     {
 206:../../libDaisy//src/dev/oled_ssd130x.h ****         dsy_gpio_write(&pin_dc_, 1);
 207:../../libDaisy//src/dev/oled_ssd130x.h ****         for(size_t i = 0; i < size; i++)
 208:../../libDaisy//src/dev/oled_ssd130x.h ****             SoftSpiTransmit(buff[i]);
 209:../../libDaisy//src/dev/oled_ssd130x.h ****     };
 210:../../libDaisy//src/dev/oled_ssd130x.h **** 
 211:../../libDaisy//src/dev/oled_ssd130x.h ****   private:
 212:../../libDaisy//src/dev/oled_ssd130x.h ****     void SoftSpiTransmit(uint8_t val)
 213:../../libDaisy//src/dev/oled_ssd130x.h ****     {
 214:../../libDaisy//src/dev/oled_ssd130x.h ****         // bit flip
 215:../../libDaisy//src/dev/oled_ssd130x.h ****         val = ((val & 0x01) << 7) | ((val & 0x02) << 5) | ((val & 0x04) << 3)
 216:../../libDaisy//src/dev/oled_ssd130x.h ****               | ((val & 0x08) << 1) | ((val & 0x10) >> 1) | ((val & 0x20) >> 3)
 217:../../libDaisy//src/dev/oled_ssd130x.h ****               | ((val & 0x40) >> 5) | ((val & 0x80) >> 7);
 218:../../libDaisy//src/dev/oled_ssd130x.h **** 
 219:../../libDaisy//src/dev/oled_ssd130x.h ****         for(uint8_t bit = 0u; bit < 8u; bit++)
 220:../../libDaisy//src/dev/oled_ssd130x.h ****         {
 221:../../libDaisy//src/dev/oled_ssd130x.h ****             dsy_gpio_write(&pin_mosi_, ((val & (1 << bit)) ? 1 : 0));
 222:../../libDaisy//src/dev/oled_ssd130x.h **** 
 223:../../libDaisy//src/dev/oled_ssd130x.h ****             System::DelayTicks(clk_delay);
 224:../../libDaisy//src/dev/oled_ssd130x.h **** 
 225:../../libDaisy//src/dev/oled_ssd130x.h ****             dsy_gpio_toggle(&pin_sclk_);
 226:../../libDaisy//src/dev/oled_ssd130x.h **** 
 227:../../libDaisy//src/dev/oled_ssd130x.h ****             System::DelayTicks(clk_delay);
 228:../../libDaisy//src/dev/oled_ssd130x.h **** 
 229:../../libDaisy//src/dev/oled_ssd130x.h ****             dsy_gpio_toggle(&pin_sclk_);
 230:../../libDaisy//src/dev/oled_ssd130x.h ****         }
 231:../../libDaisy//src/dev/oled_ssd130x.h ****     }
 232:../../libDaisy//src/dev/oled_ssd130x.h **** 
 233:../../libDaisy//src/dev/oled_ssd130x.h ****     uint32_t clk_delay;
 234:../../libDaisy//src/dev/oled_ssd130x.h ****     dsy_gpio pin_sclk_;
 235:../../libDaisy//src/dev/oled_ssd130x.h ****     dsy_gpio pin_mosi_;
 236:../../libDaisy//src/dev/oled_ssd130x.h ****     dsy_gpio pin_reset_;
 237:../../libDaisy//src/dev/oled_ssd130x.h ****     dsy_gpio pin_dc_;
 238:../../libDaisy//src/dev/oled_ssd130x.h **** };
 239:../../libDaisy//src/dev/oled_ssd130x.h **** 
 240:../../libDaisy//src/dev/oled_ssd130x.h **** 
 241:../../libDaisy//src/dev/oled_ssd130x.h **** /**
 242:../../libDaisy//src/dev/oled_ssd130x.h ****  * A driver implementation for the SSD1306/SSD1309
 243:../../libDaisy//src/dev/oled_ssd130x.h ****  */
 244:../../libDaisy//src/dev/oled_ssd130x.h **** template <size_t width, size_t height, typename Transport>
 245:../../libDaisy//src/dev/oled_ssd130x.h **** class SSD130xDriver
 246:../../libDaisy//src/dev/oled_ssd130x.h **** {
 247:../../libDaisy//src/dev/oled_ssd130x.h ****   public:
 248:../../libDaisy//src/dev/oled_ssd130x.h ****     struct Config
 249:../../libDaisy//src/dev/oled_ssd130x.h ****     {
 250:../../libDaisy//src/dev/oled_ssd130x.h ****         typename Transport::Config transport_config;
 251:../../libDaisy//src/dev/oled_ssd130x.h ****     };
 252:../../libDaisy//src/dev/oled_ssd130x.h **** 
ARM GAS  /var/folders/hl/qgbwny5j0fd895c2c41bk3tw0000gp/T//cceIFtrC.s 			page 25


 253:../../libDaisy//src/dev/oled_ssd130x.h ****     void Init(Config config)
 254:../../libDaisy//src/dev/oled_ssd130x.h ****     {
 255:../../libDaisy//src/dev/oled_ssd130x.h ****         transport_.Init(config.transport_config);
 256:../../libDaisy//src/dev/oled_ssd130x.h **** 
 257:../../libDaisy//src/dev/oled_ssd130x.h ****         // Init routine...
 258:../../libDaisy//src/dev/oled_ssd130x.h **** 
 259:../../libDaisy//src/dev/oled_ssd130x.h ****         // Display Off
 260:../../libDaisy//src/dev/oled_ssd130x.h ****         transport_.SendCommand(0xaE);
 261:../../libDaisy//src/dev/oled_ssd130x.h ****         // Dimension dependent commands...
 262:../../libDaisy//src/dev/oled_ssd130x.h ****         switch(height)
 263:../../libDaisy//src/dev/oled_ssd130x.h ****         {
 264:../../libDaisy//src/dev/oled_ssd130x.h ****             case 16:
 265:../../libDaisy//src/dev/oled_ssd130x.h ****                 // Display Clock Divide Ratio
 266:../../libDaisy//src/dev/oled_ssd130x.h ****                 transport_.SendCommand(0xD5);
 267:../../libDaisy//src/dev/oled_ssd130x.h ****                 transport_.SendCommand(0x60);
 268:../../libDaisy//src/dev/oled_ssd130x.h ****                 // Multiplex Ratio
 269:../../libDaisy//src/dev/oled_ssd130x.h ****                 transport_.SendCommand(0xA8);
 270:../../libDaisy//src/dev/oled_ssd130x.h ****                 transport_.SendCommand(0x0F);
 271:../../libDaisy//src/dev/oled_ssd130x.h ****                 // COM Pins
 272:../../libDaisy//src/dev/oled_ssd130x.h ****                 transport_.SendCommand(0xDA);
 273:../../libDaisy//src/dev/oled_ssd130x.h ****                 transport_.SendCommand(0x02);
 274:../../libDaisy//src/dev/oled_ssd130x.h ****                 break;
 275:../../libDaisy//src/dev/oled_ssd130x.h ****             case 32:
 276:../../libDaisy//src/dev/oled_ssd130x.h ****                 // Display Clock Divide Ratio
 277:../../libDaisy//src/dev/oled_ssd130x.h ****                 transport_.SendCommand(0xD5);
 278:../../libDaisy//src/dev/oled_ssd130x.h ****                 transport_.SendCommand(0x80);
 279:../../libDaisy//src/dev/oled_ssd130x.h ****                 // Multiplex Ratio
 280:../../libDaisy//src/dev/oled_ssd130x.h ****                 transport_.SendCommand(0xA8);
 281:../../libDaisy//src/dev/oled_ssd130x.h ****                 transport_.SendCommand(0x1F);
 282:../../libDaisy//src/dev/oled_ssd130x.h ****                 // COM Pins
 283:../../libDaisy//src/dev/oled_ssd130x.h ****                 transport_.SendCommand(0xDA);
 284:../../libDaisy//src/dev/oled_ssd130x.h ****                 if(width == 64)
 285:../../libDaisy//src/dev/oled_ssd130x.h ****                 {
 286:../../libDaisy//src/dev/oled_ssd130x.h ****                     transport_.SendCommand(0x12);
 287:../../libDaisy//src/dev/oled_ssd130x.h ****                 }
 288:../../libDaisy//src/dev/oled_ssd130x.h ****                 else
 289:../../libDaisy//src/dev/oled_ssd130x.h ****                 {
 290:../../libDaisy//src/dev/oled_ssd130x.h ****                     transport_.SendCommand(0x02);
 291:../../libDaisy//src/dev/oled_ssd130x.h ****                 }
 292:../../libDaisy//src/dev/oled_ssd130x.h **** 
 293:../../libDaisy//src/dev/oled_ssd130x.h ****                 break;
 294:../../libDaisy//src/dev/oled_ssd130x.h ****             case 48:
 295:../../libDaisy//src/dev/oled_ssd130x.h ****                 // Display Clock Divide Ratio
 296:../../libDaisy//src/dev/oled_ssd130x.h ****                 transport_.SendCommand(0xD5);
 297:../../libDaisy//src/dev/oled_ssd130x.h ****                 transport_.SendCommand(0x80);
 298:../../libDaisy//src/dev/oled_ssd130x.h ****                 // Multiplex Ratio
 299:../../libDaisy//src/dev/oled_ssd130x.h ****                 transport_.SendCommand(0xA8);
 300:../../libDaisy//src/dev/oled_ssd130x.h ****                 transport_.SendCommand(0x2F);
 301:../../libDaisy//src/dev/oled_ssd130x.h ****                 // COM Pins
 302:../../libDaisy//src/dev/oled_ssd130x.h ****                 transport_.SendCommand(0xDA);
 303:../../libDaisy//src/dev/oled_ssd130x.h ****                 transport_.SendCommand(0x12);
 304:../../libDaisy//src/dev/oled_ssd130x.h ****                 break;
 305:../../libDaisy//src/dev/oled_ssd130x.h ****             default: // 128
 306:../../libDaisy//src/dev/oled_ssd130x.h ****                 // Display Clock Divide Ratio
 307:../../libDaisy//src/dev/oled_ssd130x.h ****                 transport_.SendCommand(0xD5);
 308:../../libDaisy//src/dev/oled_ssd130x.h ****                 transport_.SendCommand(0x80);
 309:../../libDaisy//src/dev/oled_ssd130x.h ****                 // Multiplex Ratio
ARM GAS  /var/folders/hl/qgbwny5j0fd895c2c41bk3tw0000gp/T//cceIFtrC.s 			page 26


 310:../../libDaisy//src/dev/oled_ssd130x.h ****                 transport_.SendCommand(0xA8);
 311:../../libDaisy//src/dev/oled_ssd130x.h ****                 transport_.SendCommand(0x3F);
 312:../../libDaisy//src/dev/oled_ssd130x.h ****                 // COM Pins
 313:../../libDaisy//src/dev/oled_ssd130x.h ****                 transport_.SendCommand(0xDA);
 314:../../libDaisy//src/dev/oled_ssd130x.h ****                 transport_.SendCommand(0x12);
 315:../../libDaisy//src/dev/oled_ssd130x.h ****                 break;
 316:../../libDaisy//src/dev/oled_ssd130x.h ****         }
 317:../../libDaisy//src/dev/oled_ssd130x.h **** 
 318:../../libDaisy//src/dev/oled_ssd130x.h ****         // Display Offset
 319:../../libDaisy//src/dev/oled_ssd130x.h ****         transport_.SendCommand(0xD3);
 320:../../libDaisy//src/dev/oled_ssd130x.h ****         transport_.SendCommand(0x00);
 321:../../libDaisy//src/dev/oled_ssd130x.h ****         // Start Line Address
 322:../../libDaisy//src/dev/oled_ssd130x.h ****         transport_.SendCommand(0x40);
 323:../../libDaisy//src/dev/oled_ssd130x.h ****         // Normal Display
 324:../../libDaisy//src/dev/oled_ssd130x.h ****         transport_.SendCommand(0xA6);
 325:../../libDaisy//src/dev/oled_ssd130x.h ****         // All On Resume
 326:../../libDaisy//src/dev/oled_ssd130x.h ****         transport_.SendCommand(0xA4);
 327:../../libDaisy//src/dev/oled_ssd130x.h ****         // Charge Pump
 328:../../libDaisy//src/dev/oled_ssd130x.h ****         transport_.SendCommand(0x8D);
 329:../../libDaisy//src/dev/oled_ssd130x.h ****         transport_.SendCommand(0x14);
 330:../../libDaisy//src/dev/oled_ssd130x.h ****         // Set Segment Remap
 331:../../libDaisy//src/dev/oled_ssd130x.h ****         transport_.SendCommand(0xA1);
 332:../../libDaisy//src/dev/oled_ssd130x.h ****         // COM Output Scan Direction
 333:../../libDaisy//src/dev/oled_ssd130x.h ****         transport_.SendCommand(0xC8);
 334:../../libDaisy//src/dev/oled_ssd130x.h ****         // Contrast Control
 335:../../libDaisy//src/dev/oled_ssd130x.h ****         transport_.SendCommand(0x81);
 336:../../libDaisy//src/dev/oled_ssd130x.h ****         transport_.SendCommand(0x8F);
 337:../../libDaisy//src/dev/oled_ssd130x.h ****         // Pre Charge
 338:../../libDaisy//src/dev/oled_ssd130x.h ****         transport_.SendCommand(0xD9);
 339:../../libDaisy//src/dev/oled_ssd130x.h ****         transport_.SendCommand(0x25);
 340:../../libDaisy//src/dev/oled_ssd130x.h ****         // VCOM Detect
 341:../../libDaisy//src/dev/oled_ssd130x.h ****         transport_.SendCommand(0xDB);
 342:../../libDaisy//src/dev/oled_ssd130x.h ****         transport_.SendCommand(0x34);
 343:../../libDaisy//src/dev/oled_ssd130x.h **** 
 344:../../libDaisy//src/dev/oled_ssd130x.h **** 
 345:../../libDaisy//src/dev/oled_ssd130x.h ****         // Display On
 346:../../libDaisy//src/dev/oled_ssd130x.h ****         transport_.SendCommand(0xAF); //--turn on oled panel
 347:../../libDaisy//src/dev/oled_ssd130x.h ****     };
 348:../../libDaisy//src/dev/oled_ssd130x.h **** 
 349:../../libDaisy//src/dev/oled_ssd130x.h ****     size_t Width() const { return width; };
 350:../../libDaisy//src/dev/oled_ssd130x.h ****     size_t Height() const { return height; };
 351:../../libDaisy//src/dev/oled_ssd130x.h **** 
 352:../../libDaisy//src/dev/oled_ssd130x.h ****     void DrawPixel(uint_fast8_t x, uint_fast8_t y, bool on)
 353:../../libDaisy//src/dev/oled_ssd130x.h ****     {
 354:../../libDaisy//src/dev/oled_ssd130x.h ****         if(x >= width || y >= height)
 355:../../libDaisy//src/dev/oled_ssd130x.h ****             return;
 356:../../libDaisy//src/dev/oled_ssd130x.h ****         if(on)
 357:../../libDaisy//src/dev/oled_ssd130x.h ****             buffer_[x + (y / 8) * width] |= (1 << (y % 8));
 358:../../libDaisy//src/dev/oled_ssd130x.h ****         else
 359:../../libDaisy//src/dev/oled_ssd130x.h ****             buffer_[x + (y / 8) * width] &= ~(1 << (y % 8));
 360:../../libDaisy//src/dev/oled_ssd130x.h ****     }
 361:../../libDaisy//src/dev/oled_ssd130x.h **** 
 362:../../libDaisy//src/dev/oled_ssd130x.h ****     void Fill(bool on)
 264              		.loc 15 362 10 view .LVU47
 265              	.LBB498:
 363:../../libDaisy//src/dev/oled_ssd130x.h ****     {
 364:../../libDaisy//src/dev/oled_ssd130x.h ****         for(size_t i = 0; i < sizeof(buffer_); i++)
ARM GAS  /var/folders/hl/qgbwny5j0fd895c2c41bk3tw0000gp/T//cceIFtrC.s 			page 27


 266              		.loc 15 364 29 view .LVU48
 365:../../libDaisy//src/dev/oled_ssd130x.h ****         {
 366:../../libDaisy//src/dev/oled_ssd130x.h ****             buffer_[i] = on ? 0xff : 0x00;
 267              		.loc 15 366 24 is_stmt 0 view .LVU49
 268 0000 4942     		rsbs	r1, r1, #0
 269              	.LVL8:
 270              		.loc 15 366 24 view .LVU50
 271 0002 4FF48062 		mov	r2, #1024
 272 0006 1030     		adds	r0, r0, #16
 273              	.LVL9:
 274              		.loc 15 366 24 view .LVU51
 275 0008 C9B2     		uxtb	r1, r1
 276 000a FFF7FEBF 		b	memset
 277              	.LVL10:
 278              		.loc 15 366 24 view .LVU52
 279              	.LBE498:
 280              	.LBE497:
 281              		.cfi_endproc
 282              	.LFE5446:
 284 000e 00BF     		.section	.text._ZN5daisy11OledDisplayINS_13SSD130xDriverILj128ELj64ENS_19SSD130xI2CTransportEEEED0
 285              		.align	1
 286              		.p2align 2,,3
 287              		.weak	_ZN5daisy11OledDisplayINS_13SSD130xDriverILj128ELj64ENS_19SSD130xI2CTransportEEEED0Ev
 288              		.syntax unified
 289              		.thumb
 290              		.thumb_func
 291              		.fpu fpv5-d16
 293              	_ZN5daisy11OledDisplayINS_13SSD130xDriverILj128ELj64ENS_19SSD130xI2CTransportEEEED0Ev:
 294              	.LVL11:
 295              	.LFB5178:
  18:../../libDaisy//src/hid/disp/oled_display.h **** 
 296              		.loc 8 18 13 is_stmt 1 view -0
 297              		.cfi_startproc
 298              		@ args = 0, pretend = 0, frame = 0
 299              		@ frame_needed = 0, uses_anonymous_args = 0
  18:../../libDaisy//src/hid/disp/oled_display.h **** 
 300              		.loc 8 18 13 is_stmt 0 view .LVU54
 301 0000 10B5     		push	{r4, lr}
 302              		.cfi_def_cfa_offset 8
 303              		.cfi_offset 4, -8
 304              		.cfi_offset 14, -4
  18:../../libDaisy//src/hid/disp/oled_display.h **** 
 305              		.loc 8 18 13 view .LVU55
 306 0002 0446     		mov	r4, r0
 307              	.LVL12:
 308              	.LBB499:
 309              	.LBI499:
  18:../../libDaisy//src/hid/disp/oled_display.h **** 
 310              		.loc 8 18 13 is_stmt 1 view .LVU56
 311              	.LBB500:
 312              	.LBI500:
 313              		.loc 9 219 13 view .LVU57
 314              	.LBB501:
 315              	.LBI501:
  23:../../libDaisy//src/hid/disp/display.h **** 
 316              		.loc 9 23 13 view .LVU58
  23:../../libDaisy//src/hid/disp/display.h **** 
ARM GAS  /var/folders/hl/qgbwny5j0fd895c2c41bk3tw0000gp/T//cceIFtrC.s 			page 28


 317              		.loc 9 23 13 is_stmt 0 view .LVU59
 318              	.LBE501:
 319              	.LBE500:
 320              	.LBE499:
  18:../../libDaisy//src/hid/disp/oled_display.h **** 
 321              		.loc 8 18 29 view .LVU60
 322 0004 4FF48261 		mov	r1, #1040
 323 0008 FFF7FEFF 		bl	_ZdlPvj
 324              	.LVL13:
  18:../../libDaisy//src/hid/disp/oled_display.h **** 
 325              		.loc 8 18 29 view .LVU61
 326 000c 2046     		mov	r0, r4
 327 000e 10BD     		pop	{r4, pc}
  18:../../libDaisy//src/hid/disp/oled_display.h **** 
 328              		.loc 8 18 29 view .LVU62
 329              		.cfi_endproc
 330              	.LFE5178:
 332              		.section	.text._ZN5daisy11OledDisplayINS_13SSD130xDriverILj128ELj64ENS_19SSD130xI2CTransportEEEE6U
 333              		.align	1
 334              		.p2align 2,,3
 335              		.weak	_ZN5daisy11OledDisplayINS_13SSD130xDriverILj128ELj64ENS_19SSD130xI2CTransportEEEE6UpdateEv
 336              		.syntax unified
 337              		.thumb
 338              		.thumb_func
 339              		.fpu fpv5-d16
 341              	_ZN5daisy11OledDisplayINS_13SSD130xDriverILj128ELj64ENS_19SSD130xI2CTransportEEEE6UpdateEv:
 342              	.LVL14:
 343              	.LFB5454:
  35:../../libDaisy//src/hid/disp/oled_display.h **** 
  36:../../libDaisy//src/hid/disp/oled_display.h ****     /**
  37:../../libDaisy//src/hid/disp/oled_display.h ****     Sets the pixel at the specified coordinate to be on/off.
  38:../../libDaisy//src/hid/disp/oled_display.h ****     \param x   x Coordinate
  39:../../libDaisy//src/hid/disp/oled_display.h ****     \param y   y coordinate
  40:../../libDaisy//src/hid/disp/oled_display.h ****     \param on  on or off
  41:../../libDaisy//src/hid/disp/oled_display.h ****     */
  42:../../libDaisy//src/hid/disp/oled_display.h ****     void DrawPixel(uint_fast8_t x, uint_fast8_t y, bool on) override
  43:../../libDaisy//src/hid/disp/oled_display.h ****     {
  44:../../libDaisy//src/hid/disp/oled_display.h ****         driver_.DrawPixel(x, y, on);
  45:../../libDaisy//src/hid/disp/oled_display.h ****     }
  46:../../libDaisy//src/hid/disp/oled_display.h **** 
  47:../../libDaisy//src/hid/disp/oled_display.h ****     /** 
  48:../../libDaisy//src/hid/disp/oled_display.h ****     Writes the current display buffer to the OLED device using SPI or I2C depending on 
  49:../../libDaisy//src/hid/disp/oled_display.h ****     how the object was initialized.
  50:../../libDaisy//src/hid/disp/oled_display.h ****     */
  51:../../libDaisy//src/hid/disp/oled_display.h ****     void Update() override { driver_.Update(); }
 344              		.loc 8 51 10 is_stmt 1 view -0
 345              		.cfi_startproc
 346              		@ args = 0, pretend = 0, frame = 8
 347              		@ frame_needed = 0, uses_anonymous_args = 0
 348              		.loc 8 51 10 is_stmt 0 view .LVU64
 349 0000 2DE9F04F 		push	{r4, r5, r6, r7, r8, r9, r10, fp, lr}
 350              		.cfi_def_cfa_offset 36
 351              		.cfi_offset 4, -36
 352              		.cfi_offset 5, -32
 353              		.cfi_offset 6, -28
 354              		.cfi_offset 7, -24
 355              		.cfi_offset 8, -20
ARM GAS  /var/folders/hl/qgbwny5j0fd895c2c41bk3tw0000gp/T//cceIFtrC.s 			page 29


 356              		.cfi_offset 9, -16
 357              		.cfi_offset 10, -12
 358              		.cfi_offset 11, -8
 359              		.cfi_offset 14, -4
 360              	.LBB514:
 361              	.LBB515:
 362              	.LBB516:
 363              	.LBB517:
  45:../../libDaisy//src/dev/oled_ssd130x.h ****     };
 364              		.loc 15 45 30 view .LVU65
 365 0004 4FF0B008 		mov	r8, #176
 366              	.LBE517:
 367              	.LBE516:
 368              	.LBE515:
 369              	.LBE514:
 370              		.loc 8 51 10 view .LVU66
 371 0008 85B0     		sub	sp, sp, #20
 372              		.cfi_def_cfa_offset 56
 373              		.loc 8 51 10 view .LVU67
 374 000a 0546     		mov	r5, r0
 375              	.LVL15:
 376              	.LBB529:
 377              	.LBI514:
 367:../../libDaisy//src/dev/oled_ssd130x.h ****         }
 368:../../libDaisy//src/dev/oled_ssd130x.h ****     };
 369:../../libDaisy//src/dev/oled_ssd130x.h **** 
 370:../../libDaisy//src/dev/oled_ssd130x.h ****     /**
 371:../../libDaisy//src/dev/oled_ssd130x.h ****      * Update the display 
 372:../../libDaisy//src/dev/oled_ssd130x.h ****     */
 373:../../libDaisy//src/dev/oled_ssd130x.h ****     void Update()
 378              		.loc 15 373 10 is_stmt 1 view .LVU68
 379              	.LBB528:
 374:../../libDaisy//src/dev/oled_ssd130x.h ****     {
 375:../../libDaisy//src/dev/oled_ssd130x.h ****         uint8_t i;
 376:../../libDaisy//src/dev/oled_ssd130x.h ****         uint8_t high_column_addr;
 377:../../libDaisy//src/dev/oled_ssd130x.h ****         switch(height)
 378:../../libDaisy//src/dev/oled_ssd130x.h ****         {
 379:../../libDaisy//src/dev/oled_ssd130x.h ****             case 32: high_column_addr = 0x12; break;
 380:../../libDaisy//src/dev/oled_ssd130x.h **** 
 381:../../libDaisy//src/dev/oled_ssd130x.h ****             default: high_column_addr = 0x10; break;
 382:../../libDaisy//src/dev/oled_ssd130x.h ****         }
 383:../../libDaisy//src/dev/oled_ssd130x.h ****         for(i = 0; i < (height / 8); i++)
 380              		.loc 15 383 22 view .LVU69
 381              	.LBB520:
 382              	.LBB518:
  45:../../libDaisy//src/dev/oled_ssd130x.h ****     };
 383              		.loc 15 45 30 is_stmt 0 view .LVU70
 384 000c 00F10807 		add	r7, r0, #8
 385              	.LVL16:
  45:../../libDaisy//src/dev/oled_ssd130x.h ****     };
 386              		.loc 15 45 30 view .LVU71
 387 0010 00F18F06 		add	r6, r0, #143
 388 0014 00F28F49 		addw	r9, r0, #1167
 389              	.LVL17:
 390              	.L12:
  45:../../libDaisy//src/dev/oled_ssd130x.h ****     };
 391              		.loc 15 45 30 view .LVU72
ARM GAS  /var/folders/hl/qgbwny5j0fd895c2c41bk3tw0000gp/T//cceIFtrC.s 			page 30


 392              	.LBE518:
 393              	.LBI516:
  42:../../libDaisy//src/dev/oled_ssd130x.h ****     {
 394              		.loc 15 42 10 is_stmt 1 view .LVU73
 395              	.LBB519:
  44:../../libDaisy//src/dev/oled_ssd130x.h ****         i2c_.TransmitBlocking(i2c_address_, buf, 2, 1000);
 396              		.loc 15 44 9 view .LVU74
  45:../../libDaisy//src/dev/oled_ssd130x.h ****     };
 397              		.loc 15 45 30 is_stmt 0 view .LVU75
 398 0018 4FF47A7B 		mov	fp, #1000
  44:../../libDaisy//src/dev/oled_ssd130x.h ****         i2c_.TransmitBlocking(i2c_address_, buf, 2, 1000);
 399              		.loc 15 44 17 view .LVU76
 400 001c 4FF0000A 		mov	r10, #0
  45:../../libDaisy//src/dev/oled_ssd130x.h ****     };
 401              		.loc 15 45 30 view .LVU77
 402 0020 297B     		ldrb	r1, [r5, #12]	@ zero_extendqisi2
 403 0022 0223     		movs	r3, #2
 404 0024 03AA     		add	r2, sp, #12
 405 0026 3846     		mov	r0, r7
 406 0028 CDF800B0 		str	fp, [sp]
 407 002c A6F18004 		sub	r4, r6, #128
  44:../../libDaisy//src/dev/oled_ssd130x.h ****         i2c_.TransmitBlocking(i2c_address_, buf, 2, 1000);
 408              		.loc 15 44 17 view .LVU78
 409 0030 8DF80CA0 		strb	r10, [sp, #12]
  44:../../libDaisy//src/dev/oled_ssd130x.h ****         i2c_.TransmitBlocking(i2c_address_, buf, 2, 1000);
 410              		.loc 15 44 36 view .LVU79
 411 0034 8DF80D80 		strb	r8, [sp, #13]
  45:../../libDaisy//src/dev/oled_ssd130x.h ****     };
 412              		.loc 15 45 9 is_stmt 1 view .LVU80
  45:../../libDaisy//src/dev/oled_ssd130x.h ****     };
 413              		.loc 15 45 30 is_stmt 0 view .LVU81
 414 0038 FFF7FEFF 		bl	_ZN5daisy9I2CHandle16TransmitBlockingEtPhtm
 415              	.LVL18:
  45:../../libDaisy//src/dev/oled_ssd130x.h ****     };
 416              		.loc 15 45 30 view .LVU82
 417              	.LBE519:
 418              	.LBE520:
 419              	.LBB521:
 420              	.LBI521:
  42:../../libDaisy//src/dev/oled_ssd130x.h ****     {
 421              		.loc 15 42 10 is_stmt 1 view .LVU83
 422              	.LBB522:
  44:../../libDaisy//src/dev/oled_ssd130x.h ****         i2c_.TransmitBlocking(i2c_address_, buf, 2, 1000);
 423              		.loc 15 44 9 view .LVU84
  45:../../libDaisy//src/dev/oled_ssd130x.h ****     };
 424              		.loc 15 45 30 is_stmt 0 view .LVU85
 425 003c 297B     		ldrb	r1, [r5, #12]	@ zero_extendqisi2
 426 003e 0223     		movs	r3, #2
 427 0040 03AA     		add	r2, sp, #12
 428 0042 3846     		mov	r0, r7
 429 0044 CDF800B0 		str	fp, [sp]
  44:../../libDaisy//src/dev/oled_ssd130x.h ****         i2c_.TransmitBlocking(i2c_address_, buf, 2, 1000);
 430              		.loc 15 44 17 view .LVU86
 431 0048 8DF80CA0 		strb	r10, [sp, #12]
  44:../../libDaisy//src/dev/oled_ssd130x.h ****         i2c_.TransmitBlocking(i2c_address_, buf, 2, 1000);
 432              		.loc 15 44 36 view .LVU87
 433 004c 8DF80DA0 		strb	r10, [sp, #13]
ARM GAS  /var/folders/hl/qgbwny5j0fd895c2c41bk3tw0000gp/T//cceIFtrC.s 			page 31


  45:../../libDaisy//src/dev/oled_ssd130x.h ****     };
 434              		.loc 15 45 9 is_stmt 1 view .LVU88
  45:../../libDaisy//src/dev/oled_ssd130x.h ****     };
 435              		.loc 15 45 30 is_stmt 0 view .LVU89
 436 0050 FFF7FEFF 		bl	_ZN5daisy9I2CHandle16TransmitBlockingEtPhtm
 437              	.LVL19:
  45:../../libDaisy//src/dev/oled_ssd130x.h ****     };
 438              		.loc 15 45 30 view .LVU90
 439              	.LBE522:
 440              	.LBE521:
 441              	.LBB523:
 442              	.LBI523:
  42:../../libDaisy//src/dev/oled_ssd130x.h ****     {
 443              		.loc 15 42 10 is_stmt 1 view .LVU91
 444              	.LBB524:
  44:../../libDaisy//src/dev/oled_ssd130x.h ****         i2c_.TransmitBlocking(i2c_address_, buf, 2, 1000);
 445              		.loc 15 44 9 view .LVU92
  44:../../libDaisy//src/dev/oled_ssd130x.h ****         i2c_.TransmitBlocking(i2c_address_, buf, 2, 1000);
 446              		.loc 15 44 36 is_stmt 0 view .LVU93
 447 0054 4FF0100C 		mov	ip, #16
  45:../../libDaisy//src/dev/oled_ssd130x.h ****     };
 448              		.loc 15 45 30 view .LVU94
 449 0058 297B     		ldrb	r1, [r5, #12]	@ zero_extendqisi2
 450 005a 0223     		movs	r3, #2
 451 005c 03AA     		add	r2, sp, #12
 452 005e 3846     		mov	r0, r7
 453 0060 CDF800B0 		str	fp, [sp]
  44:../../libDaisy//src/dev/oled_ssd130x.h ****         i2c_.TransmitBlocking(i2c_address_, buf, 2, 1000);
 454              		.loc 15 44 17 view .LVU95
 455 0064 8DF80CA0 		strb	r10, [sp, #12]
  44:../../libDaisy//src/dev/oled_ssd130x.h ****         i2c_.TransmitBlocking(i2c_address_, buf, 2, 1000);
 456              		.loc 15 44 36 view .LVU96
 457 0068 8DF80DC0 		strb	ip, [sp, #13]
  45:../../libDaisy//src/dev/oled_ssd130x.h ****     };
 458              		.loc 15 45 9 is_stmt 1 view .LVU97
  45:../../libDaisy//src/dev/oled_ssd130x.h ****     };
 459              		.loc 15 45 30 is_stmt 0 view .LVU98
 460 006c FFF7FEFF 		bl	_ZN5daisy9I2CHandle16TransmitBlockingEtPhtm
 461              	.LVL20:
  45:../../libDaisy//src/dev/oled_ssd130x.h ****     };
 462              		.loc 15 45 30 view .LVU99
 463              	.LBE524:
 464              	.LBE523:
 465              	.LBB525:
 466              	.LBI525:
  48:../../libDaisy//src/dev/oled_ssd130x.h ****     {
 467              		.loc 15 48 10 is_stmt 1 view .LVU100
 468              	.LBB526:
  50:../../libDaisy//src/dev/oled_ssd130x.h ****         {
 469              		.loc 15 50 29 view .LVU101
 470              	.L11:
 471              	.LBB527:
  52:../../libDaisy//src/dev/oled_ssd130x.h ****             i2c_.TransmitBlocking(i2c_address_, buf, 2, 1000);
 472              		.loc 15 52 13 view .LVU102
  53:../../libDaisy//src/dev/oled_ssd130x.h ****         }
 473              		.loc 15 53 34 is_stmt 0 view .LVU103
 474 0070 4FF47A70 		mov	r0, #1000
ARM GAS  /var/folders/hl/qgbwny5j0fd895c2c41bk3tw0000gp/T//cceIFtrC.s 			page 32


  52:../../libDaisy//src/dev/oled_ssd130x.h ****             i2c_.TransmitBlocking(i2c_address_, buf, 2, 1000);
 475              		.loc 15 52 44 view .LVU104
 476 0074 14F801CF 		ldrb	ip, [r4, #1]!	@ zero_extendqisi2
 477              	.LVL21:
  52:../../libDaisy//src/dev/oled_ssd130x.h ****             i2c_.TransmitBlocking(i2c_address_, buf, 2, 1000);
 478              		.loc 15 52 21 view .LVU105
 479 0078 4FF0400E 		mov	lr, #64
  53:../../libDaisy//src/dev/oled_ssd130x.h ****         }
 480              		.loc 15 53 34 view .LVU106
 481 007c 297B     		ldrb	r1, [r5, #12]	@ zero_extendqisi2
 482 007e 0223     		movs	r3, #2
 483 0080 0090     		str	r0, [sp]
 484 0082 03AA     		add	r2, sp, #12
 485 0084 3846     		mov	r0, r7
  52:../../libDaisy//src/dev/oled_ssd130x.h ****             i2c_.TransmitBlocking(i2c_address_, buf, 2, 1000);
 486              		.loc 15 52 21 view .LVU107
 487 0086 8DF80CE0 		strb	lr, [sp, #12]
  52:../../libDaisy//src/dev/oled_ssd130x.h ****             i2c_.TransmitBlocking(i2c_address_, buf, 2, 1000);
 488              		.loc 15 52 44 view .LVU108
 489 008a 8DF80DC0 		strb	ip, [sp, #13]
  53:../../libDaisy//src/dev/oled_ssd130x.h ****         }
 490              		.loc 15 53 13 is_stmt 1 view .LVU109
  53:../../libDaisy//src/dev/oled_ssd130x.h ****         }
 491              		.loc 15 53 34 is_stmt 0 view .LVU110
 492 008e FFF7FEFF 		bl	_ZN5daisy9I2CHandle16TransmitBlockingEtPhtm
 493              	.LVL22:
 494              	.LBE527:
  50:../../libDaisy//src/dev/oled_ssd130x.h ****         {
 495              		.loc 15 50 9 is_stmt 1 view .LVU111
  50:../../libDaisy//src/dev/oled_ssd130x.h ****         {
 496              		.loc 15 50 29 view .LVU112
 497 0092 B442     		cmp	r4, r6
 498 0094 ECD1     		bne	.L11
 499              	.LVL23:
  50:../../libDaisy//src/dev/oled_ssd130x.h ****         {
 500              		.loc 15 50 29 is_stmt 0 view .LVU113
 501              	.LBE526:
 502              	.LBE525:
 503              		.loc 15 383 9 is_stmt 1 view .LVU114
 504              		.loc 15 383 22 view .LVU115
 505 0096 04F18006 		add	r6, r4, #128
 506 009a 08F10108 		add	r8, r8, #1
 507              	.LVL24:
 508              		.loc 15 383 22 is_stmt 0 view .LVU116
 509 009e 4E45     		cmp	r6, r9
 510 00a0 5FFA88F8 		uxtb	r8, r8
 511 00a4 B8D1     		bne	.L12
 512              	.LBE528:
 513              	.LBE529:
 514              		.loc 8 51 48 view .LVU117
 515 00a6 05B0     		add	sp, sp, #20
 516              		.cfi_def_cfa_offset 36
 517              		@ sp needed
 518 00a8 BDE8F08F 		pop	{r4, r5, r6, r7, r8, r9, r10, fp, pc}
 519              		.loc 8 51 48 view .LVU118
 520              		.cfi_endproc
 521              	.LFE5454:
ARM GAS  /var/folders/hl/qgbwny5j0fd895c2c41bk3tw0000gp/T//cceIFtrC.s 			page 33


 523              		.section	.text._Z13AudioCallbackPKPKfPPfj,"ax",%progbits
 524              		.align	1
 525              		.p2align 2,,3
 526              		.global	_Z13AudioCallbackPKPKfPPfj
 527              		.syntax unified
 528              		.thumb
 529              		.thumb_func
 530              		.fpu fpv5-d16
 532              	_Z13AudioCallbackPKPKfPPfj:
 533              	.LVL25:
 534              	.LFB4857:
 535              		.file 16 "ifft.cpp"
   1:ifft.cpp      **** #include "daisy_patch_sm.h"
   2:ifft.cpp      **** #include "daisysp.h"
   3:ifft.cpp      **** #include "patch_bay.h"
   4:ifft.cpp      **** #include "arm_const_structs.h"
   5:ifft.cpp      **** #include "arm_math.h"
   6:ifft.cpp      **** 
   7:ifft.cpp      **** using namespace daisy;
   8:ifft.cpp      **** using namespace patch_sm;
   9:ifft.cpp      **** using namespace daisysp;
  10:ifft.cpp      **** 
  11:ifft.cpp      **** DaisyPatchSM 	hw;
  12:ifft.cpp      **** Patch_Bay		pb;
  13:ifft.cpp      **** 
  14:ifft.cpp      **** //note i used 512 and 512 like in the struct you declared!
  15:ifft.cpp      **** #define SAMPLE_BUFFER_LENGTH 1024
  16:ifft.cpp      **** #define SAMPLE_BUFFER_LENGTH_HALF 512
  17:ifft.cpp      **** 
  18:ifft.cpp      **** arm_rfft_fast_instance_f32 fft = {   //note the name of the instance here
  19:ifft.cpp      **** 	{ 512, twiddleCoef_512, armBitRevIndexTable512, ARMBITREVINDEXTABLE_512_TABLE_LENGTH },
  20:ifft.cpp      **** 	1024u,
  21:ifft.cpp      **** 	(float32_t *)twiddleCoef_rfft_1024
  22:ifft.cpp      **** };
  23:ifft.cpp      **** 
  24:ifft.cpp      **** /* -------------------------------------------------------------------
  25:ifft.cpp      **** * External Input and Output buffer Declarations for FFT Bin Example
  26:ifft.cpp      **** * ------------------------------------------------------------------- */
  27:ifft.cpp      **** static float32_t fftInput[SAMPLE_BUFFER_LENGTH];
  28:ifft.cpp      **** static float32_t fftOutput[SAMPLE_BUFFER_LENGTH];
  29:ifft.cpp      **** static float32_t ifftOutput[SAMPLE_BUFFER_LENGTH];
  30:ifft.cpp      **** 
  31:ifft.cpp      **** /* ------------------------------------------------------------------
  32:ifft.cpp      **** * Global variables for FFT Bin Example
  33:ifft.cpp      **** * ------------------------------------------------------------------- */
  34:ifft.cpp      **** // globals, so do_fft() knows when to run
  35:ifft.cpp      **** int fft_buf_index = 0;
  36:ifft.cpp      **** int ifft_buf_index = 0;
  37:ifft.cpp      **** float ps_amt;
  38:ifft.cpp      **** float output;
  39:ifft.cpp      **** 
  40:ifft.cpp      **** void fft_proc();
  41:ifft.cpp      **** void Process(float input);
  42:ifft.cpp      **** void Buffers();
  43:ifft.cpp      **** 
  44:ifft.cpp      **** void AudioCallback(AudioHandle::InputBuffer in, AudioHandle::OutputBuffer out, size_t size)
  45:ifft.cpp      **** {
ARM GAS  /var/folders/hl/qgbwny5j0fd895c2c41bk3tw0000gp/T//cceIFtrC.s 			page 34


 536              		.loc 16 45 1 is_stmt 1 view -0
 537              		.cfi_startproc
 538              		@ args = 0, pretend = 0, frame = 0
 539              		@ frame_needed = 0, uses_anonymous_args = 0
  46:ifft.cpp      **** 	hw.ProcessAllControls();
 540              		.loc 16 46 2 view .LVU120
 541              	.LBB542:
 542              	.LBI542:
  66:../../libDaisy//src/daisy_patch_sm.h **** 
  67:../../libDaisy//src/daisy_patch_sm.h ****         /** Initializes the memories, and core peripherals for the Daisy Patch SM */
  68:../../libDaisy//src/daisy_patch_sm.h ****         void Init();
  69:../../libDaisy//src/daisy_patch_sm.h **** 
  70:../../libDaisy//src/daisy_patch_sm.h ****         /** Starts a non-interleaving audio callback */
  71:../../libDaisy//src/daisy_patch_sm.h ****         void StartAudio(AudioHandle::AudioCallback cb);
  72:../../libDaisy//src/daisy_patch_sm.h **** 
  73:../../libDaisy//src/daisy_patch_sm.h ****         /** Starts an interleaving audio callback */
  74:../../libDaisy//src/daisy_patch_sm.h ****         void StartAudio(AudioHandle::InterleavingAudioCallback cb);
  75:../../libDaisy//src/daisy_patch_sm.h **** 
  76:../../libDaisy//src/daisy_patch_sm.h ****         /** Changes the callback that is executing.
  77:../../libDaisy//src/daisy_patch_sm.h ****          *  This may cause clicks if done while audio is processing.
  78:../../libDaisy//src/daisy_patch_sm.h ****          */
  79:../../libDaisy//src/daisy_patch_sm.h ****         void ChangeAudioCallback(AudioHandle::AudioCallback cb);
  80:../../libDaisy//src/daisy_patch_sm.h **** 
  81:../../libDaisy//src/daisy_patch_sm.h ****         /** Changes the callback that is executing.
  82:../../libDaisy//src/daisy_patch_sm.h ****          *  This may cause clicks if done while audio is processing.
  83:../../libDaisy//src/daisy_patch_sm.h ****          */
  84:../../libDaisy//src/daisy_patch_sm.h ****         void ChangeAudioCallback(AudioHandle::InterleavingAudioCallback cb);
  85:../../libDaisy//src/daisy_patch_sm.h **** 
  86:../../libDaisy//src/daisy_patch_sm.h ****         /** Stops the transmission of audio. */
  87:../../libDaisy//src/daisy_patch_sm.h ****         void StopAudio();
  88:../../libDaisy//src/daisy_patch_sm.h **** 
  89:../../libDaisy//src/daisy_patch_sm.h ****         /** Sets the number of samples processed in an audio callback. 
  90:../../libDaisy//src/daisy_patch_sm.h ****          *  This will only take effect on the next invocation of `StartAudio`
  91:../../libDaisy//src/daisy_patch_sm.h ****          */
  92:../../libDaisy//src/daisy_patch_sm.h ****         void SetAudioBlockSize(size_t size);
  93:../../libDaisy//src/daisy_patch_sm.h **** 
  94:../../libDaisy//src/daisy_patch_sm.h ****         /** Sets the samplerate for the audio engine 
  95:../../libDaisy//src/daisy_patch_sm.h ****          *  This will set it to the closest valid samplerate. Options being:
  96:../../libDaisy//src/daisy_patch_sm.h ****          *  8kHz, 16kHz, 32kHz, 48kHz, and 96kHz
  97:../../libDaisy//src/daisy_patch_sm.h ****          */
  98:../../libDaisy//src/daisy_patch_sm.h ****         void SetAudioSampleRate(float sr);
  99:../../libDaisy//src/daisy_patch_sm.h **** 
 100:../../libDaisy//src/daisy_patch_sm.h ****         void SetAudioSampleRate(SaiHandle::Config::SampleRate sample_rate);
 101:../../libDaisy//src/daisy_patch_sm.h **** 
 102:../../libDaisy//src/daisy_patch_sm.h ****         /** Returns the number of samples processed in an audio callback */
 103:../../libDaisy//src/daisy_patch_sm.h ****         size_t AudioBlockSize();
 104:../../libDaisy//src/daisy_patch_sm.h **** 
 105:../../libDaisy//src/daisy_patch_sm.h ****         /** Returns the audio engine's samplerate in Hz */
 106:../../libDaisy//src/daisy_patch_sm.h ****         float AudioSampleRate();
 107:../../libDaisy//src/daisy_patch_sm.h **** 
 108:../../libDaisy//src/daisy_patch_sm.h ****         /** Returns the rate at which the audio callback will be called in Hz */
 109:../../libDaisy//src/daisy_patch_sm.h ****         float AudioCallbackRate();
 110:../../libDaisy//src/daisy_patch_sm.h **** 
 111:../../libDaisy//src/daisy_patch_sm.h ****         /** Starts the Control ADCs 
 112:../../libDaisy//src/daisy_patch_sm.h ****          * 
 113:../../libDaisy//src/daisy_patch_sm.h ****          *  This is started automatically when Init() is called.
 114:../../libDaisy//src/daisy_patch_sm.h ****          */
ARM GAS  /var/folders/hl/qgbwny5j0fd895c2c41bk3tw0000gp/T//cceIFtrC.s 			page 35


 115:../../libDaisy//src/daisy_patch_sm.h ****         void StartAdc();
 116:../../libDaisy//src/daisy_patch_sm.h **** 
 117:../../libDaisy//src/daisy_patch_sm.h ****         /** Stops the Control ADCs */
 118:../../libDaisy//src/daisy_patch_sm.h ****         void StopAdc();
 119:../../libDaisy//src/daisy_patch_sm.h **** 
 120:../../libDaisy//src/daisy_patch_sm.h ****         /** Reads and filters all of the analog control inputs */
 121:../../libDaisy//src/daisy_patch_sm.h ****         void ProcessAnalogControls();
 122:../../libDaisy//src/daisy_patch_sm.h **** 
 123:../../libDaisy//src/daisy_patch_sm.h ****         /** Reads and debounces any of the digital control inputs 
 124:../../libDaisy//src/daisy_patch_sm.h ****          *  This does nothing on this board at this time.
 125:../../libDaisy//src/daisy_patch_sm.h ****          */
 126:../../libDaisy//src/daisy_patch_sm.h ****         void ProcessDigitalControls();
 127:../../libDaisy//src/daisy_patch_sm.h **** 
 128:../../libDaisy//src/daisy_patch_sm.h ****         /** Does both of the above */
 129:../../libDaisy//src/daisy_patch_sm.h ****         void ProcessAllControls()
 543              		.loc 1 129 14 view .LVU121
 544              	.LBB543:
 130:../../libDaisy//src/daisy_patch_sm.h ****         {
 131:../../libDaisy//src/daisy_patch_sm.h ****             ProcessAnalogControls();
 545              		.loc 1 131 13 view .LVU122
 546              	.LBE543:
 547              	.LBE542:
  45:ifft.cpp      **** 	hw.ProcessAllControls();
 548              		.loc 16 45 1 is_stmt 0 view .LVU123
 549 0000 2DE9F84F 		push	{r3, r4, r5, r6, r7, r8, r9, r10, fp, lr}
 550              		.cfi_def_cfa_offset 40
 551              		.cfi_offset 3, -40
 552              		.cfi_offset 4, -36
 553              		.cfi_offset 5, -32
 554              		.cfi_offset 6, -28
 555              		.cfi_offset 7, -24
 556              		.cfi_offset 8, -20
 557              		.cfi_offset 9, -16
 558              		.cfi_offset 10, -12
 559              		.cfi_offset 11, -8
 560              		.cfi_offset 14, -4
  45:ifft.cpp      **** 	hw.ProcessAllControls();
 561              		.loc 16 45 1 view .LVU124
 562 0004 8046     		mov	r8, r0
 563              	.LBB546:
 564              	.LBB544:
 565              		.loc 1 131 34 view .LVU125
 566 0006 3248     		ldr	r0, .L35
 567              	.LVL26:
 568              		.loc 1 131 34 view .LVU126
 569              	.LBE544:
 570              	.LBE546:
  45:ifft.cpp      **** 	hw.ProcessAllControls();
 571              		.loc 16 45 1 view .LVU127
 572 0008 0F46     		mov	r7, r1
 573 000a 1646     		mov	r6, r2
 574              	.LBB547:
 575              	.LBB545:
 576              		.loc 1 131 34 view .LVU128
 577 000c FFF7FEFF 		bl	_ZN5daisy8patch_sm12DaisyPatchSM21ProcessAnalogControlsEv
 578              	.LVL27:
 132:../../libDaisy//src/daisy_patch_sm.h ****             ProcessDigitalControls();
ARM GAS  /var/folders/hl/qgbwny5j0fd895c2c41bk3tw0000gp/T//cceIFtrC.s 			page 36


 579              		.loc 1 132 13 is_stmt 1 view .LVU129
 580              		.loc 1 132 35 is_stmt 0 view .LVU130
 581 0010 2F48     		ldr	r0, .L35
 582 0012 FFF7FEFF 		bl	_ZN5daisy8patch_sm12DaisyPatchSM22ProcessDigitalControlsEv
 583              	.LVL28:
 584              		.loc 1 132 35 view .LVU131
 585              	.LBE545:
 586              	.LBE547:
  47:ifft.cpp      **** 	ps_amt = fmap(hw.GetAdcValue(CV_1), 0.f, 10.f);
 587              		.loc 16 47 2 is_stmt 1 view .LVU132
 588              		.loc 16 47 15 is_stmt 0 view .LVU133
 589 0016 0021     		movs	r1, #0
 590 0018 2D48     		ldr	r0, .L35
 591 001a FFF7FEFF 		bl	_ZN5daisy8patch_sm12DaisyPatchSM11GetAdcValueEi
 592              	.LVL29:
 593              	.LBB548:
 594              	.LBI548:
 595              		.file 17 "../../DaisySP//Source/Utility/dsp.h"
   1:../../DaisySP//Source/Utility/dsp.h **** /** Helpful defines, functions, and other utilities for use in/with daisysp modules.
   2:../../DaisySP//Source/Utility/dsp.h **** */
   3:../../DaisySP//Source/Utility/dsp.h **** #pragma once
   4:../../DaisySP//Source/Utility/dsp.h **** #ifndef DSY_CORE_DSP
   5:../../DaisySP//Source/Utility/dsp.h **** #define DSY_CORE_DSP
   6:../../DaisySP//Source/Utility/dsp.h **** #include <cassert>
   7:../../DaisySP//Source/Utility/dsp.h **** #include <cstdint>
   8:../../DaisySP//Source/Utility/dsp.h **** #include <random>
   9:../../DaisySP//Source/Utility/dsp.h **** #include <cmath>
  10:../../DaisySP//Source/Utility/dsp.h **** 
  11:../../DaisySP//Source/Utility/dsp.h **** /** PIs
  12:../../DaisySP//Source/Utility/dsp.h **** */
  13:../../DaisySP//Source/Utility/dsp.h **** #define PI_F 3.1415927410125732421875f
  14:../../DaisySP//Source/Utility/dsp.h **** #define TWOPI_F (2.0f * PI_F)
  15:../../DaisySP//Source/Utility/dsp.h **** #define HALFPI_F (PI_F * 0.5f)
  16:../../DaisySP//Source/Utility/dsp.h **** #define DSY_MIN(in, mn) (in < mn ? in : mn)
  17:../../DaisySP//Source/Utility/dsp.h **** #define DSY_MAX(in, mx) (in > mx ? in : mx)
  18:../../DaisySP//Source/Utility/dsp.h **** #define DSY_CLAMP(in, mn, mx) (DSY_MIN(DSY_MAX(in, mn), mx))
  19:../../DaisySP//Source/Utility/dsp.h **** #define DSY_COUNTOF(_arr) (sizeof(_arr) / sizeof(_arr[0]))
  20:../../DaisySP//Source/Utility/dsp.h **** 
  21:../../DaisySP//Source/Utility/dsp.h **** namespace daisysp
  22:../../DaisySP//Source/Utility/dsp.h **** {
  23:../../DaisySP//Source/Utility/dsp.h **** //Avoids division for random floats. e.g. rand() * kRandFrac
  24:../../DaisySP//Source/Utility/dsp.h **** static constexpr float kRandFrac = 1.f / (float)RAND_MAX;
  25:../../DaisySP//Source/Utility/dsp.h **** 
  26:../../DaisySP//Source/Utility/dsp.h **** //Convert from semitones to other units. e.g. 2 ^ (kOneTwelfth * x)
  27:../../DaisySP//Source/Utility/dsp.h **** static constexpr float kOneTwelfth = 1.f / 12.f;
  28:../../DaisySP//Source/Utility/dsp.h **** 
  29:../../DaisySP//Source/Utility/dsp.h **** /** efficient floating point min/max
  30:../../DaisySP//Source/Utility/dsp.h **** c/o stephen mccaul
  31:../../DaisySP//Source/Utility/dsp.h **** */
  32:../../DaisySP//Source/Utility/dsp.h **** inline float fmax(float a, float b)
  33:../../DaisySP//Source/Utility/dsp.h **** {
  34:../../DaisySP//Source/Utility/dsp.h ****     float r;
  35:../../DaisySP//Source/Utility/dsp.h **** #ifdef __arm__
  36:../../DaisySP//Source/Utility/dsp.h ****     asm("vmaxnm.f32 %[d], %[n], %[m]" : [d] "=t"(r) : [n] "t"(a), [m] "t"(b) :);
  37:../../DaisySP//Source/Utility/dsp.h **** #else
  38:../../DaisySP//Source/Utility/dsp.h ****     r = (a > b) ? a : b;
  39:../../DaisySP//Source/Utility/dsp.h **** #endif // __arm__
ARM GAS  /var/folders/hl/qgbwny5j0fd895c2c41bk3tw0000gp/T//cceIFtrC.s 			page 37


  40:../../DaisySP//Source/Utility/dsp.h ****     return r;
  41:../../DaisySP//Source/Utility/dsp.h **** }
  42:../../DaisySP//Source/Utility/dsp.h **** 
  43:../../DaisySP//Source/Utility/dsp.h **** inline float fmin(float a, float b)
  44:../../DaisySP//Source/Utility/dsp.h **** {
  45:../../DaisySP//Source/Utility/dsp.h ****     float r;
  46:../../DaisySP//Source/Utility/dsp.h **** #ifdef __arm__
  47:../../DaisySP//Source/Utility/dsp.h ****     asm("vminnm.f32 %[d], %[n], %[m]" : [d] "=t"(r) : [n] "t"(a), [m] "t"(b) :);
  48:../../DaisySP//Source/Utility/dsp.h **** #else
  49:../../DaisySP//Source/Utility/dsp.h ****     r = (a < b) ? a : b;
  50:../../DaisySP//Source/Utility/dsp.h **** #endif // __arm__
  51:../../DaisySP//Source/Utility/dsp.h ****     return r;
  52:../../DaisySP//Source/Utility/dsp.h **** }
  53:../../DaisySP//Source/Utility/dsp.h **** 
  54:../../DaisySP//Source/Utility/dsp.h **** /** quick fp clamp
  55:../../DaisySP//Source/Utility/dsp.h **** */
  56:../../DaisySP//Source/Utility/dsp.h **** inline float fclamp(float in, float min, float max)
  57:../../DaisySP//Source/Utility/dsp.h **** {
  58:../../DaisySP//Source/Utility/dsp.h ****     return fmin(fmax(in, min), max);
  59:../../DaisySP//Source/Utility/dsp.h **** }
  60:../../DaisySP//Source/Utility/dsp.h **** 
  61:../../DaisySP//Source/Utility/dsp.h **** /** From Musicdsp.org "Fast power and root estimates for 32bit floats)
  62:../../DaisySP//Source/Utility/dsp.h **** Original code by Stefan Stenzel
  63:../../DaisySP//Source/Utility/dsp.h **** These are approximations
  64:../../DaisySP//Source/Utility/dsp.h **** */
  65:../../DaisySP//Source/Utility/dsp.h **** inline float fastpower(float f, int n)
  66:../../DaisySP//Source/Utility/dsp.h **** {
  67:../../DaisySP//Source/Utility/dsp.h ****     long *lp, l;
  68:../../DaisySP//Source/Utility/dsp.h ****     lp = (long *)(&f);
  69:../../DaisySP//Source/Utility/dsp.h ****     l  = *lp;
  70:../../DaisySP//Source/Utility/dsp.h ****     l -= 0x3F800000;
  71:../../DaisySP//Source/Utility/dsp.h ****     l <<= (n - 1);
  72:../../DaisySP//Source/Utility/dsp.h ****     l += 0x3F800000;
  73:../../DaisySP//Source/Utility/dsp.h ****     *lp = l;
  74:../../DaisySP//Source/Utility/dsp.h ****     return f;
  75:../../DaisySP//Source/Utility/dsp.h **** }
  76:../../DaisySP//Source/Utility/dsp.h **** 
  77:../../DaisySP//Source/Utility/dsp.h **** inline float fastroot(float f, int n)
  78:../../DaisySP//Source/Utility/dsp.h **** {
  79:../../DaisySP//Source/Utility/dsp.h ****     long *lp, l;
  80:../../DaisySP//Source/Utility/dsp.h ****     lp = (long *)(&f);
  81:../../DaisySP//Source/Utility/dsp.h ****     l  = *lp;
  82:../../DaisySP//Source/Utility/dsp.h ****     l -= 0x3F800000;
  83:../../DaisySP//Source/Utility/dsp.h ****     l >>= (n = 1);
  84:../../DaisySP//Source/Utility/dsp.h ****     l += 0x3F800000;
  85:../../DaisySP//Source/Utility/dsp.h ****     *lp = l;
  86:../../DaisySP//Source/Utility/dsp.h ****     return f;
  87:../../DaisySP//Source/Utility/dsp.h **** }
  88:../../DaisySP//Source/Utility/dsp.h **** 
  89:../../DaisySP//Source/Utility/dsp.h **** /** From http://openaudio.blogspot.com/2017/02/faster-log10-and-pow.html
  90:../../DaisySP//Source/Utility/dsp.h **** No approximation, pow10f(x) gives a 90% speed increase over powf(10.f, x)
  91:../../DaisySP//Source/Utility/dsp.h **** */
  92:../../DaisySP//Source/Utility/dsp.h **** inline float pow10f(float f)
  93:../../DaisySP//Source/Utility/dsp.h **** {
  94:../../DaisySP//Source/Utility/dsp.h ****     return expf(2.302585092994046f * f);
  95:../../DaisySP//Source/Utility/dsp.h **** }
  96:../../DaisySP//Source/Utility/dsp.h **** 
ARM GAS  /var/folders/hl/qgbwny5j0fd895c2c41bk3tw0000gp/T//cceIFtrC.s 			page 38


  97:../../DaisySP//Source/Utility/dsp.h **** /* Original code for fastlog2f by Dr. Paul Beckmann from the ARM community forum, adapted from the 
  98:../../DaisySP//Source/Utility/dsp.h **** About 25% performance increase over std::log10f
  99:../../DaisySP//Source/Utility/dsp.h **** */
 100:../../DaisySP//Source/Utility/dsp.h **** inline float fastlog2f(float f)
 101:../../DaisySP//Source/Utility/dsp.h **** {
 102:../../DaisySP//Source/Utility/dsp.h ****     float frac;
 103:../../DaisySP//Source/Utility/dsp.h ****     int   exp;
 104:../../DaisySP//Source/Utility/dsp.h ****     frac = frexpf(fabsf(f), &exp);
 105:../../DaisySP//Source/Utility/dsp.h ****     f    = 1.23149591368684f;
 106:../../DaisySP//Source/Utility/dsp.h ****     f *= frac;
 107:../../DaisySP//Source/Utility/dsp.h ****     f += -4.11852516267426f;
 108:../../DaisySP//Source/Utility/dsp.h ****     f *= frac;
 109:../../DaisySP//Source/Utility/dsp.h ****     f += 6.02197014179219f;
 110:../../DaisySP//Source/Utility/dsp.h ****     f *= frac;
 111:../../DaisySP//Source/Utility/dsp.h ****     f += -3.13396450166353f;
 112:../../DaisySP//Source/Utility/dsp.h ****     f += exp;
 113:../../DaisySP//Source/Utility/dsp.h ****     return (f);
 114:../../DaisySP//Source/Utility/dsp.h **** }
 115:../../DaisySP//Source/Utility/dsp.h **** 
 116:../../DaisySP//Source/Utility/dsp.h **** inline float fastlog10f(float f)
 117:../../DaisySP//Source/Utility/dsp.h **** {
 118:../../DaisySP//Source/Utility/dsp.h ****     return fastlog2f(f) * 0.3010299956639812f;
 119:../../DaisySP//Source/Utility/dsp.h **** }
 120:../../DaisySP//Source/Utility/dsp.h **** 
 121:../../DaisySP//Source/Utility/dsp.h **** /** Midi to frequency helper
 122:../../DaisySP//Source/Utility/dsp.h **** */
 123:../../DaisySP//Source/Utility/dsp.h **** inline float mtof(float m)
 124:../../DaisySP//Source/Utility/dsp.h **** {
 125:../../DaisySP//Source/Utility/dsp.h ****     return powf(2, (m - 69.0f) / 12.0f) * 440.0f;
 126:../../DaisySP//Source/Utility/dsp.h **** }
 127:../../DaisySP//Source/Utility/dsp.h **** 
 128:../../DaisySP//Source/Utility/dsp.h **** 
 129:../../DaisySP//Source/Utility/dsp.h **** /** one pole lpf
 130:../../DaisySP//Source/Utility/dsp.h **** out is passed by reference, and must be retained between
 131:../../DaisySP//Source/Utility/dsp.h **** calls to properly filter the signal
 132:../../DaisySP//Source/Utility/dsp.h **** coeff can be calculated:
 133:../../DaisySP//Source/Utility/dsp.h **** coeff = 1.0 / (time * sample_rate) ; where time is in seconds
 134:../../DaisySP//Source/Utility/dsp.h **** */
 135:../../DaisySP//Source/Utility/dsp.h **** inline void fonepole(float &out, float in, float coeff)
 136:../../DaisySP//Source/Utility/dsp.h **** {
 137:../../DaisySP//Source/Utility/dsp.h ****     out += coeff * (in - out);
 138:../../DaisySP//Source/Utility/dsp.h **** }
 139:../../DaisySP//Source/Utility/dsp.h **** 
 140:../../DaisySP//Source/Utility/dsp.h **** /** Curves to use with the fmap function */
 141:../../DaisySP//Source/Utility/dsp.h **** enum class Mapping
 142:../../DaisySP//Source/Utility/dsp.h **** {
 143:../../DaisySP//Source/Utility/dsp.h ****     LINEAR,
 144:../../DaisySP//Source/Utility/dsp.h ****     EXP,
 145:../../DaisySP//Source/Utility/dsp.h ****     LOG,
 146:../../DaisySP//Source/Utility/dsp.h **** };
 147:../../DaisySP//Source/Utility/dsp.h **** 
 148:../../DaisySP//Source/Utility/dsp.h **** /** Maps a float between a specified range, using a specified curve. 
 149:../../DaisySP//Source/Utility/dsp.h ****  * 
 150:../../DaisySP//Source/Utility/dsp.h ****  *  \param in a value between 0 to 1 that will be mapped to the new range.
 151:../../DaisySP//Source/Utility/dsp.h ****  *  \param min the new minimum value
 152:../../DaisySP//Source/Utility/dsp.h ****  *  \param max the new maxmimum value
 153:../../DaisySP//Source/Utility/dsp.h ****  *  \param curve a Mapping Value to adjust the response curve of the transformation
ARM GAS  /var/folders/hl/qgbwny5j0fd895c2c41bk3tw0000gp/T//cceIFtrC.s 			page 39


 154:../../DaisySP//Source/Utility/dsp.h ****  *               defaults to Linear. @see Mapping
 155:../../DaisySP//Source/Utility/dsp.h ****  * 
 156:../../DaisySP//Source/Utility/dsp.h ****  *  When using the log curve min and max, must be greater than zero.
 157:../../DaisySP//Source/Utility/dsp.h ****  * 
 158:../../DaisySP//Source/Utility/dsp.h ****  *  \retval returns the transformed float within the new range.
 159:../../DaisySP//Source/Utility/dsp.h **** */
 160:../../DaisySP//Source/Utility/dsp.h **** inline float
 161:../../DaisySP//Source/Utility/dsp.h **** fmap(float in, float min, float max, Mapping curve = Mapping::LINEAR)
 596              		.loc 17 161 1 is_stmt 1 view .LVU134
 597              	.LBE548:
 162:../../DaisySP//Source/Utility/dsp.h **** {
 163:../../DaisySP//Source/Utility/dsp.h ****     switch(curve)
 598              		.loc 17 163 5 view .LVU135
 599              	.LBB558:
 600              	.LBB549:
 164:../../DaisySP//Source/Utility/dsp.h ****     {
 165:../../DaisySP//Source/Utility/dsp.h ****         case Mapping::EXP:
 166:../../DaisySP//Source/Utility/dsp.h ****             return fclamp(min + (in * in) * (max - min), min, max);
 167:../../DaisySP//Source/Utility/dsp.h ****         case Mapping::LOG:
 168:../../DaisySP//Source/Utility/dsp.h ****         {
 169:../../DaisySP//Source/Utility/dsp.h ****             const float a = 1.f / log10f(max / min);
 170:../../DaisySP//Source/Utility/dsp.h ****             return fclamp(min * powf(10, in / a), min, max);
 171:../../DaisySP//Source/Utility/dsp.h ****         }
 172:../../DaisySP//Source/Utility/dsp.h ****         case Mapping::LINEAR:
 601              		.loc 17 172 9 view .LVU136
 173:../../DaisySP//Source/Utility/dsp.h ****         default: return fclamp(min + in * (max - min), min, max);
 602              		.loc 17 173 9 view .LVU137
 603              		.loc 17 173 18 view .LVU138
 604              		.loc 17 173 31 is_stmt 0 view .LVU139
 605 001e DFED2D6A 		vldr.32	s13, .L35+4
 606 0022 B2EE047A 		vmov.f32	s14, #1.0e+1
 607              	.LBE549:
 608              	.LBE558:
 609              		.loc 16 47 9 view .LVU140
 610 0026 2C4B     		ldr	r3, .L35+8
 611              	.LBB559:
 612              	.LBB556:
 613              		.loc 17 173 31 view .LVU141
 614 0028 F0EE667A 		vmov.f32	s15, s13
 615 002c E0EE077A 		vfma.f32	s15, s0, s14
 616              	.LVL30:
 617              	.LBB550:
 618              	.LBI550:
  56:../../DaisySP//Source/Utility/dsp.h **** {
 619              		.loc 17 56 14 is_stmt 1 view .LVU142
 620              	.LBE550:
 621              	.LBE556:
 622              	.LBE559:
  58:../../DaisySP//Source/Utility/dsp.h **** }
 623              		.loc 17 58 5 view .LVU143
 624              	.LBB560:
 625              	.LBB557:
 626              	.LBB555:
 627              	.LBB551:
 628              	.LBI551:
  32:../../DaisySP//Source/Utility/dsp.h **** {
 629              		.loc 17 32 14 view .LVU144
ARM GAS  /var/folders/hl/qgbwny5j0fd895c2c41bk3tw0000gp/T//cceIFtrC.s 			page 40


 630              	.LBB552:
  34:../../DaisySP//Source/Utility/dsp.h **** #ifdef __arm__
 631              		.loc 17 34 5 view .LVU145
  36:../../DaisySP//Source/Utility/dsp.h **** #else
 632              		.loc 17 36 5 view .LVU146
 633              		.syntax unified
 634              	@ 36 "../../DaisySP//Source/Utility/dsp.h" 1
 635 0030 C7FEA67A 		vmaxnm.f32 s15, s15, s13
 636              	@ 0 "" 2
 637              	.LVL31:
  40:../../DaisySP//Source/Utility/dsp.h **** }
 638              		.loc 17 40 5 view .LVU147
  40:../../DaisySP//Source/Utility/dsp.h **** }
 639              		.loc 17 40 5 is_stmt 0 view .LVU148
 640              		.thumb
 641              		.syntax unified
 642              	.LBE552:
 643              	.LBE551:
 644              	.LBB553:
 645              	.LBI553:
  43:../../DaisySP//Source/Utility/dsp.h **** {
 646              		.loc 17 43 14 is_stmt 1 view .LVU149
 647              	.LBB554:
  45:../../DaisySP//Source/Utility/dsp.h **** #ifdef __arm__
 648              		.loc 17 45 5 view .LVU150
  47:../../DaisySP//Source/Utility/dsp.h **** #else
 649              		.loc 17 47 5 view .LVU151
 650              		.syntax unified
 651              	@ 47 "../../DaisySP//Source/Utility/dsp.h" 1
 652 0034 C7FEC77A 		vminnm.f32 s15, s15, s14
 653              	@ 0 "" 2
 654              	.LVL32:
  51:../../DaisySP//Source/Utility/dsp.h **** }
 655              		.loc 17 51 5 view .LVU152
  51:../../DaisySP//Source/Utility/dsp.h **** }
 656              		.loc 17 51 5 is_stmt 0 view .LVU153
 657              		.thumb
 658              		.syntax unified
 659              	.LBE554:
 660              	.LBE553:
 661              	.LBE555:
 662              	.LBE557:
 663              	.LBE560:
 664              		.loc 16 47 9 view .LVU154
 665 0038 C3ED007A 		vstr.32	s15, [r3]
  48:ifft.cpp      **** 	for (size_t i = 0; i < size; i++)
 666              		.loc 16 48 2 is_stmt 1 view .LVU155
 667              	.LVL33:
 668              	.LBB561:
 669              		.loc 16 48 23 view .LVU156
 670 003c 002E     		cmp	r6, #0
 671 003e 45D0     		beq	.L16
 672 0040 DFF8A090 		ldr	r9, .L35+20
  49:ifft.cpp      **** 	{
  50:ifft.cpp      **** 		Process(IN_L[i] + IN_R[i]);
  51:ifft.cpp      **** 		OUT_L[i] = output;
  52:ifft.cpp      **** 		OUT_R[i] = output;
ARM GAS  /var/folders/hl/qgbwny5j0fd895c2c41bk3tw0000gp/T//cceIFtrC.s 			page 41


 673              		.loc 16 52 3 is_stmt 0 view .LVU157
 674 0044 4FF0000E 		mov	lr, #0
 675 0048 DFF89CA0 		ldr	r10, .L35+24
 676 004c D9F80050 		ldr	r5, [r9]
 677 0050 DAF80020 		ldr	r2, [r10]
 678 0054 2148     		ldr	r0, .L35+12
 679 0056 D7E90047 		ldrd	r4, r7, [r7]
 680              	.LVL34:
 681              		.loc 16 52 3 view .LVU158
 682 005a 04EB860C 		add	ip, r4, r6, lsl #2
 683 005e D8E90061 		ldrd	r6, r1, [r8]
 684              	.LVL35:
 685              		.loc 16 52 3 view .LVU159
 686 0062 F046     		mov	r8, lr
 687              	.LVL36:
 688              		.loc 16 52 3 view .LVU160
 689 0064 0AE0     		b	.L22
 690              	.LVL37:
 691              	.L34:
  51:ifft.cpp      **** 		OUT_R[i] = output;
 692              		.loc 16 51 12 view .LVU161
 693 0066 0368     		ldr	r3, [r0]	@ float
 694              	.L21:
  51:ifft.cpp      **** 		OUT_R[i] = output;
 695              		.loc 16 51 3 is_stmt 1 view .LVU162
  51:ifft.cpp      **** 		OUT_R[i] = output;
 696              		.loc 16 51 12 is_stmt 0 view .LVU163
 697 0068 44F8043B 		str	r3, [r4], #4	@ float
 698              		.loc 16 52 3 is_stmt 1 view .LVU164
  48:ifft.cpp      **** 	for (size_t i = 0; i < size; i++)
 699              		.loc 16 48 23 is_stmt 0 view .LVU165
 700 006c 6445     		cmp	r4, ip
 701 006e 06F10406 		add	r6, r6, #4
 702 0072 01F10401 		add	r1, r1, #4
 703              		.loc 16 52 12 view .LVU166
 704 0076 47F8043B 		str	r3, [r7], #4	@ float
  48:ifft.cpp      **** 	for (size_t i = 0; i < size; i++)
 705              		.loc 16 48 2 is_stmt 1 view .LVU167
  48:ifft.cpp      **** 	for (size_t i = 0; i < size; i++)
 706              		.loc 16 48 23 view .LVU168
 707 007a 1DD0     		beq	.L33
 708              	.L22:
  50:ifft.cpp      **** 		OUT_L[i] = output;
 709              		.loc 16 50 3 discriminator 2 view .LVU169
 710              	.LBB562:
 711              	.LBI562:
  53:ifft.cpp      **** 	}
  54:ifft.cpp      **** }
  55:ifft.cpp      **** 
  56:ifft.cpp      **** int main(void)
  57:ifft.cpp      **** {
  58:ifft.cpp      **** 	hw.Init();
  59:ifft.cpp      **** 	hw.SetAudioBlockSize(64); // number of samples handled per callback
  60:ifft.cpp      **** 
  61:ifft.cpp      **** 	pb.Init();
  62:ifft.cpp      **** 
  63:ifft.cpp      **** 	hw.SetAudioSampleRate(SaiHandle::Config::SampleRate::SAI_48KHZ);
ARM GAS  /var/folders/hl/qgbwny5j0fd895c2c41bk3tw0000gp/T//cceIFtrC.s 			page 42


  64:ifft.cpp      **** 	hw.StartAudio(AudioCallback);
  65:ifft.cpp      **** 	while(1)
  66:ifft.cpp      **** 	{
  67:ifft.cpp      **** 		Buffers();
  68:ifft.cpp      **** 	}
  69:ifft.cpp      **** }
  70:ifft.cpp      **** 
  71:ifft.cpp      **** void fft_proc()
  72:ifft.cpp      **** {
  73:ifft.cpp      **** 	arm_rfft_fast_f32(&fft,fftInput, fftOutput, 0);
  74:ifft.cpp      **** 	arm_rfft_fast_f32(&fft,fftOutput, ifftOutput, 1);
  75:ifft.cpp      **** }
  76:ifft.cpp      **** 
  77:ifft.cpp      **** void Process(float input)
 712              		.loc 16 77 6 discriminator 2 view .LVU170
 713              	.LBB563:
  78:ifft.cpp      **** {
  79:ifft.cpp      **** 	if (fft_buf_index < SAMPLE_BUFFER_LENGTH) 
 714              		.loc 16 79 2 discriminator 2 view .LVU171
  80:ifft.cpp      **** 	{
  81:ifft.cpp      **** 		fftInput[fft_buf_index++] = input;
 715              		.loc 16 81 3 discriminator 2 view .LVU172
  82:ifft.cpp      **** 	}
  83:ifft.cpp      **** 
  84:ifft.cpp      **** 	if(ifft_buf_index < SAMPLE_BUFFER_LENGTH)
 716              		.loc 16 84 2 discriminator 2 view .LVU173
  85:ifft.cpp      **** 	{
  86:ifft.cpp      **** 		output = ifftOutput[ifft_buf_index++];
 717              		.loc 16 86 3 discriminator 2 view .LVU174
 718              		.loc 16 86 39 is_stmt 0 discriminator 2 view .LVU175
 719 007c 184B     		ldr	r3, .L35+16
  79:ifft.cpp      **** 	{
 720              		.loc 16 79 2 discriminator 2 view .LVU176
 721 007e B5F5806F 		cmp	r5, #1024
  81:ifft.cpp      **** 	}
 722              		.loc 16 81 29 discriminator 2 view .LVU177
 723 0082 DFF868B0 		ldr	fp, .L35+28
 724              		.loc 16 86 39 discriminator 2 view .LVU178
 725 0086 03EB8203 		add	r3, r3, r2, lsl #2
  81:ifft.cpp      **** 	}
 726              		.loc 16 81 29 discriminator 2 view .LVU179
 727 008a 0BEB850B 		add	fp, fp, r5, lsl #2
  79:ifft.cpp      **** 	{
 728              		.loc 16 79 2 discriminator 2 view .LVU180
 729 008e 0ADA     		bge	.L19
 730              	.LBE563:
 731              	.LBE562:
  50:ifft.cpp      **** 		OUT_L[i] = output;
 732              		.loc 16 50 10 view .LVU181
 733 0090 D6ED007A 		vldr.32	s15, [r6]
 734              	.LBB567:
 735              	.LBB564:
  81:ifft.cpp      **** 	}
 736              		.loc 16 81 25 view .LVU182
 737 0094 0135     		adds	r5, r5, #1
 738              	.LBE564:
 739              	.LBE567:
ARM GAS  /var/folders/hl/qgbwny5j0fd895c2c41bk3tw0000gp/T//cceIFtrC.s 			page 43


  50:ifft.cpp      **** 		OUT_L[i] = output;
 740              		.loc 16 50 10 view .LVU183
 741 0096 91ED007A 		vldr.32	s14, [r1]
 742              	.LBB568:
 743              	.LBB565:
 744 009a 4FF00108 		mov	r8, #1
 745              	.LBE565:
 746              	.LBE568:
 747 009e 77EE877A 		vadd.f32	s15, s15, s14
 748              	.LBB569:
 749              	.LBB566:
  81:ifft.cpp      **** 	}
 750              		.loc 16 81 29 view .LVU184
 751 00a2 CBED007A 		vstr.32	s15, [fp]
 752              	.L19:
  84:ifft.cpp      **** 	{
 753              		.loc 16 84 2 view .LVU185
 754 00a6 B2F5806F 		cmp	r2, #1024
 755 00aa DCDA     		bge	.L34
 756              		.loc 16 86 39 view .LVU186
 757 00ac 1B68     		ldr	r3, [r3]	@ float
 758              		.loc 16 86 37 view .LVU187
 759 00ae 0132     		adds	r2, r2, #1
 760 00b0 4FF0010E 		mov	lr, #1
 761              		.loc 16 86 10 view .LVU188
 762 00b4 0360     		str	r3, [r0]	@ float
 763 00b6 D7E7     		b	.L21
 764              	.L33:
 765              		.loc 16 86 10 view .LVU189
 766 00b8 B8F1000F 		cmp	r8, #0
 767 00bc 01D0     		beq	.L23
 768 00be C9F80050 		str	r5, [r9]
 769              	.L23:
 770 00c2 BEF1000F 		cmp	lr, #0
 771 00c6 01D0     		beq	.L16
 772 00c8 CAF80020 		str	r2, [r10]
 773              	.L16:
 774              	.LBE566:
 775              	.LBE569:
 776              	.LBE561:
  54:ifft.cpp      **** 
 777              		.loc 16 54 1 view .LVU190
 778 00cc BDE8F88F 		pop	{r3, r4, r5, r6, r7, r8, r9, r10, fp, pc}
 779              	.L36:
 780              		.align	2
 781              	.L35:
 782 00d0 00000000 		.word	.LANCHOR0
 783 00d4 00000000 		.word	0
 784 00d8 00000000 		.word	.LANCHOR1
 785 00dc 00000000 		.word	.LANCHOR4
 786 00e0 00000000 		.word	_ZL10ifftOutput
 787 00e4 00000000 		.word	.LANCHOR2
 788 00e8 00000000 		.word	.LANCHOR3
 789 00ec 00000000 		.word	_ZL8fftInput
 790              		.cfi_endproc
 791              	.LFE4857:
 793              		.section	.text._ZN5daisy25OneBitGraphicsDisplayImplINS_11OledDisplayINS_13SSD130xDriverILj128ELj64
ARM GAS  /var/folders/hl/qgbwny5j0fd895c2c41bk3tw0000gp/T//cceIFtrC.s 			page 44


 794              		.align	1
 795              		.p2align 2,,3
 796              		.weak	_ZN5daisy25OneBitGraphicsDisplayImplINS_11OledDisplayINS_13SSD130xDriverILj128ELj64ENS_19SSD
 797              		.syntax unified
 798              		.thumb
 799              		.thumb_func
 800              		.fpu fpv5-d16
 802              	_ZN5daisy25OneBitGraphicsDisplayImplINS_11OledDisplayINS_13SSD130xDriverILj128ELj64ENS_19SSD130xI2C
 803              	.LVL38:
 804              	.LFB5452:
 220:../../libDaisy//src/hid/disp/display.h **** 
 221:../../libDaisy//src/hid/disp/display.h ****     void DrawLine(uint_fast8_t x1,
 222:../../libDaisy//src/hid/disp/display.h ****                   uint_fast8_t y1,
 223:../../libDaisy//src/hid/disp/display.h ****                   uint_fast8_t x2,
 224:../../libDaisy//src/hid/disp/display.h ****                   uint_fast8_t y2,
 225:../../libDaisy//src/hid/disp/display.h ****                   bool         on) override
 226:../../libDaisy//src/hid/disp/display.h ****     {
 227:../../libDaisy//src/hid/disp/display.h ****         int_fast16_t deltaX = abs((int_fast16_t)x2 - (int_fast16_t)x1);
 228:../../libDaisy//src/hid/disp/display.h ****         int_fast16_t deltaY = abs((int_fast16_t)y2 - (int_fast16_t)y1);
 229:../../libDaisy//src/hid/disp/display.h ****         int_fast16_t signX  = ((x1 < x2) ? 1 : -1);
 230:../../libDaisy//src/hid/disp/display.h ****         int_fast16_t signY  = ((y1 < y2) ? 1 : -1);
 231:../../libDaisy//src/hid/disp/display.h ****         int_fast16_t error  = deltaX - deltaY;
 232:../../libDaisy//src/hid/disp/display.h ****         int_fast16_t error2;
 233:../../libDaisy//src/hid/disp/display.h **** 
 234:../../libDaisy//src/hid/disp/display.h ****         // If we write "ChildType::DrawPixel(x2, y2, on);", we end up with
 235:../../libDaisy//src/hid/disp/display.h ****         // all sorts of weird compiler errors when the Child class is a template
 236:../../libDaisy//src/hid/disp/display.h ****         // class. The only way around this is to use this very verbose syntax:
 237:../../libDaisy//src/hid/disp/display.h ****         ((ChildType*)(this))->ChildType::DrawPixel(x2, y2, on);
 238:../../libDaisy//src/hid/disp/display.h **** 
 239:../../libDaisy//src/hid/disp/display.h ****         while((x1 != x2) || (y1 != y2))
 240:../../libDaisy//src/hid/disp/display.h ****         {
 241:../../libDaisy//src/hid/disp/display.h ****             ((ChildType*)(this))->ChildType::DrawPixel(x1, y1, on);
 242:../../libDaisy//src/hid/disp/display.h ****             error2 = error * 2;
 243:../../libDaisy//src/hid/disp/display.h ****             if(error2 > -deltaY)
 244:../../libDaisy//src/hid/disp/display.h ****             {
 245:../../libDaisy//src/hid/disp/display.h ****                 error -= deltaY;
 246:../../libDaisy//src/hid/disp/display.h ****                 x1 += signX;
 247:../../libDaisy//src/hid/disp/display.h ****             }
 248:../../libDaisy//src/hid/disp/display.h **** 
 249:../../libDaisy//src/hid/disp/display.h ****             if(error2 < deltaX)
 250:../../libDaisy//src/hid/disp/display.h ****             {
 251:../../libDaisy//src/hid/disp/display.h ****                 error += deltaX;
 252:../../libDaisy//src/hid/disp/display.h ****                 y1 += signY;
 253:../../libDaisy//src/hid/disp/display.h ****             }
 254:../../libDaisy//src/hid/disp/display.h ****         }
 255:../../libDaisy//src/hid/disp/display.h ****     }
 256:../../libDaisy//src/hid/disp/display.h **** 
 257:../../libDaisy//src/hid/disp/display.h ****     void DrawRect(uint_fast8_t x1,
 258:../../libDaisy//src/hid/disp/display.h ****                   uint_fast8_t y1,
 259:../../libDaisy//src/hid/disp/display.h ****                   uint_fast8_t x2,
 260:../../libDaisy//src/hid/disp/display.h ****                   uint_fast8_t y2,
 261:../../libDaisy//src/hid/disp/display.h ****                   bool         on,
 262:../../libDaisy//src/hid/disp/display.h ****                   bool         fill = false) override
 263:../../libDaisy//src/hid/disp/display.h ****     {
 264:../../libDaisy//src/hid/disp/display.h ****         if(fill)
 265:../../libDaisy//src/hid/disp/display.h ****         {
 266:../../libDaisy//src/hid/disp/display.h ****             for(uint_fast8_t x = x1; x <= x2; x++)
ARM GAS  /var/folders/hl/qgbwny5j0fd895c2c41bk3tw0000gp/T//cceIFtrC.s 			page 45


 267:../../libDaisy//src/hid/disp/display.h ****             {
 268:../../libDaisy//src/hid/disp/display.h ****                 for(uint_fast8_t y = y1; y <= y2; y++)
 269:../../libDaisy//src/hid/disp/display.h ****                 {
 270:../../libDaisy//src/hid/disp/display.h ****                     ((ChildType*)(this))->ChildType::DrawPixel(x, y, on);
 271:../../libDaisy//src/hid/disp/display.h ****                 }
 272:../../libDaisy//src/hid/disp/display.h ****             }
 273:../../libDaisy//src/hid/disp/display.h ****         }
 274:../../libDaisy//src/hid/disp/display.h ****         else
 275:../../libDaisy//src/hid/disp/display.h ****         {
 276:../../libDaisy//src/hid/disp/display.h ****             ((ChildType*)(this))->ChildType::DrawLine(x1, y1, x2, y1, on);
 277:../../libDaisy//src/hid/disp/display.h ****             ((ChildType*)(this))->ChildType::DrawLine(x2, y1, x2, y2, on);
 278:../../libDaisy//src/hid/disp/display.h ****             ((ChildType*)(this))->ChildType::DrawLine(x2, y2, x1, y2, on);
 279:../../libDaisy//src/hid/disp/display.h ****             ((ChildType*)(this))->ChildType::DrawLine(x1, y2, x1, y1, on);
 280:../../libDaisy//src/hid/disp/display.h ****         }
 281:../../libDaisy//src/hid/disp/display.h ****     }
 282:../../libDaisy//src/hid/disp/display.h **** 
 283:../../libDaisy//src/hid/disp/display.h ****     void DrawArc(uint_fast8_t x,
 284:../../libDaisy//src/hid/disp/display.h ****                  uint_fast8_t y,
 285:../../libDaisy//src/hid/disp/display.h ****                  uint_fast8_t radius,
 286:../../libDaisy//src/hid/disp/display.h ****                  int_fast16_t start_angle,
 287:../../libDaisy//src/hid/disp/display.h ****                  int_fast16_t sweep,
 288:../../libDaisy//src/hid/disp/display.h ****                  bool         on) override
 289:../../libDaisy//src/hid/disp/display.h ****     {
 290:../../libDaisy//src/hid/disp/display.h ****         // Values to calculate the circle
 291:../../libDaisy//src/hid/disp/display.h ****         int_fast16_t t_x, t_y, err, e2;
 292:../../libDaisy//src/hid/disp/display.h **** 
 293:../../libDaisy//src/hid/disp/display.h ****         // Temporary values to speed up comparisons
 294:../../libDaisy//src/hid/disp/display.h ****         float t_sxy, t_syx, t_sxny, t_synx;
 295:../../libDaisy//src/hid/disp/display.h ****         float t_exy, t_eyx, t_exny, t_eynx;
 296:../../libDaisy//src/hid/disp/display.h **** 
 297:../../libDaisy//src/hid/disp/display.h ****         float start_angle_rad, end_angle_rad;
 298:../../libDaisy//src/hid/disp/display.h ****         float start_x, start_y, end_x, end_y;
 299:../../libDaisy//src/hid/disp/display.h **** 
 300:../../libDaisy//src/hid/disp/display.h ****         bool d1, d2, d3, d4;
 301:../../libDaisy//src/hid/disp/display.h **** 
 302:../../libDaisy//src/hid/disp/display.h ****         d1 = d2 = d3 = d4 = true;
 303:../../libDaisy//src/hid/disp/display.h **** 
 304:../../libDaisy//src/hid/disp/display.h ****         bool circle = false;
 305:../../libDaisy//src/hid/disp/display.h **** 
 306:../../libDaisy//src/hid/disp/display.h ****         if(sweep < 0)
 307:../../libDaisy//src/hid/disp/display.h ****         {
 308:../../libDaisy//src/hid/disp/display.h ****             start_angle += sweep;
 309:../../libDaisy//src/hid/disp/display.h ****             sweep = -sweep;
 310:../../libDaisy//src/hid/disp/display.h ****         }
 311:../../libDaisy//src/hid/disp/display.h **** 
 312:../../libDaisy//src/hid/disp/display.h ****         start_angle_rad = deg2rad(start_angle);
 313:../../libDaisy//src/hid/disp/display.h ****         end_angle_rad   = deg2rad(start_angle + sweep);
 314:../../libDaisy//src/hid/disp/display.h **** 
 315:../../libDaisy//src/hid/disp/display.h ****         start_x = cos(start_angle_rad) * radius;
 316:../../libDaisy//src/hid/disp/display.h ****         start_y = -sin(start_angle_rad) * radius;
 317:../../libDaisy//src/hid/disp/display.h ****         end_x   = cos(end_angle_rad) * radius;
 318:../../libDaisy//src/hid/disp/display.h ****         end_y   = -sin(end_angle_rad) * radius;
 319:../../libDaisy//src/hid/disp/display.h **** 
 320:../../libDaisy//src/hid/disp/display.h ****         // Check if start and endpoint are very near
 321:../../libDaisy//src/hid/disp/display.h ****         if((end_x - start_x) * (end_x - start_x)
 322:../../libDaisy//src/hid/disp/display.h ****                + (end_y - start_y) * (end_y - start_y)
 323:../../libDaisy//src/hid/disp/display.h ****            < 2.0f)
ARM GAS  /var/folders/hl/qgbwny5j0fd895c2c41bk3tw0000gp/T//cceIFtrC.s 			page 46


 324:../../libDaisy//src/hid/disp/display.h ****         {
 325:../../libDaisy//src/hid/disp/display.h ****             if(sweep > 180)
 326:../../libDaisy//src/hid/disp/display.h ****                 circle = true;
 327:../../libDaisy//src/hid/disp/display.h ****             else
 328:../../libDaisy//src/hid/disp/display.h ****                 // Nothing to draw
 329:../../libDaisy//src/hid/disp/display.h ****                 return;
 330:../../libDaisy//src/hid/disp/display.h ****         }
 331:../../libDaisy//src/hid/disp/display.h **** 
 332:../../libDaisy//src/hid/disp/display.h ****         t_x = -radius;
 333:../../libDaisy//src/hid/disp/display.h ****         t_y = 0;
 334:../../libDaisy//src/hid/disp/display.h ****         err = 2 - 2 * radius;
 335:../../libDaisy//src/hid/disp/display.h **** 
 336:../../libDaisy//src/hid/disp/display.h ****         do
 337:../../libDaisy//src/hid/disp/display.h ****         {
 338:../../libDaisy//src/hid/disp/display.h ****             if(!circle)
 339:../../libDaisy//src/hid/disp/display.h ****             {
 340:../../libDaisy//src/hid/disp/display.h ****                 t_sxy  = start_x * t_y;
 341:../../libDaisy//src/hid/disp/display.h ****                 t_syx  = start_y * t_x;
 342:../../libDaisy//src/hid/disp/display.h ****                 t_sxny = start_x * -t_y;
 343:../../libDaisy//src/hid/disp/display.h ****                 t_synx = start_y * -t_x;
 344:../../libDaisy//src/hid/disp/display.h ****                 t_exy  = end_x * t_y;
 345:../../libDaisy//src/hid/disp/display.h ****                 t_eyx  = end_y * t_x;
 346:../../libDaisy//src/hid/disp/display.h ****                 t_exny = end_x * -t_y;
 347:../../libDaisy//src/hid/disp/display.h ****                 t_eynx = end_y * -t_x;
 348:../../libDaisy//src/hid/disp/display.h **** 
 349:../../libDaisy//src/hid/disp/display.h ****                 if(sweep > 180)
 350:../../libDaisy//src/hid/disp/display.h ****                 {
 351:../../libDaisy//src/hid/disp/display.h ****                     d1 = (t_sxy - t_synx < 0 || t_exy - t_eynx > 0);
 352:../../libDaisy//src/hid/disp/display.h ****                     d2 = (t_sxy - t_syx < 0 || t_exy - t_eyx > 0);
 353:../../libDaisy//src/hid/disp/display.h ****                     d3 = (t_sxny - t_syx < 0 || t_exny - t_eyx > 0);
 354:../../libDaisy//src/hid/disp/display.h ****                     d4 = (t_sxny - t_synx < 0 || t_exny - t_eynx > 0);
 355:../../libDaisy//src/hid/disp/display.h ****                 }
 356:../../libDaisy//src/hid/disp/display.h ****                 else
 357:../../libDaisy//src/hid/disp/display.h ****                 {
 358:../../libDaisy//src/hid/disp/display.h ****                     d1 = (t_sxy - t_synx < 0 && t_exy - t_eynx > 0);
 359:../../libDaisy//src/hid/disp/display.h ****                     d2 = (t_sxy - t_syx < 0 && t_exy - t_eyx > 0);
 360:../../libDaisy//src/hid/disp/display.h ****                     d3 = (t_sxny - t_syx < 0 && t_exny - t_eyx > 0);
 361:../../libDaisy//src/hid/disp/display.h ****                     d4 = (t_sxny - t_synx < 0 && t_exny - t_eynx > 0);
 362:../../libDaisy//src/hid/disp/display.h ****                 }
 363:../../libDaisy//src/hid/disp/display.h ****             }
 364:../../libDaisy//src/hid/disp/display.h **** 
 365:../../libDaisy//src/hid/disp/display.h ****             if(d1)
 366:../../libDaisy//src/hid/disp/display.h ****                 ((ChildType*)(this))
 367:../../libDaisy//src/hid/disp/display.h ****                     ->ChildType::DrawPixel(x - t_x, y + t_y, on);
 368:../../libDaisy//src/hid/disp/display.h ****             if(d2)
 369:../../libDaisy//src/hid/disp/display.h ****                 ((ChildType*)(this))
 370:../../libDaisy//src/hid/disp/display.h ****                     ->ChildType::DrawPixel(x + t_x, y + t_y, on);
 371:../../libDaisy//src/hid/disp/display.h ****             if(d3)
 372:../../libDaisy//src/hid/disp/display.h ****                 ((ChildType*)(this))
 373:../../libDaisy//src/hid/disp/display.h ****                     ->ChildType::DrawPixel(x + t_x, y - t_y, on);
 374:../../libDaisy//src/hid/disp/display.h ****             if(d4)
 375:../../libDaisy//src/hid/disp/display.h ****                 ((ChildType*)(this))
 376:../../libDaisy//src/hid/disp/display.h ****                     ->ChildType::DrawPixel(x - t_x, y - t_y, on);
 377:../../libDaisy//src/hid/disp/display.h **** 
 378:../../libDaisy//src/hid/disp/display.h ****             e2 = err;
 379:../../libDaisy//src/hid/disp/display.h ****             if(e2 <= t_y)
 380:../../libDaisy//src/hid/disp/display.h ****             {
ARM GAS  /var/folders/hl/qgbwny5j0fd895c2c41bk3tw0000gp/T//cceIFtrC.s 			page 47


 381:../../libDaisy//src/hid/disp/display.h ****                 t_y++;
 382:../../libDaisy//src/hid/disp/display.h ****                 err = err + (t_y * 2 + 1);
 383:../../libDaisy//src/hid/disp/display.h ****                 if(-t_x == t_y && e2 <= t_x)
 384:../../libDaisy//src/hid/disp/display.h ****                 {
 385:../../libDaisy//src/hid/disp/display.h ****                     e2 = 0;
 386:../../libDaisy//src/hid/disp/display.h ****                 }
 387:../../libDaisy//src/hid/disp/display.h ****             }
 388:../../libDaisy//src/hid/disp/display.h ****             if(e2 > t_x)
 389:../../libDaisy//src/hid/disp/display.h ****             {
 390:../../libDaisy//src/hid/disp/display.h ****                 t_x++;
 391:../../libDaisy//src/hid/disp/display.h ****                 err = err + (t_x * 2 + 1);
 392:../../libDaisy//src/hid/disp/display.h ****             }
 393:../../libDaisy//src/hid/disp/display.h ****         } while(t_x <= 0);
 394:../../libDaisy//src/hid/disp/display.h ****     }
 395:../../libDaisy//src/hid/disp/display.h **** 
 396:../../libDaisy//src/hid/disp/display.h ****     char WriteChar(char ch, FontDef font, bool on) override
 397:../../libDaisy//src/hid/disp/display.h ****     {
 398:../../libDaisy//src/hid/disp/display.h ****         uint32_t i, b, j;
 399:../../libDaisy//src/hid/disp/display.h **** 
 400:../../libDaisy//src/hid/disp/display.h ****         // Check if character is valid
 401:../../libDaisy//src/hid/disp/display.h ****         if(ch < 32 || ch > 126)
 402:../../libDaisy//src/hid/disp/display.h ****             return 0;
 403:../../libDaisy//src/hid/disp/display.h **** 
 404:../../libDaisy//src/hid/disp/display.h ****         // Check remaining space on current line
 405:../../libDaisy//src/hid/disp/display.h ****         if(Width() < (currentX_ + font.FontWidth)
 406:../../libDaisy//src/hid/disp/display.h ****            || Height() < (currentY_ + font.FontHeight))
 407:../../libDaisy//src/hid/disp/display.h ****         {
 408:../../libDaisy//src/hid/disp/display.h ****             // Not enough space on current line
 409:../../libDaisy//src/hid/disp/display.h ****             return 0;
 410:../../libDaisy//src/hid/disp/display.h ****         }
 411:../../libDaisy//src/hid/disp/display.h **** 
 412:../../libDaisy//src/hid/disp/display.h ****         // Use the font to write
 413:../../libDaisy//src/hid/disp/display.h ****         for(i = 0; i < font.FontHeight; i++)
 414:../../libDaisy//src/hid/disp/display.h ****         {
 415:../../libDaisy//src/hid/disp/display.h ****             b = font.data[(ch - 32) * font.FontHeight + i];
 416:../../libDaisy//src/hid/disp/display.h ****             for(j = 0; j < font.FontWidth; j++)
 417:../../libDaisy//src/hid/disp/display.h ****             {
 418:../../libDaisy//src/hid/disp/display.h ****                 if((b << j) & 0x8000)
 419:../../libDaisy//src/hid/disp/display.h ****                 {
 420:../../libDaisy//src/hid/disp/display.h ****                     ((ChildType*)(this))
 421:../../libDaisy//src/hid/disp/display.h ****                         ->ChildType::DrawPixel(
 422:../../libDaisy//src/hid/disp/display.h ****                             currentX_ + j, (currentY_ + i), on);
 423:../../libDaisy//src/hid/disp/display.h ****                 }
 424:../../libDaisy//src/hid/disp/display.h ****                 else
 425:../../libDaisy//src/hid/disp/display.h ****                 {
 426:../../libDaisy//src/hid/disp/display.h ****                     ((ChildType*)(this))
 427:../../libDaisy//src/hid/disp/display.h ****                         ->ChildType::DrawPixel(
 428:../../libDaisy//src/hid/disp/display.h ****                             currentX_ + j, (currentY_ + i), !on);
 429:../../libDaisy//src/hid/disp/display.h ****                 }
 430:../../libDaisy//src/hid/disp/display.h ****             }
 431:../../libDaisy//src/hid/disp/display.h ****         }
 432:../../libDaisy//src/hid/disp/display.h **** 
 433:../../libDaisy//src/hid/disp/display.h ****         // The current space is now taken
 434:../../libDaisy//src/hid/disp/display.h ****         SetCursor(currentX_ + font.FontWidth, currentY_);
 435:../../libDaisy//src/hid/disp/display.h **** 
 436:../../libDaisy//src/hid/disp/display.h ****         // Return written char for validation
 437:../../libDaisy//src/hid/disp/display.h ****         return ch;
ARM GAS  /var/folders/hl/qgbwny5j0fd895c2c41bk3tw0000gp/T//cceIFtrC.s 			page 48


 438:../../libDaisy//src/hid/disp/display.h ****     }
 439:../../libDaisy//src/hid/disp/display.h **** 
 440:../../libDaisy//src/hid/disp/display.h ****     char WriteString(const char* str, FontDef font, bool on) override
 805              		.loc 9 440 10 is_stmt 1 view -0
 806              		.cfi_startproc
 807              		@ args = 4, pretend = 0, frame = 32
 808              		@ frame_needed = 0, uses_anonymous_args = 0
 809              		.loc 9 440 10 is_stmt 0 view .LVU192
 810 0000 2DE9F04F 		push	{r4, r5, r6, r7, r8, r9, r10, fp, lr}
 811              		.cfi_def_cfa_offset 36
 812              		.cfi_offset 4, -36
 813              		.cfi_offset 5, -32
 814              		.cfi_offset 6, -28
 815              		.cfi_offset 7, -24
 816              		.cfi_offset 8, -20
 817              		.cfi_offset 9, -16
 818              		.cfi_offset 10, -12
 819              		.cfi_offset 11, -8
 820              		.cfi_offset 14, -4
 821 0004 89B0     		sub	sp, sp, #36
 822              		.cfi_def_cfa_offset 72
 823              		.loc 9 440 10 view .LVU193
 824 0006 08AC     		add	r4, sp, #32
 825 0008 9DF84870 		ldrb	r7, [sp, #72]	@ zero_extendqisi2
 826 000c 0191     		str	r1, [sp, #4]
 827 000e 04E90C00 		stmdb	r4, {r2, r3}
 441:../../libDaisy//src/hid/disp/display.h ****     {
 442:../../libDaisy//src/hid/disp/display.h ****         // Write until null-byte
 443:../../libDaisy//src/hid/disp/display.h ****         while(*str)
 828              		.loc 9 443 9 is_stmt 1 view .LVU194
 829 0012 0B78     		ldrb	r3, [r1]	@ zero_extendqisi2
 830 0014 002B     		cmp	r3, #0
 831 0016 00F0AB80 		beq	.L61
 832 001a 1A46     		mov	r2, r3
 833 001c 9DF81880 		ldrb	r8, [sp, #24]	@ zero_extendqisi2
 834 0020 9DF81930 		ldrb	r3, [sp, #25]	@ zero_extendqisi2
 835 0024 0646     		mov	r6, r0
 836 0026 4546     		mov	r5, r8
 837 0028 9046     		mov	r8, r2
 838 002a 0393     		str	r3, [sp, #12]
 839 002c 079B     		ldr	r3, [sp, #28]
 840 002e 0593     		str	r3, [sp, #20]
 841              	.LVL39:
 842              	.L62:
 843              	.LBB598:
 844              	.LBI598:
 396:../../libDaisy//src/hid/disp/display.h ****     {
 845              		.loc 9 396 10 view .LVU195
 846              	.LBB599:
 401:../../libDaisy//src/hid/disp/display.h ****             return 0;
 847              		.loc 9 401 20 is_stmt 0 view .LVU196
 848 0030 A8F12004 		sub	r4, r8, #32
 401:../../libDaisy//src/hid/disp/display.h ****             return 0;
 849              		.loc 9 401 9 view .LVU197
 850 0034 E3B2     		uxtb	r3, r4
 851 0036 5E2B     		cmp	r3, #94
 852 0038 00F29E80 		bhi	.L43
ARM GAS  /var/folders/hl/qgbwny5j0fd895c2c41bk3tw0000gp/T//cceIFtrC.s 			page 49


 405:../../libDaisy//src/hid/disp/display.h ****            || Height() < (currentY_ + font.FontHeight))
 853              		.loc 9 405 17 view .LVU198
 854 003c 3368     		ldr	r3, [r6]
 855 003e 5E4A     		ldr	r2, .L83
 856 0040 DB68     		ldr	r3, [r3, #12]
 857 0042 9342     		cmp	r3, r2
 858 0044 40F09B80 		bne	.L76
 859 0048 8020     		movs	r0, #128
 860              	.L42:
 405:../../libDaisy//src/hid/disp/display.h ****            || Height() < (currentY_ + font.FontHeight))
 861              		.loc 9 405 23 view .LVU199
 862 004a B388     		ldrh	r3, [r6, #4]
 405:../../libDaisy//src/hid/disp/display.h ****            || Height() < (currentY_ + font.FontHeight))
 863              		.loc 9 405 33 view .LVU200
 864 004c 2B44     		add	r3, r3, r5
 406:../../libDaisy//src/hid/disp/display.h ****         {
 865              		.loc 9 406 12 view .LVU201
 866 004e 8342     		cmp	r3, r0
 867 0050 00F39280 		bgt	.L43
 406:../../libDaisy//src/hid/disp/display.h ****         {
 868              		.loc 9 406 21 view .LVU202
 869 0054 3368     		ldr	r3, [r6]
 870 0056 594A     		ldr	r2, .L83+4
 871 0058 9B68     		ldr	r3, [r3, #8]
 872 005a 9342     		cmp	r3, r2
 873 005c 40F09280 		bne	.L77
 874 0060 4020     		movs	r0, #64
 875              	.L44:
 406:../../libDaisy//src/hid/disp/display.h ****         {
 876              		.loc 9 406 27 view .LVU203
 877 0062 F188     		ldrh	r1, [r6, #6]
 406:../../libDaisy//src/hid/disp/display.h ****         {
 878              		.loc 9 406 37 view .LVU204
 879 0064 039A     		ldr	r2, [sp, #12]
 406:../../libDaisy//src/hid/disp/display.h ****         {
 880              		.loc 9 406 27 view .LVU205
 881 0066 0291     		str	r1, [sp, #8]
 406:../../libDaisy//src/hid/disp/display.h ****         {
 882              		.loc 9 406 37 view .LVU206
 883 0068 8B18     		adds	r3, r1, r2
 406:../../libDaisy//src/hid/disp/display.h ****         {
 884              		.loc 9 406 12 view .LVU207
 885 006a 8342     		cmp	r3, r0
 886 006c 00F38480 		bgt	.L43
 887              	.LVL40:
 413:../../libDaisy//src/hid/disp/display.h ****         {
 888              		.loc 9 413 22 is_stmt 1 view .LVU208
 889 0070 002A     		cmp	r2, #0
 890 0072 00F09180 		beq	.L45
 415:../../libDaisy//src/hid/disp/display.h ****             for(j = 0; j < font.FontWidth; j++)
 891              		.loc 9 415 37 is_stmt 0 view .LVU209
 892 0076 02FB04F4 		mul	r4, r2, r4
 893 007a 6FF00049 		mvn	r9, #-2147483648
 894 007e 059B     		ldr	r3, [sp, #20]
 895 0080 A144     		add	r9, r9, r4
 896 0082 1444     		add	r4, r4, r2
 434:../../libDaisy//src/hid/disp/display.h **** 
ARM GAS  /var/folders/hl/qgbwny5j0fd895c2c41bk3tw0000gp/T//cceIFtrC.s 			page 50


 897              		.loc 9 434 19 view .LVU210
 898 0084 B6F804B0 		ldrh	fp, [r6, #4]
 899 0088 03EB4909 		add	r9, r3, r9, lsl #1
 900 008c 023B     		subs	r3, r3, #2
 901 008e CDF81080 		str	r8, [sp, #16]
 902 0092 03EB4403 		add	r3, r3, r4, lsl #1
 903 0096 0C46     		mov	r4, r1
 904 0098 9A46     		mov	r10, r3
 905              	.LVL41:
 906              	.L48:
 415:../../libDaisy//src/hid/disp/display.h ****             for(j = 0; j < font.FontWidth; j++)
 907              		.loc 9 415 15 view .LVU211
 908 009a 39F802CF 		ldrh	ip, [r9, #2]!
 909              	.LVL42:
 416:../../libDaisy//src/hid/disp/display.h ****             {
 910              		.loc 9 416 26 is_stmt 1 view .LVU212
 911 009e A5B3     		cbz	r5, .L53
 912              	.LBB600:
 913              	.LBB601:
 914              	.LBB602:
 915              	.LBB603:
 916              	.LBB604:
 359:../../libDaisy//src/dev/oled_ssd130x.h ****     }
 917              		.loc 15 359 55 is_stmt 0 view .LVU213
 918 00a0 04F00703 		and	r3, r4, #7
 359:../../libDaisy//src/dev/oled_ssd130x.h ****     }
 919              		.loc 15 359 49 view .LVU214
 920 00a4 4FF0010E 		mov	lr, #1
 359:../../libDaisy//src/dev/oled_ssd130x.h ****     }
 921              		.loc 15 359 28 view .LVU215
 922 00a8 E208     		lsrs	r2, r4, #3
 923 00aa 5946     		mov	r1, fp
 359:../../libDaisy//src/dev/oled_ssd130x.h ****     }
 924              		.loc 15 359 49 view .LVU216
 925 00ac 0EFA03FE 		lsl	lr, lr, r3
 926 00b0 0BF11003 		add	r3, fp, #16
 359:../../libDaisy//src/dev/oled_ssd130x.h ****     }
 927              		.loc 15 359 42 view .LVU217
 928 00b4 4FFA8EFE 		sxtb	lr, lr
 929 00b8 03EBC212 		add	r2, r3, r2, lsl #7
 930              	.LBE604:
 931              	.LBE603:
 932              	.LBE602:
 933              	.LBE601:
 934              	.LBE600:
 416:../../libDaisy//src/hid/disp/display.h ****             {
 935              		.loc 9 416 19 view .LVU218
 936 00bc 0023     		movs	r3, #0
 937              	.LBB622:
 938              	.LBB617:
 939              	.LBB612:
 940              	.LBB608:
 941              	.LBB605:
 359:../../libDaisy//src/dev/oled_ssd130x.h ****     }
 942              		.loc 15 359 42 view .LVU219
 943 00be 6FEA0E08 		mvn	r8, lr
 944 00c2 3244     		add	r2, r2, r6
ARM GAS  /var/folders/hl/qgbwny5j0fd895c2c41bk3tw0000gp/T//cceIFtrC.s 			page 51


 945 00c4 0DE0     		b	.L54
 946              	.LVL43:
 947              	.L78:
 359:../../libDaisy//src/dev/oled_ssd130x.h ****     }
 948              		.loc 15 359 42 view .LVU220
 949              	.LBE605:
 950              	.LBE608:
 951              	.LBE612:
 952              	.LBE617:
 953              	.LBE622:
 954              	.LBB623:
 955              	.LBI623:
  42:../../libDaisy//src/hid/disp/oled_display.h ****     {
 956              		.loc 8 42 10 is_stmt 1 view .LVU221
 957              	.LBB624:
 958              	.LBI624:
 352:../../libDaisy//src/dev/oled_ssd130x.h ****     {
 959              		.loc 15 352 10 view .LVU222
 960              	.LBB625:
 354:../../libDaisy//src/dev/oled_ssd130x.h ****             return;
 961              		.loc 15 354 9 is_stmt 0 view .LVU223
 962 00c6 7F29     		cmp	r1, #127
 963 00c8 06D8     		bhi	.L50
 964 00ca 3F2C     		cmp	r4, #63
 965 00cc 04D8     		bhi	.L50
 357:../../libDaisy//src/dev/oled_ssd130x.h ****         else
 966              		.loc 15 357 42 view .LVU224
 967 00ce 1078     		ldrb	r0, [r2]	@ zero_extendqisi2
 356:../../libDaisy//src/dev/oled_ssd130x.h ****             buffer_[x + (y / 8) * width] |= (1 << (y % 8));
 968              		.loc 15 356 9 view .LVU225
 969 00d0 97B1     		cbz	r7, .L52
 970              	.L75:
 356:../../libDaisy//src/dev/oled_ssd130x.h ****             buffer_[x + (y / 8) * width] |= (1 << (y % 8));
 971              		.loc 15 356 9 view .LVU226
 972              	.LBE625:
 973              	.LBE624:
 974              	.LBE623:
 975              	.LBB626:
 976              	.LBB618:
 977              	.LBB613:
 357:../../libDaisy//src/dev/oled_ssd130x.h ****         else
 978              		.loc 15 357 42 view .LVU227
 979 00d2 4EEA0000 		orr	r0, lr, r0
 980 00d6 1070     		strb	r0, [r2]
 981              	.L50:
 982              	.LBE613:
 983              	.LBE618:
 984              	.LBE626:
 416:../../libDaisy//src/hid/disp/display.h ****             {
 985              		.loc 9 416 13 is_stmt 1 view .LVU228
 986 00d8 0133     		adds	r3, r3, #1
 987              	.LVL44:
 416:../../libDaisy//src/hid/disp/display.h ****             {
 988              		.loc 9 416 26 view .LVU229
 989 00da 0132     		adds	r2, r2, #1
 990 00dc 0131     		adds	r1, r1, #1
 991 00de AB42     		cmp	r3, r5
ARM GAS  /var/folders/hl/qgbwny5j0fd895c2c41bk3tw0000gp/T//cceIFtrC.s 			page 52


 992 00e0 13D0     		beq	.L53
 993              	.LVL45:
 994              	.L54:
 418:../../libDaisy//src/hid/disp/display.h ****                 {
 995              		.loc 9 418 23 is_stmt 0 view .LVU230
 996 00e2 0CFA03F0 		lsl	r0, ip, r3
 418:../../libDaisy//src/hid/disp/display.h ****                 {
 997              		.loc 9 418 17 view .LVU231
 998 00e6 0004     		lsls	r0, r0, #16
 999 00e8 EDD4     		bmi	.L78
 1000              	.LVL46:
 1001              	.LBB627:
 1002              	.LBI600:
  42:../../libDaisy//src/hid/disp/oled_display.h ****     {
 1003              		.loc 8 42 10 is_stmt 1 view .LVU232
 1004              	.LBB619:
 1005              	.LBI601:
 352:../../libDaisy//src/dev/oled_ssd130x.h ****     {
 1006              		.loc 15 352 10 view .LVU233
 1007              	.LBB614:
 354:../../libDaisy//src/dev/oled_ssd130x.h ****             return;
 1008              		.loc 15 354 9 is_stmt 0 view .LVU234
 1009 00ea 7F29     		cmp	r1, #127
 1010 00ec F4D8     		bhi	.L50
 1011 00ee 3F2C     		cmp	r4, #63
 1012 00f0 F2D8     		bhi	.L50
 357:../../libDaisy//src/dev/oled_ssd130x.h ****         else
 1013              		.loc 15 357 42 view .LVU235
 1014 00f2 1078     		ldrb	r0, [r2]	@ zero_extendqisi2
 356:../../libDaisy//src/dev/oled_ssd130x.h ****             buffer_[x + (y / 8) * width] |= (1 << (y % 8));
 1015              		.loc 15 356 9 view .LVU236
 1016 00f4 002F     		cmp	r7, #0
 1017 00f6 ECD0     		beq	.L75
 1018              	.L52:
 1019              	.LVL47:
 1020              	.LBB609:
 1021              	.LBI603:
 352:../../libDaisy//src/dev/oled_ssd130x.h ****     {
 1022              		.loc 15 352 10 is_stmt 1 view .LVU237
 352:../../libDaisy//src/dev/oled_ssd130x.h ****     {
 1023              		.loc 15 352 10 is_stmt 0 view .LVU238
 1024              	.LBE609:
 1025              	.LBE614:
 1026              	.LBE619:
 1027              	.LBE627:
 416:../../libDaisy//src/hid/disp/display.h ****             {
 1028              		.loc 9 416 13 view .LVU239
 1029 00f8 0133     		adds	r3, r3, #1
 1030              	.LVL48:
 1031              	.LBB628:
 1032              	.LBB620:
 1033              	.LBB615:
 1034              	.LBB610:
 1035              	.LBB606:
 359:../../libDaisy//src/dev/oled_ssd130x.h ****     }
 1036              		.loc 15 359 42 view .LVU240
 1037 00fa 08EA0000 		and	r0, r8, r0
ARM GAS  /var/folders/hl/qgbwny5j0fd895c2c41bk3tw0000gp/T//cceIFtrC.s 			page 53


 1038              	.LBE606:
 1039              	.LBE610:
 1040              	.LBE615:
 1041              	.LBE620:
 1042              	.LBE628:
 416:../../libDaisy//src/hid/disp/display.h ****             {
 1043              		.loc 9 416 26 view .LVU241
 1044 00fe 0132     		adds	r2, r2, #1
 1045 0100 0131     		adds	r1, r1, #1
 1046 0102 AB42     		cmp	r3, r5
 1047              	.LBB629:
 1048              	.LBB621:
 1049              	.LBB616:
 1050              	.LBB611:
 1051              	.LBB607:
 359:../../libDaisy//src/dev/oled_ssd130x.h ****     }
 1052              		.loc 15 359 42 view .LVU242
 1053 0104 02F8010C 		strb	r0, [r2, #-1]
 359:../../libDaisy//src/dev/oled_ssd130x.h ****     }
 1054              		.loc 15 359 42 view .LVU243
 1055              	.LBE607:
 1056              	.LBE611:
 1057              	.LBE616:
 1058              	.LBE621:
 1059              	.LBE629:
 416:../../libDaisy//src/hid/disp/display.h ****             {
 1060              		.loc 9 416 13 is_stmt 1 view .LVU244
 1061              	.LVL49:
 416:../../libDaisy//src/hid/disp/display.h ****             {
 1062              		.loc 9 416 26 view .LVU245
 1063 0108 EBD1     		bne	.L54
 1064              	.LVL50:
 1065              	.L53:
 413:../../libDaisy//src/hid/disp/display.h ****         {
 1066              		.loc 9 413 9 view .LVU246
 413:../../libDaisy//src/hid/disp/display.h ****         {
 1067              		.loc 9 413 22 view .LVU247
 1068 010a D145     		cmp	r9, r10
 1069 010c 04F10104 		add	r4, r4, #1
 1070 0110 C3D1     		bne	.L48
 1071 0112 DDF81080 		ldr	r8, [sp, #16]
 1072              	.LVL51:
 1073              	.L47:
 1074              	.LBB630:
 1075              	.LBB631:
 173:../../libDaisy//src/hid/disp/display.h ****         currentY_ = (y >= Height()) ? Height() - 1 : y;
 1076              		.loc 9 173 33 is_stmt 0 view .LVU248
 1077 0116 3268     		ldr	r2, [r6]
 1078              	.LBE631:
 1079              	.LBE630:
 434:../../libDaisy//src/hid/disp/display.h **** 
 1080              		.loc 9 434 18 view .LVU249
 1081 0118 0BEB0504 		add	r4, fp, r5
 1082 011c 2649     		ldr	r1, .L83
 1083              	.LBB636:
 1084              	.LBB632:
 173:../../libDaisy//src/hid/disp/display.h ****         currentY_ = (y >= Height()) ? Height() - 1 : y;
ARM GAS  /var/folders/hl/qgbwny5j0fd895c2c41bk3tw0000gp/T//cceIFtrC.s 			page 54


 1085              		.loc 9 173 33 view .LVU250
 1086 011e D368     		ldr	r3, [r2, #12]
 1087              	.LBE632:
 1088              	.LBE636:
 434:../../libDaisy//src/hid/disp/display.h **** 
 1089              		.loc 9 434 18 view .LVU251
 1090 0120 A4B2     		uxth	r4, r4
 1091              	.LVL52:
 1092              	.LBB637:
 1093              	.LBI630:
 171:../../libDaisy//src/hid/disp/display.h ****     {
 1094              		.loc 9 171 10 is_stmt 1 view .LVU252
 1095              	.LBB633:
 173:../../libDaisy//src/hid/disp/display.h ****         currentY_ = (y >= Height()) ? Height() - 1 : y;
 1096              		.loc 9 173 9 view .LVU253
 1097 0122 8B42     		cmp	r3, r1
 1098 0124 34D1     		bne	.L79
 173:../../libDaisy//src/hid/disp/display.h ****         currentY_ = (y >= Height()) ? Height() - 1 : y;
 1099              		.loc 9 173 33 is_stmt 0 view .LVU254
 1100 0126 8020     		movs	r0, #128
 1101              	.L55:
 173:../../libDaisy//src/hid/disp/display.h ****         currentY_ = (y >= Height()) ? Height() - 1 : y;
 1102              		.loc 9 173 19 view .LVU255
 1103 0128 8442     		cmp	r4, r0
 1104 012a 04D3     		bcc	.L56
 173:../../libDaisy//src/hid/disp/display.h ****         currentY_ = (y >= Height()) ? Height() - 1 : y;
 1105              		.loc 9 173 44 view .LVU256
 1106 012c D368     		ldr	r3, [r2, #12]
 1107 012e 2249     		ldr	r1, .L83
 1108 0130 8B42     		cmp	r3, r1
 1109 0132 3AD1     		bne	.L80
 1110 0134 7F24     		movs	r4, #127
 1111              	.LVL53:
 1112              	.L56:
 174:../../libDaisy//src/hid/disp/display.h ****     }
 1113              		.loc 9 174 34 view .LVU257
 1114 0136 9368     		ldr	r3, [r2, #8]
 1115 0138 204A     		ldr	r2, .L83+4
 173:../../libDaisy//src/hid/disp/display.h ****         currentY_ = (y >= Height()) ? Height() - 1 : y;
 1116              		.loc 9 173 19 view .LVU258
 1117 013a B480     		strh	r4, [r6, #4]	@ movhi
 174:../../libDaisy//src/hid/disp/display.h ****     }
 1118              		.loc 9 174 9 is_stmt 1 view .LVU259
 1119 013c 9342     		cmp	r3, r2
 1120 013e 24D1     		bne	.L81
 174:../../libDaisy//src/hid/disp/display.h ****     }
 1121              		.loc 9 174 34 is_stmt 0 view .LVU260
 1122 0140 4020     		movs	r0, #64
 1123              	.L58:
 174:../../libDaisy//src/hid/disp/display.h ****     }
 1124              		.loc 9 174 19 view .LVU261
 1125 0142 029B     		ldr	r3, [sp, #8]
 1126 0144 8342     		cmp	r3, r0
 1127 0146 06D3     		bcc	.L59
 174:../../libDaisy//src/hid/disp/display.h ****     }
 1128              		.loc 9 174 46 view .LVU262
 1129 0148 3368     		ldr	r3, [r6]
ARM GAS  /var/folders/hl/qgbwny5j0fd895c2c41bk3tw0000gp/T//cceIFtrC.s 			page 55


 1130 014a 1C4A     		ldr	r2, .L83+4
 1131 014c 9B68     		ldr	r3, [r3, #8]
 1132 014e 9342     		cmp	r3, r2
 1133 0150 25D1     		bne	.L82
 1134 0152 3F23     		movs	r3, #63
 1135 0154 0293     		str	r3, [sp, #8]
 1136              	.LVL54:
 1137              	.L59:
 174:../../libDaisy//src/hid/disp/display.h ****     }
 1138              		.loc 9 174 19 view .LVU263
 1139 0156 029B     		ldr	r3, [sp, #8]
 1140 0158 F380     		strh	r3, [r6, #6]	@ movhi
 1141              	.LVL55:
 1142              	.L41:
 174:../../libDaisy//src/hid/disp/display.h ****     }
 1143              		.loc 9 174 19 view .LVU264
 1144              	.LBE633:
 1145              	.LBE637:
 1146              	.LBE599:
 1147              	.LBE598:
 444:../../libDaisy//src/hid/disp/display.h ****         {
 445:../../libDaisy//src/hid/disp/display.h ****             if(((ChildType*)(this))->ChildType::WriteChar(*str, font, on)
 446:../../libDaisy//src/hid/disp/display.h ****                != *str)
 1148              		.loc 9 446 16 view .LVU265
 1149 015a 019B     		ldr	r3, [sp, #4]
 1150 015c 1878     		ldrb	r0, [r3]	@ zero_extendqisi2
 445:../../libDaisy//src/hid/disp/display.h ****                != *str)
 1151              		.loc 9 445 13 view .LVU266
 1152 015e 4045     		cmp	r0, r8
 1153 0160 07D1     		bne	.L39
 1154              	.LVL56:
 443:../../libDaisy//src/hid/disp/display.h ****         {
 1155              		.loc 9 443 9 is_stmt 1 view .LVU267
 1156 0162 13F8018F 		ldrb	r8, [r3, #1]!	@ zero_extendqisi2
 1157              	.LVL57:
 443:../../libDaisy//src/hid/disp/display.h ****         {
 1158              		.loc 9 443 9 is_stmt 0 view .LVU268
 1159 0166 0193     		str	r3, [sp, #4]
 1160 0168 B8F1000F 		cmp	r8, #0
 1161 016c 7FF460AF 		bne	.L62
 1162              	.LVL58:
 1163              	.L61:
 1164              	.LBB642:
 1165              	.LBB640:
 402:../../libDaisy//src/hid/disp/display.h **** 
 1166              		.loc 9 402 20 view .LVU269
 1167 0170 0020     		movs	r0, #0
 1168              	.L39:
 1169              	.LBE640:
 1170              	.LBE642:
 447:../../libDaisy//src/hid/disp/display.h ****             {
 448:../../libDaisy//src/hid/disp/display.h ****                 // Char could not be written
 449:../../libDaisy//src/hid/disp/display.h ****                 return *str;
 450:../../libDaisy//src/hid/disp/display.h ****             }
 451:../../libDaisy//src/hid/disp/display.h **** 
 452:../../libDaisy//src/hid/disp/display.h ****             // Next char
 453:../../libDaisy//src/hid/disp/display.h ****             str++;
ARM GAS  /var/folders/hl/qgbwny5j0fd895c2c41bk3tw0000gp/T//cceIFtrC.s 			page 56


 454:../../libDaisy//src/hid/disp/display.h ****         }
 455:../../libDaisy//src/hid/disp/display.h **** 
 456:../../libDaisy//src/hid/disp/display.h ****         // Everything ok
 457:../../libDaisy//src/hid/disp/display.h ****         return *str;
 458:../../libDaisy//src/hid/disp/display.h ****     }
 1171              		.loc 9 458 5 view .LVU270
 1172 0172 09B0     		add	sp, sp, #36
 1173              		.cfi_remember_state
 1174              		.cfi_def_cfa_offset 36
 1175              		@ sp needed
 1176 0174 BDE8F08F 		pop	{r4, r5, r6, r7, r8, r9, r10, fp, pc}
 1177              	.LVL59:
 1178              	.L43:
 1179              		.cfi_restore_state
 1180              	.LBB643:
 1181              	.LBB641:
 402:../../libDaisy//src/hid/disp/display.h **** 
 1182              		.loc 9 402 20 view .LVU271
 1183 0178 4FF00008 		mov	r8, #0
 1184              	.LVL60:
 402:../../libDaisy//src/hid/disp/display.h **** 
 1185              		.loc 9 402 20 view .LVU272
 1186 017c EDE7     		b	.L41
 1187              	.LVL61:
 1188              	.L76:
 405:../../libDaisy//src/hid/disp/display.h ****            || Height() < (currentY_ + font.FontHeight))
 1189              		.loc 9 405 17 view .LVU273
 1190 017e 3046     		mov	r0, r6
 1191 0180 9847     		blx	r3
 1192              	.LVL62:
 1193 0182 62E7     		b	.L42
 1194              	.L77:
 406:../../libDaisy//src/hid/disp/display.h ****         {
 1195              		.loc 9 406 21 view .LVU274
 1196 0184 3046     		mov	r0, r6
 1197 0186 9847     		blx	r3
 1198              	.LVL63:
 1199 0188 6BE7     		b	.L44
 1200              	.LVL64:
 1201              	.L81:
 1202              	.LBB638:
 1203              	.LBB634:
 174:../../libDaisy//src/hid/disp/display.h ****     }
 1204              		.loc 9 174 33 view .LVU275
 1205 018a 3046     		mov	r0, r6
 1206 018c 9847     		blx	r3
 1207              	.LVL65:
 1208 018e D8E7     		b	.L58
 1209              	.LVL66:
 1210              	.L79:
 173:../../libDaisy//src/hid/disp/display.h ****         currentY_ = (y >= Height()) ? Height() - 1 : y;
 1211              		.loc 9 173 32 view .LVU276
 1212 0190 3046     		mov	r0, r6
 1213 0192 9847     		blx	r3
 1214              	.LVL67:
 173:../../libDaisy//src/hid/disp/display.h ****         currentY_ = (y >= Height()) ? Height() - 1 : y;
 1215              		.loc 9 173 44 view .LVU277
ARM GAS  /var/folders/hl/qgbwny5j0fd895c2c41bk3tw0000gp/T//cceIFtrC.s 			page 57


 1216 0194 3268     		ldr	r2, [r6]
 1217 0196 C7E7     		b	.L55
 1218              	.LVL68:
 1219              	.L45:
 173:../../libDaisy//src/hid/disp/display.h ****         currentY_ = (y >= Height()) ? Height() - 1 : y;
 1220              		.loc 9 173 44 view .LVU278
 1221              	.LBE634:
 1222              	.LBE638:
 434:../../libDaisy//src/hid/disp/display.h **** 
 1223              		.loc 9 434 19 view .LVU279
 1224 0198 B6F804B0 		ldrh	fp, [r6, #4]
 1225 019c BBE7     		b	.L47
 1226              	.LVL69:
 1227              	.L82:
 1228              	.LBB639:
 1229              	.LBB635:
 174:../../libDaisy//src/hid/disp/display.h ****     }
 1230              		.loc 9 174 45 view .LVU280
 1231 019e 3046     		mov	r0, r6
 1232 01a0 9847     		blx	r3
 1233              	.LVL70:
 174:../../libDaisy//src/hid/disp/display.h ****     }
 1234              		.loc 9 174 19 view .LVU281
 1235 01a2 0138     		subs	r0, r0, #1
 1236 01a4 83B2     		uxth	r3, r0
 1237 01a6 0293     		str	r3, [sp, #8]
 1238              	.LVL71:
 174:../../libDaisy//src/hid/disp/display.h ****     }
 1239              		.loc 9 174 19 view .LVU282
 1240 01a8 D5E7     		b	.L59
 1241              	.LVL72:
 1242              	.L80:
 173:../../libDaisy//src/hid/disp/display.h ****         currentY_ = (y >= Height()) ? Height() - 1 : y;
 1243              		.loc 9 173 43 view .LVU283
 1244 01aa 3046     		mov	r0, r6
 1245 01ac 9847     		blx	r3
 1246              	.LVL73:
 173:../../libDaisy//src/hid/disp/display.h ****         currentY_ = (y >= Height()) ? Height() - 1 : y;
 1247              		.loc 9 173 19 view .LVU284
 1248 01ae 0138     		subs	r0, r0, #1
 174:../../libDaisy//src/hid/disp/display.h ****     }
 1249              		.loc 9 174 34 view .LVU285
 1250 01b0 3268     		ldr	r2, [r6]
 173:../../libDaisy//src/hid/disp/display.h ****         currentY_ = (y >= Height()) ? Height() - 1 : y;
 1251              		.loc 9 173 19 view .LVU286
 1252 01b2 84B2     		uxth	r4, r0
 1253              	.LVL74:
 173:../../libDaisy//src/hid/disp/display.h ****         currentY_ = (y >= Height()) ? Height() - 1 : y;
 1254              		.loc 9 173 19 view .LVU287
 1255 01b4 BFE7     		b	.L56
 1256              	.L84:
 1257 01b6 00BF     		.align	2
 1258              	.L83:
 1259 01b8 00000000 		.word	_ZNK5daisy11OledDisplayINS_13SSD130xDriverILj128ELj64ENS_19SSD130xI2CTransportEEEE5WidthEv
 1260 01bc 00000000 		.word	_ZNK5daisy11OledDisplayINS_13SSD130xDriverILj128ELj64ENS_19SSD130xI2CTransportEEEE6HeightEv
 1261              	.LBE635:
 1262              	.LBE639:
ARM GAS  /var/folders/hl/qgbwny5j0fd895c2c41bk3tw0000gp/T//cceIFtrC.s 			page 58


 1263              	.LBE641:
 1264              	.LBE643:
 1265              		.cfi_endproc
 1266              	.LFE5452:
 1268              		.section	.text._ZN5daisy25OneBitGraphicsDisplayImplINS_11OledDisplayINS_13SSD130xDriverILj128ELj64
 1269              		.align	1
 1270              		.p2align 2,,3
 1271              		.weak	_ZN5daisy25OneBitGraphicsDisplayImplINS_11OledDisplayINS_13SSD130xDriverILj128ELj64ENS_19SSD
 1272              		.syntax unified
 1273              		.thumb
 1274              		.thumb_func
 1275              		.fpu fpv5-d16
 1277              	_ZN5daisy25OneBitGraphicsDisplayImplINS_11OledDisplayINS_13SSD130xDriverILj128ELj64ENS_19SSD130xI2C
 1278              	.LVL75:
 1279              	.LFB5451:
 396:../../libDaisy//src/hid/disp/display.h ****     {
 1280              		.loc 9 396 10 is_stmt 1 view -0
 1281              		.cfi_startproc
 1282              		@ args = 4, pretend = 0, frame = 16
 1283              		@ frame_needed = 0, uses_anonymous_args = 0
 396:../../libDaisy//src/hid/disp/display.h ****     {
 1284              		.loc 9 396 10 is_stmt 0 view .LVU289
 1285 0000 2DE9F04F 		push	{r4, r5, r6, r7, r8, r9, r10, fp, lr}
 1286              		.cfi_def_cfa_offset 36
 1287              		.cfi_offset 4, -36
 1288              		.cfi_offset 5, -32
 1289              		.cfi_offset 6, -28
 1290              		.cfi_offset 7, -24
 1291              		.cfi_offset 8, -20
 1292              		.cfi_offset 9, -16
 1293              		.cfi_offset 10, -12
 1294              		.cfi_offset 11, -8
 1295              		.cfi_offset 14, -4
 1296 0004 85B0     		sub	sp, sp, #20
 1297              		.cfi_def_cfa_offset 56
 1298              	.LVL76:
 401:../../libDaisy//src/hid/disp/display.h ****             return 0;
 1299              		.loc 9 401 20 view .LVU290
 1300 0006 A1F12005 		sub	r5, r1, #32
 396:../../libDaisy//src/hid/disp/display.h ****     {
 1301              		.loc 9 396 10 view .LVU291
 1302 000a 04AC     		add	r4, sp, #16
 1303 000c 9DF83870 		ldrb	r7, [sp, #56]	@ zero_extendqisi2
 1304 0010 0091     		str	r1, [sp]
 1305 0012 04E90C00 		stmdb	r4, {r2, r3}
 1306              	.LVL77:
 401:../../libDaisy//src/hid/disp/display.h ****             return 0;
 1307              		.loc 9 401 9 view .LVU292
 1308 0016 EBB2     		uxtb	r3, r5
 1309 0018 5E2B     		cmp	r3, #94
 1310 001a 00F29580 		bhi	.L89
 405:../../libDaisy//src/hid/disp/display.h ****            || Height() < (currentY_ + font.FontHeight))
 1311              		.loc 9 405 17 view .LVU293
 1312 001e 0368     		ldr	r3, [r0]
 1313 0020 8046     		mov	r8, r0
 1314 0022 5D4A     		ldr	r2, .L124
 1315 0024 DB68     		ldr	r3, [r3, #12]
ARM GAS  /var/folders/hl/qgbwny5j0fd895c2c41bk3tw0000gp/T//cceIFtrC.s 			page 59


 1316 0026 9DF80840 		ldrb	r4, [sp, #8]	@ zero_extendqisi2
 1317 002a 9342     		cmp	r3, r2
 1318 002c 9DF80960 		ldrb	r6, [sp, #9]	@ zero_extendqisi2
 1319 0030 40F09480 		bne	.L116
 1320 0034 8020     		movs	r0, #128
 1321              	.LVL78:
 1322              	.L88:
 405:../../libDaisy//src/hid/disp/display.h ****            || Height() < (currentY_ + font.FontHeight))
 1323              		.loc 9 405 23 view .LVU294
 1324 0036 B8F80430 		ldrh	r3, [r8, #4]
 405:../../libDaisy//src/hid/disp/display.h ****            || Height() < (currentY_ + font.FontHeight))
 1325              		.loc 9 405 33 view .LVU295
 1326 003a 2344     		add	r3, r3, r4
 406:../../libDaisy//src/hid/disp/display.h ****         {
 1327              		.loc 9 406 12 view .LVU296
 1328 003c 8342     		cmp	r3, r0
 1329 003e 00F38380 		bgt	.L89
 406:../../libDaisy//src/hid/disp/display.h ****         {
 1330              		.loc 9 406 21 discriminator 2 view .LVU297
 1331 0042 D8F80030 		ldr	r3, [r8]
 1332 0046 554A     		ldr	r2, .L124+4
 1333 0048 9B68     		ldr	r3, [r3, #8]
 1334 004a 9342     		cmp	r3, r2
 1335 004c 40F08880 		bne	.L117
 406:../../libDaisy//src/hid/disp/display.h ****         {
 1336              		.loc 9 406 21 view .LVU298
 1337 0050 4020     		movs	r0, #64
 1338              	.L90:
 406:../../libDaisy//src/hid/disp/display.h ****         {
 1339              		.loc 9 406 27 discriminator 2 view .LVU299
 1340 0052 B8F80620 		ldrh	r2, [r8, #6]
 406:../../libDaisy//src/hid/disp/display.h ****         {
 1341              		.loc 9 406 37 discriminator 2 view .LVU300
 1342 0056 9319     		adds	r3, r2, r6
 406:../../libDaisy//src/hid/disp/display.h ****         {
 1343              		.loc 9 406 27 discriminator 2 view .LVU301
 1344 0058 0192     		str	r2, [sp, #4]
 406:../../libDaisy//src/hid/disp/display.h ****         {
 1345              		.loc 9 406 12 discriminator 2 view .LVU302
 1346 005a 8342     		cmp	r3, r0
 1347 005c 74DC     		bgt	.L89
 1348              	.LVL79:
 413:../../libDaisy//src/hid/disp/display.h ****         {
 1349              		.loc 9 413 22 is_stmt 1 view .LVU303
 1350 005e 002E     		cmp	r6, #0
 1351 0060 00F08980 		beq	.L91
 415:../../libDaisy//src/hid/disp/display.h ****             for(j = 0; j < font.FontWidth; j++)
 1352              		.loc 9 415 37 is_stmt 0 view .LVU304
 1353 0064 06FB05F5 		mul	r5, r6, r5
 1354 0068 6FF00040 		mvn	r0, #-2147483648
 415:../../libDaisy//src/hid/disp/display.h ****             for(j = 0; j < font.FontWidth; j++)
 1355              		.loc 9 415 22 view .LVU305
 1356 006c 039B     		ldr	r3, [sp, #12]
 1357 006e 9646     		mov	lr, r2
 1358 0070 2844     		add	r0, r0, r5
 1359 0072 2E44     		add	r6, r6, r5
 434:../../libDaisy//src/hid/disp/display.h **** 
ARM GAS  /var/folders/hl/qgbwny5j0fd895c2c41bk3tw0000gp/T//cceIFtrC.s 			page 60


 1360              		.loc 9 434 19 view .LVU306
 1361 0074 B8F804A0 		ldrh	r10, [r8, #4]
 1362 0078 03EB4000 		add	r0, r3, r0, lsl #1
 1363 007c 023B     		subs	r3, r3, #2
 1364 007e 03EB460B 		add	fp, r3, r6, lsl #1
 1365              	.LVL80:
 1366              	.L94:
 415:../../libDaisy//src/hid/disp/display.h ****             for(j = 0; j < font.FontWidth; j++)
 1367              		.loc 9 415 15 view .LVU307
 1368 0082 30F8026F 		ldrh	r6, [r0, #2]!
 1369              	.LVL81:
 416:../../libDaisy//src/hid/disp/display.h ****             {
 1370              		.loc 9 416 26 is_stmt 1 view .LVU308
 1371 0086 BCB3     		cbz	r4, .L99
 1372              	.LBB674:
 1373              	.LBB675:
 1374              	.LBB676:
 1375              	.LBB677:
 1376              	.LBB678:
 359:../../libDaisy//src/dev/oled_ssd130x.h ****     }
 1377              		.loc 15 359 55 is_stmt 0 view .LVU309
 1378 0088 0EF00703 		and	r3, lr, #7
 359:../../libDaisy//src/dev/oled_ssd130x.h ****     }
 1379              		.loc 15 359 49 view .LVU310
 1380 008c 4FF0010C 		mov	ip, #1
 359:../../libDaisy//src/dev/oled_ssd130x.h ****     }
 1381              		.loc 15 359 28 view .LVU311
 1382 0090 4FEADE02 		lsr	r2, lr, #3
 1383 0094 5146     		mov	r1, r10
 359:../../libDaisy//src/dev/oled_ssd130x.h ****     }
 1384              		.loc 15 359 49 view .LVU312
 1385 0096 0CFA03FC 		lsl	ip, ip, r3
 1386 009a 0AF11003 		add	r3, r10, #16
 359:../../libDaisy//src/dev/oled_ssd130x.h ****     }
 1387              		.loc 15 359 42 view .LVU313
 1388 009e 4FFA8CFC 		sxtb	ip, ip
 1389 00a2 03EBC212 		add	r2, r3, r2, lsl #7
 1390              	.LBE678:
 1391              	.LBE677:
 1392              	.LBE676:
 1393              	.LBE675:
 1394              	.LBE674:
 416:../../libDaisy//src/hid/disp/display.h ****             {
 1395              		.loc 9 416 19 view .LVU314
 1396 00a6 0023     		movs	r3, #0
 1397              	.LBB696:
 1398              	.LBB691:
 1399              	.LBB686:
 1400              	.LBB682:
 1401              	.LBB679:
 359:../../libDaisy//src/dev/oled_ssd130x.h ****     }
 1402              		.loc 15 359 42 view .LVU315
 1403 00a8 6FEA0C09 		mvn	r9, ip
 1404 00ac 4244     		add	r2, r2, r8
 1405 00ae 0EE0     		b	.L100
 1406              	.LVL82:
 1407              	.L118:
ARM GAS  /var/folders/hl/qgbwny5j0fd895c2c41bk3tw0000gp/T//cceIFtrC.s 			page 61


 359:../../libDaisy//src/dev/oled_ssd130x.h ****     }
 1408              		.loc 15 359 42 view .LVU316
 1409              	.LBE679:
 1410              	.LBE682:
 1411              	.LBE686:
 1412              	.LBE691:
 1413              	.LBE696:
 1414              	.LBB697:
 1415              	.LBI697:
  42:../../libDaisy//src/hid/disp/oled_display.h ****     {
 1416              		.loc 8 42 10 is_stmt 1 view .LVU317
 1417              	.LBB698:
 1418              	.LBI698:
 352:../../libDaisy//src/dev/oled_ssd130x.h ****     {
 1419              		.loc 15 352 10 view .LVU318
 1420              	.LBB699:
 354:../../libDaisy//src/dev/oled_ssd130x.h ****             return;
 1421              		.loc 15 354 9 is_stmt 0 view .LVU319
 1422 00b0 7F29     		cmp	r1, #127
 1423 00b2 07D8     		bhi	.L96
 1424 00b4 BEF13F0F 		cmp	lr, #63
 1425 00b8 04D8     		bhi	.L96
 357:../../libDaisy//src/dev/oled_ssd130x.h ****         else
 1426              		.loc 15 357 42 view .LVU320
 1427 00ba 1578     		ldrb	r5, [r2]	@ zero_extendqisi2
 356:../../libDaisy//src/dev/oled_ssd130x.h ****             buffer_[x + (y / 8) * width] |= (1 << (y % 8));
 1428              		.loc 15 356 9 view .LVU321
 1429 00bc 9FB1     		cbz	r7, .L98
 1430              	.L115:
 356:../../libDaisy//src/dev/oled_ssd130x.h ****             buffer_[x + (y / 8) * width] |= (1 << (y % 8));
 1431              		.loc 15 356 9 view .LVU322
 1432              	.LBE699:
 1433              	.LBE698:
 1434              	.LBE697:
 1435              	.LBB700:
 1436              	.LBB692:
 1437              	.LBB687:
 357:../../libDaisy//src/dev/oled_ssd130x.h ****         else
 1438              		.loc 15 357 42 view .LVU323
 1439 00be 4CEA0505 		orr	r5, ip, r5
 1440 00c2 1570     		strb	r5, [r2]
 1441              	.L96:
 1442              	.LBE687:
 1443              	.LBE692:
 1444              	.LBE700:
 416:../../libDaisy//src/hid/disp/display.h ****             {
 1445              		.loc 9 416 13 is_stmt 1 discriminator 2 view .LVU324
 1446 00c4 0133     		adds	r3, r3, #1
 1447              	.LVL83:
 416:../../libDaisy//src/hid/disp/display.h ****             {
 1448              		.loc 9 416 26 discriminator 2 view .LVU325
 1449 00c6 0132     		adds	r2, r2, #1
 1450 00c8 0131     		adds	r1, r1, #1
 1451 00ca 9C42     		cmp	r4, r3
 1452 00cc 14D0     		beq	.L99
 1453              	.LVL84:
 1454              	.L100:
ARM GAS  /var/folders/hl/qgbwny5j0fd895c2c41bk3tw0000gp/T//cceIFtrC.s 			page 62


 418:../../libDaisy//src/hid/disp/display.h ****                 {
 1455              		.loc 9 418 23 is_stmt 0 view .LVU326
 1456 00ce 06FA03F5 		lsl	r5, r6, r3
 418:../../libDaisy//src/hid/disp/display.h ****                 {
 1457              		.loc 9 418 17 view .LVU327
 1458 00d2 2D04     		lsls	r5, r5, #16
 1459 00d4 ECD4     		bmi	.L118
 1460              	.LVL85:
 1461              	.LBB701:
 1462              	.LBI674:
  42:../../libDaisy//src/hid/disp/oled_display.h ****     {
 1463              		.loc 8 42 10 is_stmt 1 view .LVU328
 1464              	.LBB693:
 1465              	.LBI675:
 352:../../libDaisy//src/dev/oled_ssd130x.h ****     {
 1466              		.loc 15 352 10 view .LVU329
 1467              	.LBB688:
 354:../../libDaisy//src/dev/oled_ssd130x.h ****             return;
 1468              		.loc 15 354 9 is_stmt 0 view .LVU330
 1469 00d6 7F29     		cmp	r1, #127
 1470 00d8 F4D8     		bhi	.L96
 1471 00da BEF13F0F 		cmp	lr, #63
 1472 00de F1D8     		bhi	.L96
 357:../../libDaisy//src/dev/oled_ssd130x.h ****         else
 1473              		.loc 15 357 42 view .LVU331
 1474 00e0 1578     		ldrb	r5, [r2]	@ zero_extendqisi2
 356:../../libDaisy//src/dev/oled_ssd130x.h ****             buffer_[x + (y / 8) * width] |= (1 << (y % 8));
 1475              		.loc 15 356 9 view .LVU332
 1476 00e2 002F     		cmp	r7, #0
 1477 00e4 EBD0     		beq	.L115
 1478              	.L98:
 1479              	.LVL86:
 1480              	.LBB683:
 1481              	.LBI677:
 352:../../libDaisy//src/dev/oled_ssd130x.h ****     {
 1482              		.loc 15 352 10 is_stmt 1 view .LVU333
 352:../../libDaisy//src/dev/oled_ssd130x.h ****     {
 1483              		.loc 15 352 10 is_stmt 0 view .LVU334
 1484              	.LBE683:
 1485              	.LBE688:
 1486              	.LBE693:
 1487              	.LBE701:
 416:../../libDaisy//src/hid/disp/display.h ****             {
 1488              		.loc 9 416 13 view .LVU335
 1489 00e6 0133     		adds	r3, r3, #1
 1490              	.LVL87:
 1491              	.LBB702:
 1492              	.LBB694:
 1493              	.LBB689:
 1494              	.LBB684:
 1495              	.LBB680:
 359:../../libDaisy//src/dev/oled_ssd130x.h ****     }
 1496              		.loc 15 359 42 view .LVU336
 1497 00e8 09EA0505 		and	r5, r9, r5
 1498              	.LBE680:
 1499              	.LBE684:
 1500              	.LBE689:
ARM GAS  /var/folders/hl/qgbwny5j0fd895c2c41bk3tw0000gp/T//cceIFtrC.s 			page 63


 1501              	.LBE694:
 1502              	.LBE702:
 416:../../libDaisy//src/hid/disp/display.h ****             {
 1503              		.loc 9 416 26 view .LVU337
 1504 00ec 0132     		adds	r2, r2, #1
 1505 00ee 0131     		adds	r1, r1, #1
 1506 00f0 9C42     		cmp	r4, r3
 1507              	.LBB703:
 1508              	.LBB695:
 1509              	.LBB690:
 1510              	.LBB685:
 1511              	.LBB681:
 359:../../libDaisy//src/dev/oled_ssd130x.h ****     }
 1512              		.loc 15 359 42 view .LVU338
 1513 00f2 02F8015C 		strb	r5, [r2, #-1]
 359:../../libDaisy//src/dev/oled_ssd130x.h ****     }
 1514              		.loc 15 359 42 view .LVU339
 1515              	.LBE681:
 1516              	.LBE685:
 1517              	.LBE690:
 1518              	.LBE695:
 1519              	.LBE703:
 416:../../libDaisy//src/hid/disp/display.h ****             {
 1520              		.loc 9 416 13 is_stmt 1 view .LVU340
 1521              	.LVL88:
 416:../../libDaisy//src/hid/disp/display.h ****             {
 1522              		.loc 9 416 26 view .LVU341
 1523 00f6 EAD1     		bne	.L100
 1524              	.LVL89:
 1525              	.L99:
 413:../../libDaisy//src/hid/disp/display.h ****         {
 1526              		.loc 9 413 9 view .LVU342
 413:../../libDaisy//src/hid/disp/display.h ****         {
 1527              		.loc 9 413 22 view .LVU343
 1528 00f8 5845     		cmp	r0, fp
 1529 00fa 0EF1010E 		add	lr, lr, #1
 1530 00fe C0D1     		bne	.L94
 1531              	.LVL90:
 1532              	.L93:
 1533              	.LBB704:
 1534              	.LBB705:
 173:../../libDaisy//src/hid/disp/display.h ****         currentY_ = (y >= Height()) ? Height() - 1 : y;
 1535              		.loc 9 173 33 is_stmt 0 view .LVU344
 1536 0100 D8F80030 		ldr	r3, [r8]
 1537              	.LBE705:
 1538              	.LBE704:
 434:../../libDaisy//src/hid/disp/display.h **** 
 1539              		.loc 9 434 18 view .LVU345
 1540 0104 5444     		add	r4, r4, r10
 1541 0106 2449     		ldr	r1, .L124
 1542              	.LBB711:
 1543              	.LBB706:
 173:../../libDaisy//src/hid/disp/display.h ****         currentY_ = (y >= Height()) ? Height() - 1 : y;
 1544              		.loc 9 173 33 view .LVU346
 1545 0108 DA68     		ldr	r2, [r3, #12]
 1546              	.LBE706:
 1547              	.LBE711:
ARM GAS  /var/folders/hl/qgbwny5j0fd895c2c41bk3tw0000gp/T//cceIFtrC.s 			page 64


 434:../../libDaisy//src/hid/disp/display.h **** 
 1548              		.loc 9 434 18 view .LVU347
 1549 010a A4B2     		uxth	r4, r4
 1550              	.LVL91:
 1551              	.LBB712:
 1552              	.LBI704:
 171:../../libDaisy//src/hid/disp/display.h ****     {
 1553              		.loc 9 171 10 is_stmt 1 view .LVU348
 1554              	.LBB707:
 173:../../libDaisy//src/hid/disp/display.h ****         currentY_ = (y >= Height()) ? Height() - 1 : y;
 1555              		.loc 9 173 9 view .LVU349
 1556 010c 8A42     		cmp	r2, r1
 1557 010e 2DD1     		bne	.L119
 173:../../libDaisy//src/hid/disp/display.h ****         currentY_ = (y >= Height()) ? Height() - 1 : y;
 1558              		.loc 9 173 33 is_stmt 0 view .LVU350
 1559 0110 8020     		movs	r0, #128
 1560              	.L101:
 173:../../libDaisy//src/hid/disp/display.h ****         currentY_ = (y >= Height()) ? Height() - 1 : y;
 1561              		.loc 9 173 19 view .LVU351
 1562 0112 8442     		cmp	r4, r0
 1563 0114 1CD2     		bcs	.L120
 1564              	.LVL92:
 1565              	.L102:
 174:../../libDaisy//src/hid/disp/display.h ****     }
 1566              		.loc 9 174 34 view .LVU352
 1567 0116 9B68     		ldr	r3, [r3, #8]
 1568 0118 204A     		ldr	r2, .L124+4
 173:../../libDaisy//src/hid/disp/display.h ****         currentY_ = (y >= Height()) ? Height() - 1 : y;
 1569              		.loc 9 173 19 view .LVU353
 1570 011a A8F80440 		strh	r4, [r8, #4]	@ movhi
 174:../../libDaisy//src/hid/disp/display.h ****     }
 1571              		.loc 9 174 9 is_stmt 1 view .LVU354
 1572 011e 9342     		cmp	r3, r2
 1573 0120 21D1     		bne	.L121
 174:../../libDaisy//src/hid/disp/display.h ****     }
 1574              		.loc 9 174 34 is_stmt 0 view .LVU355
 1575 0122 4020     		movs	r0, #64
 1576              	.L104:
 174:../../libDaisy//src/hid/disp/display.h ****     }
 1577              		.loc 9 174 19 view .LVU356
 1578 0124 019B     		ldr	r3, [sp, #4]
 1579 0126 8342     		cmp	r3, r0
 1580 0128 07D3     		bcc	.L105
 174:../../libDaisy//src/hid/disp/display.h ****     }
 1581              		.loc 9 174 46 view .LVU357
 1582 012a D8F80030 		ldr	r3, [r8]
 1583 012e 1B4A     		ldr	r2, .L124+4
 1584 0130 9B68     		ldr	r3, [r3, #8]
 1585 0132 9342     		cmp	r3, r2
 1586 0134 29D1     		bne	.L122
 1587 0136 3F23     		movs	r3, #63
 1588 0138 0193     		str	r3, [sp, #4]
 1589              	.LVL93:
 1590              	.L105:
 174:../../libDaisy//src/hid/disp/display.h ****     }
 1591              		.loc 9 174 19 view .LVU358
 1592 013a DDE90003 		ldrd	r0, r3, [sp]
ARM GAS  /var/folders/hl/qgbwny5j0fd895c2c41bk3tw0000gp/T//cceIFtrC.s 			page 65


 1593 013e A8F80630 		strh	r3, [r8, #6]	@ movhi
 1594              	.LVL94:
 174:../../libDaisy//src/hid/disp/display.h ****     }
 1595              		.loc 9 174 19 view .LVU359
 1596              	.LBE707:
 1597              	.LBE712:
 438:../../libDaisy//src/hid/disp/display.h **** 
 1598              		.loc 9 438 5 view .LVU360
 1599 0142 05B0     		add	sp, sp, #20
 1600              		.cfi_remember_state
 1601              		.cfi_def_cfa_offset 36
 1602              		@ sp needed
 1603 0144 BDE8F08F 		pop	{r4, r5, r6, r7, r8, r9, r10, fp, pc}
 1604              	.LVL95:
 1605              	.L89:
 1606              		.cfi_restore_state
 402:../../libDaisy//src/hid/disp/display.h **** 
 1607              		.loc 9 402 20 view .LVU361
 1608 0148 0020     		movs	r0, #0
 438:../../libDaisy//src/hid/disp/display.h **** 
 1609              		.loc 9 438 5 view .LVU362
 1610 014a 05B0     		add	sp, sp, #20
 1611              		.cfi_remember_state
 1612              		.cfi_def_cfa_offset 36
 1613              		@ sp needed
 1614 014c BDE8F08F 		pop	{r4, r5, r6, r7, r8, r9, r10, fp, pc}
 1615              	.LVL96:
 1616              	.L120:
 1617              		.cfi_restore_state
 1618              	.LBB713:
 1619              	.LBB708:
 173:../../libDaisy//src/hid/disp/display.h ****         currentY_ = (y >= Height()) ? Height() - 1 : y;
 1620              		.loc 9 173 44 view .LVU363
 1621 0150 DA68     		ldr	r2, [r3, #12]
 1622 0152 1149     		ldr	r1, .L124
 1623 0154 8A42     		cmp	r2, r1
 1624 0156 11D1     		bne	.L123
 1625 0158 7F24     		movs	r4, #127
 1626              	.LVL97:
 173:../../libDaisy//src/hid/disp/display.h ****         currentY_ = (y >= Height()) ? Height() - 1 : y;
 1627              		.loc 9 173 44 view .LVU364
 1628 015a DCE7     		b	.L102
 1629              	.LVL98:
 1630              	.L116:
 173:../../libDaisy//src/hid/disp/display.h ****         currentY_ = (y >= Height()) ? Height() - 1 : y;
 1631              		.loc 9 173 44 view .LVU365
 1632              	.LBE708:
 1633              	.LBE713:
 405:../../libDaisy//src/hid/disp/display.h ****            || Height() < (currentY_ + font.FontHeight))
 1634              		.loc 9 405 17 view .LVU366
 1635 015c 9847     		blx	r3
 1636              	.LVL99:
 405:../../libDaisy//src/hid/disp/display.h ****            || Height() < (currentY_ + font.FontHeight))
 1637              		.loc 9 405 17 view .LVU367
 1638 015e 6AE7     		b	.L88
 1639              	.L117:
 406:../../libDaisy//src/hid/disp/display.h ****         {
ARM GAS  /var/folders/hl/qgbwny5j0fd895c2c41bk3tw0000gp/T//cceIFtrC.s 			page 66


 1640              		.loc 9 406 21 discriminator 2 view .LVU368
 1641 0160 4046     		mov	r0, r8
 1642 0162 9847     		blx	r3
 1643              	.LVL100:
 1644 0164 75E7     		b	.L90
 1645              	.LVL101:
 1646              	.L121:
 1647              	.LBB714:
 1648              	.LBB709:
 174:../../libDaisy//src/hid/disp/display.h ****     }
 1649              		.loc 9 174 33 view .LVU369
 1650 0166 4046     		mov	r0, r8
 1651 0168 9847     		blx	r3
 1652              	.LVL102:
 1653 016a DBE7     		b	.L104
 1654              	.LVL103:
 1655              	.L119:
 173:../../libDaisy//src/hid/disp/display.h ****         currentY_ = (y >= Height()) ? Height() - 1 : y;
 1656              		.loc 9 173 32 view .LVU370
 1657 016c 4046     		mov	r0, r8
 1658 016e 9047     		blx	r2
 1659              	.LVL104:
 173:../../libDaisy//src/hid/disp/display.h ****         currentY_ = (y >= Height()) ? Height() - 1 : y;
 1660              		.loc 9 173 44 view .LVU371
 1661 0170 D8F80030 		ldr	r3, [r8]
 1662 0174 CDE7     		b	.L101
 1663              	.LVL105:
 1664              	.L91:
 173:../../libDaisy//src/hid/disp/display.h ****         currentY_ = (y >= Height()) ? Height() - 1 : y;
 1665              		.loc 9 173 44 view .LVU372
 1666              	.LBE709:
 1667              	.LBE714:
 434:../../libDaisy//src/hid/disp/display.h **** 
 1668              		.loc 9 434 19 view .LVU373
 1669 0176 B8F804A0 		ldrh	r10, [r8, #4]
 1670 017a C1E7     		b	.L93
 1671              	.LVL106:
 1672              	.L123:
 1673              	.LBB715:
 1674              	.LBB710:
 173:../../libDaisy//src/hid/disp/display.h ****         currentY_ = (y >= Height()) ? Height() - 1 : y;
 1675              		.loc 9 173 43 view .LVU374
 1676 017c 4046     		mov	r0, r8
 1677 017e 9047     		blx	r2
 1678              	.LVL107:
 173:../../libDaisy//src/hid/disp/display.h ****         currentY_ = (y >= Height()) ? Height() - 1 : y;
 1679              		.loc 9 173 19 view .LVU375
 1680 0180 0138     		subs	r0, r0, #1
 174:../../libDaisy//src/hid/disp/display.h ****     }
 1681              		.loc 9 174 34 view .LVU376
 1682 0182 D8F80030 		ldr	r3, [r8]
 173:../../libDaisy//src/hid/disp/display.h ****         currentY_ = (y >= Height()) ? Height() - 1 : y;
 1683              		.loc 9 173 19 view .LVU377
 1684 0186 84B2     		uxth	r4, r0
 1685              	.LVL108:
 173:../../libDaisy//src/hid/disp/display.h ****         currentY_ = (y >= Height()) ? Height() - 1 : y;
 1686              		.loc 9 173 19 view .LVU378
ARM GAS  /var/folders/hl/qgbwny5j0fd895c2c41bk3tw0000gp/T//cceIFtrC.s 			page 67


 1687 0188 C5E7     		b	.L102
 1688              	.L122:
 174:../../libDaisy//src/hid/disp/display.h ****     }
 1689              		.loc 9 174 45 view .LVU379
 1690 018a 4046     		mov	r0, r8
 1691 018c 9847     		blx	r3
 1692              	.LVL109:
 174:../../libDaisy//src/hid/disp/display.h ****     }
 1693              		.loc 9 174 19 view .LVU380
 1694 018e 0138     		subs	r0, r0, #1
 1695 0190 83B2     		uxth	r3, r0
 1696 0192 0193     		str	r3, [sp, #4]
 1697              	.LVL110:
 174:../../libDaisy//src/hid/disp/display.h ****     }
 1698              		.loc 9 174 19 view .LVU381
 1699 0194 D1E7     		b	.L105
 1700              	.L125:
 1701 0196 00BF     		.align	2
 1702              	.L124:
 1703 0198 00000000 		.word	_ZNK5daisy11OledDisplayINS_13SSD130xDriverILj128ELj64ENS_19SSD130xI2CTransportEEEE5WidthEv
 1704 019c 00000000 		.word	_ZNK5daisy11OledDisplayINS_13SSD130xDriverILj128ELj64ENS_19SSD130xI2CTransportEEEE6HeightEv
 1705              	.LBE710:
 1706              	.LBE715:
 1707              		.cfi_endproc
 1708              	.LFE5451:
 1710              		.section	.text._ZN5daisy25OneBitGraphicsDisplayImplINS_11OledDisplayINS_13SSD130xDriverILj128ELj64
 1711              		.align	1
 1712              		.p2align 2,,3
 1713              		.weak	_ZN5daisy25OneBitGraphicsDisplayImplINS_11OledDisplayINS_13SSD130xDriverILj128ELj64ENS_19SSD
 1714              		.syntax unified
 1715              		.thumb
 1716              		.thumb_func
 1717              		.fpu fpv5-d16
 1719              	_ZN5daisy25OneBitGraphicsDisplayImplINS_11OledDisplayINS_13SSD130xDriverILj128ELj64ENS_19SSD130xI2C
 1720              	.LVL111:
 1721              	.LFB5453:
 459:../../libDaisy//src/hid/disp/display.h **** 
 460:../../libDaisy//src/hid/disp/display.h ****     Rectangle WriteStringAligned(const char*    str,
 1722              		.loc 9 460 15 is_stmt 1 view -0
 1723              		.cfi_startproc
 1724              		@ args = 12, pretend = 0, frame = 32
 1725              		@ frame_needed = 0, uses_anonymous_args = 0
 1726              		.loc 9 460 15 is_stmt 0 view .LVU383
 1727 0000 2DE9F04F 		push	{r4, r5, r6, r7, r8, r9, r10, fp, lr}
 1728              		.cfi_def_cfa_offset 36
 1729              		.cfi_offset 4, -36
 1730              		.cfi_offset 5, -32
 1731              		.cfi_offset 6, -28
 1732              		.cfi_offset 7, -24
 1733              		.cfi_offset 8, -20
 1734              		.cfi_offset 9, -16
 1735              		.cfi_offset 10, -12
 1736              		.cfi_offset 11, -8
 1737              		.cfi_offset 14, -4
 1738 0004 89B0     		sub	sp, sp, #36
 1739              		.cfi_def_cfa_offset 72
 1740              		.loc 9 460 15 view .LVU384
ARM GAS  /var/folders/hl/qgbwny5j0fd895c2c41bk3tw0000gp/T//cceIFtrC.s 			page 68


 1741 0006 1D46     		mov	r5, r3
 1742 0008 8846     		mov	r8, r1
 1743              	.LVL112:
 1744              	.LBB854:
 1745              	.LBI854:
 461:../../libDaisy//src/hid/disp/display.h ****                                  const FontDef& font,
 462:../../libDaisy//src/hid/disp/display.h ****                                  Rectangle      boundingBox,
 463:../../libDaisy//src/hid/disp/display.h ****                                  Alignment      alignment,
 464:../../libDaisy//src/hid/disp/display.h ****                                  bool           on) override
 465:../../libDaisy//src/hid/disp/display.h ****     {
 466:../../libDaisy//src/hid/disp/display.h ****         const auto alignedRect
 467:../../libDaisy//src/hid/disp/display.h ****             = GetTextRect(str, font).AlignedWithin(boundingBox, alignment);
 468:../../libDaisy//src/hid/disp/display.h ****         SetCursor(alignedRect.GetX(), alignedRect.GetY());
 469:../../libDaisy//src/hid/disp/display.h ****         ((ChildType*)(this))->ChildType::WriteString(str, font, on);
 470:../../libDaisy//src/hid/disp/display.h ****         return alignedRect;
 471:../../libDaisy//src/hid/disp/display.h ****     }
 472:../../libDaisy//src/hid/disp/display.h **** 
 473:../../libDaisy//src/hid/disp/display.h ****   private:
 474:../../libDaisy//src/hid/disp/display.h ****     uint32_t strlen(const char* string)
 475:../../libDaisy//src/hid/disp/display.h ****     {
 476:../../libDaisy//src/hid/disp/display.h ****         uint32_t result = 0;
 477:../../libDaisy//src/hid/disp/display.h ****         while(*string++ != '\0')
 478:../../libDaisy//src/hid/disp/display.h ****             result++;
 479:../../libDaisy//src/hid/disp/display.h ****         return result;
 480:../../libDaisy//src/hid/disp/display.h ****     }
 481:../../libDaisy//src/hid/disp/display.h **** 
 482:../../libDaisy//src/hid/disp/display.h ****     Rectangle GetTextRect(const char* text, const FontDef& font)
 1746              		.loc 9 482 15 is_stmt 1 view .LVU385
 1747              	.LBB855:
 1748              	.LBB856:
 1749              	.LBI856:
 474:../../libDaisy//src/hid/disp/display.h ****     {
 1750              		.loc 9 474 14 view .LVU386
 1751              	.LBB857:
 477:../../libDaisy//src/hid/disp/display.h ****             result++;
 1752              		.loc 9 477 25 view .LVU387
 1753              	.LBE857:
 1754              	.LBE856:
 1755              	.LBE855:
 1756              	.LBE854:
 460:../../libDaisy//src/hid/disp/display.h ****                                  const FontDef& font,
 1757              		.loc 9 460 15 is_stmt 0 view .LVU388
 1758 000a 0690     		str	r0, [sp, #24]
 1759              	.LBB872:
 1760              	.LBB868:
 1761              	.LBB861:
 1762              	.LBB858:
 477:../../libDaisy//src/hid/disp/display.h ****             result++;
 1763              		.loc 9 477 25 view .LVU389
 1764 000c 1046     		mov	r0, r2
 1765              	.LVL113:
 477:../../libDaisy//src/hid/disp/display.h ****             result++;
 1766              		.loc 9 477 25 view .LVU390
 1767              	.LBE858:
 1768              	.LBE861:
 1769              	.LBE868:
 1770              	.LBE872:
ARM GAS  /var/folders/hl/qgbwny5j0fd895c2c41bk3tw0000gp/T//cceIFtrC.s 			page 69


 460:../../libDaisy//src/hid/disp/display.h ****                                  const FontDef& font,
 1771              		.loc 9 460 15 view .LVU391
 1772 000e 129C     		ldr	r4, [sp, #72]
 1773              	.LBB873:
 1774              	.LBB869:
 1775              	.LBB862:
 1776              	.LBB859:
 477:../../libDaisy//src/hid/disp/display.h ****             result++;
 1777              		.loc 9 477 25 view .LVU392
 1778 0010 10F8013B 		ldrb	r3, [r0], #1	@ zero_extendqisi2
 1779              	.LVL114:
 477:../../libDaisy//src/hid/disp/display.h ****             result++;
 1780              		.loc 9 477 25 view .LVU393
 1781              	.LBE859:
 1782              	.LBE862:
 1783              	.LBE869:
 1784              	.LBE873:
 460:../../libDaisy//src/hid/disp/display.h ****                                  const FontDef& font,
 1785              		.loc 9 460 15 view .LVU394
 1786 0014 1399     		ldr	r1, [sp, #76]
 1787              	.LVL115:
 460:../../libDaisy//src/hid/disp/display.h ****                                  const FontDef& font,
 1788              		.loc 9 460 15 view .LVU395
 1789 0016 9DF85060 		ldrb	r6, [sp, #80]	@ zero_extendqisi2
 1790 001a 0092     		str	r2, [sp]
 1791              	.LBB874:
 1792              	.LBB870:
 1793              	.LBB863:
 1794              	.LBB860:
 477:../../libDaisy//src/hid/disp/display.h ****             result++;
 1795              		.loc 9 477 25 view .LVU396
 1796 001c 33B1     		cbz	r3, .L127
 476:../../libDaisy//src/hid/disp/display.h ****         while(*string++ != '\0')
 1797              		.loc 9 476 18 view .LVU397
 1798 001e 0022     		movs	r2, #0
 1799              	.LVL116:
 1800              	.L128:
 477:../../libDaisy//src/hid/disp/display.h ****             result++;
 1801              		.loc 9 477 25 view .LVU398
 1802 0020 10F8013B 		ldrb	r3, [r0], #1	@ zero_extendqisi2
 1803              	.LVL117:
 478:../../libDaisy//src/hid/disp/display.h ****         return result;
 1804              		.loc 9 478 13 view .LVU399
 1805 0024 0132     		adds	r2, r2, #1
 1806              	.LVL118:
 477:../../libDaisy//src/hid/disp/display.h ****             result++;
 1807              		.loc 9 477 25 is_stmt 1 view .LVU400
 1808 0026 002B     		cmp	r3, #0
 1809 0028 FAD1     		bne	.L128
 1810              	.LBE860:
 1811              	.LBE863:
 483:../../libDaisy//src/hid/disp/display.h ****     {
 484:../../libDaisy//src/hid/disp/display.h ****         const auto numChars = strlen(text);
 485:../../libDaisy//src/hid/disp/display.h ****         return {int16_t(numChars * font.FontWidth), font.FontHeight};
 1812              		.loc 9 485 68 is_stmt 0 view .LVU401
 1813 002a 93B2     		uxth	r3, r2
 1814              	.LVL119:
ARM GAS  /var/folders/hl/qgbwny5j0fd895c2c41bk3tw0000gp/T//cceIFtrC.s 			page 70


 1815              	.L127:
 1816              		.loc 9 485 68 view .LVU402
 1817 002c 2A78     		ldrb	r2, [r5]	@ zero_extendqisi2
 1818              		.loc 9 485 58 view .LVU403
 1819 002e 6878     		ldrb	r0, [r5, #1]	@ zero_extendqisi2
 1820              		.loc 9 485 68 view .LVU404
 1821 0030 12FB03F3 		smulbb	r3, r2, r3
 1822 0034 02B2     		sxth	r2, r0
 1823              	.LVL120:
 1824              	.LBB864:
 1825              	.LBI864:
 1826              		.file 18 "../../libDaisy//src/hid/disp/graphics_common.h"
   1:../../libDaisy//src/hid/disp/graphics_common.h **** #pragma once
   2:../../libDaisy//src/hid/disp/graphics_common.h **** 
   3:../../libDaisy//src/hid/disp/graphics_common.h **** #include <cstdint>
   4:../../libDaisy//src/hid/disp/graphics_common.h **** 
   5:../../libDaisy//src/hid/disp/graphics_common.h **** namespace daisy
   6:../../libDaisy//src/hid/disp/graphics_common.h **** {
   7:../../libDaisy//src/hid/disp/graphics_common.h **** /** Justifications */
   8:../../libDaisy//src/hid/disp/graphics_common.h **** enum class Alignment
   9:../../libDaisy//src/hid/disp/graphics_common.h **** {
  10:../../libDaisy//src/hid/disp/graphics_common.h ****     centered,
  11:../../libDaisy//src/hid/disp/graphics_common.h ****     topLeft,
  12:../../libDaisy//src/hid/disp/graphics_common.h ****     topCentered,
  13:../../libDaisy//src/hid/disp/graphics_common.h ****     topRight,
  14:../../libDaisy//src/hid/disp/graphics_common.h ****     bottomLeft,
  15:../../libDaisy//src/hid/disp/graphics_common.h ****     bottomCentered,
  16:../../libDaisy//src/hid/disp/graphics_common.h ****     bottomRight,
  17:../../libDaisy//src/hid/disp/graphics_common.h ****     centeredLeft,
  18:../../libDaisy//src/hid/disp/graphics_common.h ****     centeredRight
  19:../../libDaisy//src/hid/disp/graphics_common.h **** };
  20:../../libDaisy//src/hid/disp/graphics_common.h **** 
  21:../../libDaisy//src/hid/disp/graphics_common.h **** class Rectangle
  22:../../libDaisy//src/hid/disp/graphics_common.h **** {
  23:../../libDaisy//src/hid/disp/graphics_common.h ****   public:
  24:../../libDaisy//src/hid/disp/graphics_common.h ****     Rectangle() : x_(0), y_(0), width_(0), height_(0) {}
  25:../../libDaisy//src/hid/disp/graphics_common.h **** 
  26:../../libDaisy//src/hid/disp/graphics_common.h ****     Rectangle(int16_t width, int16_t height)
 1827              		.loc 18 26 5 is_stmt 1 view .LVU405
 1828              	.LBB865:
 1829              	.LBI865:
  27:../../libDaisy//src/hid/disp/graphics_common.h ****     : x_(0), y_(0), width_(max(0, width)), height_(max(0, height))
  28:../../libDaisy//src/hid/disp/graphics_common.h ****     {
  29:../../libDaisy//src/hid/disp/graphics_common.h ****     }
  30:../../libDaisy//src/hid/disp/graphics_common.h **** 
  31:../../libDaisy//src/hid/disp/graphics_common.h ****     Rectangle(int16_t x, int16_t y, int16_t width, int16_t height)
  32:../../libDaisy//src/hid/disp/graphics_common.h ****     : x_(x), y_(y), width_(max(0, width)), height_(max(0, height))
  33:../../libDaisy//src/hid/disp/graphics_common.h ****     {
  34:../../libDaisy//src/hid/disp/graphics_common.h ****     }
  35:../../libDaisy//src/hid/disp/graphics_common.h **** 
  36:../../libDaisy//src/hid/disp/graphics_common.h ****     Rectangle(const Rectangle& other) { *this = other; }
  37:../../libDaisy//src/hid/disp/graphics_common.h **** 
  38:../../libDaisy//src/hid/disp/graphics_common.h ****     Rectangle& operator=(const Rectangle& other)
  39:../../libDaisy//src/hid/disp/graphics_common.h ****     {
  40:../../libDaisy//src/hid/disp/graphics_common.h ****         x_      = other.x_;
  41:../../libDaisy//src/hid/disp/graphics_common.h ****         y_      = other.y_;
  42:../../libDaisy//src/hid/disp/graphics_common.h ****         width_  = other.width_;
ARM GAS  /var/folders/hl/qgbwny5j0fd895c2c41bk3tw0000gp/T//cceIFtrC.s 			page 71


  43:../../libDaisy//src/hid/disp/graphics_common.h ****         height_ = other.height_;
  44:../../libDaisy//src/hid/disp/graphics_common.h ****         return *this;
  45:../../libDaisy//src/hid/disp/graphics_common.h ****     }
  46:../../libDaisy//src/hid/disp/graphics_common.h **** 
  47:../../libDaisy//src/hid/disp/graphics_common.h ****     bool operator==(const Rectangle& other) const
  48:../../libDaisy//src/hid/disp/graphics_common.h ****     {
  49:../../libDaisy//src/hid/disp/graphics_common.h ****         return (x_ == other.x_) && (y_ == other.y_) && (width_ == other.width_)
  50:../../libDaisy//src/hid/disp/graphics_common.h ****                && (height_ == other.height_);
  51:../../libDaisy//src/hid/disp/graphics_common.h ****     }
  52:../../libDaisy//src/hid/disp/graphics_common.h ****     bool operator!=(const Rectangle& other) const { return !(*this == other); }
  53:../../libDaisy//src/hid/disp/graphics_common.h **** 
  54:../../libDaisy//src/hid/disp/graphics_common.h ****     bool IsEmpty() const { return (width_ <= 0) || (height_ <= 0); }
  55:../../libDaisy//src/hid/disp/graphics_common.h **** 
  56:../../libDaisy//src/hid/disp/graphics_common.h ****     int16_t GetX() const { return x_; }
  57:../../libDaisy//src/hid/disp/graphics_common.h ****     int16_t GetY() const { return y_; }
  58:../../libDaisy//src/hid/disp/graphics_common.h ****     int16_t GetWidth() const { return width_; }
  59:../../libDaisy//src/hid/disp/graphics_common.h ****     int16_t GetHeight() const { return height_; }
  60:../../libDaisy//src/hid/disp/graphics_common.h ****     int16_t GetRight() const { return x_ + width_; }
  61:../../libDaisy//src/hid/disp/graphics_common.h ****     int16_t GetBottom() const { return y_ + height_; }
  62:../../libDaisy//src/hid/disp/graphics_common.h ****     int16_t GetCenterX() const { return x_ + width_ / 2; }
  63:../../libDaisy//src/hid/disp/graphics_common.h ****     int16_t GetCenterY() const { return y_ + height_ / 2; }
  64:../../libDaisy//src/hid/disp/graphics_common.h **** 
  65:../../libDaisy//src/hid/disp/graphics_common.h ****     Rectangle WithX(int16_t x) const { return {x, y_, width_, height_}; }
  66:../../libDaisy//src/hid/disp/graphics_common.h ****     Rectangle WithY(int16_t y) const { return {x_, y, width_, height_}; }
  67:../../libDaisy//src/hid/disp/graphics_common.h ****     Rectangle WithWidth(int16_t width) const
  68:../../libDaisy//src/hid/disp/graphics_common.h ****     {
  69:../../libDaisy//src/hid/disp/graphics_common.h ****         return {x_, y_, width, height_};
  70:../../libDaisy//src/hid/disp/graphics_common.h ****     }
  71:../../libDaisy//src/hid/disp/graphics_common.h ****     Rectangle WithHeight(int16_t height) const
  72:../../libDaisy//src/hid/disp/graphics_common.h ****     {
  73:../../libDaisy//src/hid/disp/graphics_common.h ****         return {x_, y_, width_, height};
  74:../../libDaisy//src/hid/disp/graphics_common.h ****     }
  75:../../libDaisy//src/hid/disp/graphics_common.h ****     Rectangle WithSize(int16_t width, int16_t height) const
  76:../../libDaisy//src/hid/disp/graphics_common.h ****     {
  77:../../libDaisy//src/hid/disp/graphics_common.h ****         return {x_, y_, width, height};
  78:../../libDaisy//src/hid/disp/graphics_common.h ****     }
  79:../../libDaisy//src/hid/disp/graphics_common.h ****     Rectangle WithWidthKeepingCenter(int16_t width) const
  80:../../libDaisy//src/hid/disp/graphics_common.h ****     {
  81:../../libDaisy//src/hid/disp/graphics_common.h ****         return Rectangle(x_, y_, width, height_)
  82:../../libDaisy//src/hid/disp/graphics_common.h ****             .WithCenter(GetCenterX(), GetCenterY());
  83:../../libDaisy//src/hid/disp/graphics_common.h ****     }
  84:../../libDaisy//src/hid/disp/graphics_common.h ****     Rectangle WithHeightKeepingCenter(int16_t height) const
  85:../../libDaisy//src/hid/disp/graphics_common.h ****     {
  86:../../libDaisy//src/hid/disp/graphics_common.h ****         return Rectangle(x_, y_, width_, height)
  87:../../libDaisy//src/hid/disp/graphics_common.h ****             .WithCenter(GetCenterX(), GetCenterY());
  88:../../libDaisy//src/hid/disp/graphics_common.h ****     }
  89:../../libDaisy//src/hid/disp/graphics_common.h ****     Rectangle WithSizeKeepingCenter(int16_t width, int16_t height) const
  90:../../libDaisy//src/hid/disp/graphics_common.h ****     {
  91:../../libDaisy//src/hid/disp/graphics_common.h ****         return Rectangle(x_, y_, width, height)
  92:../../libDaisy//src/hid/disp/graphics_common.h ****             .WithCenter(GetCenterX(), GetCenterY());
  93:../../libDaisy//src/hid/disp/graphics_common.h ****     }
  94:../../libDaisy//src/hid/disp/graphics_common.h **** 
  95:../../libDaisy//src/hid/disp/graphics_common.h ****     Rectangle Reduced(int16_t sizeToReduce) const
  96:../../libDaisy//src/hid/disp/graphics_common.h ****     {
  97:../../libDaisy//src/hid/disp/graphics_common.h ****         return {int16_t(x_ + sizeToReduce),
  98:../../libDaisy//src/hid/disp/graphics_common.h ****                 int16_t(y_ + sizeToReduce),
  99:../../libDaisy//src/hid/disp/graphics_common.h ****                 int16_t(width_ - 2 * sizeToReduce),
ARM GAS  /var/folders/hl/qgbwny5j0fd895c2c41bk3tw0000gp/T//cceIFtrC.s 			page 72


 100:../../libDaisy//src/hid/disp/graphics_common.h ****                 int16_t(height_ - 2 * sizeToReduce)};
 101:../../libDaisy//src/hid/disp/graphics_common.h ****     }
 102:../../libDaisy//src/hid/disp/graphics_common.h ****     Rectangle Reduced(int16_t xToReduce, int16_t yToReduce) const
 103:../../libDaisy//src/hid/disp/graphics_common.h ****     {
 104:../../libDaisy//src/hid/disp/graphics_common.h ****         return {int16_t(x_ + xToReduce),
 105:../../libDaisy//src/hid/disp/graphics_common.h ****                 int16_t(y_ + yToReduce),
 106:../../libDaisy//src/hid/disp/graphics_common.h ****                 int16_t(width_ - 2 * xToReduce),
 107:../../libDaisy//src/hid/disp/graphics_common.h ****                 int16_t(height_ - 2 * yToReduce)};
 108:../../libDaisy//src/hid/disp/graphics_common.h ****     }
 109:../../libDaisy//src/hid/disp/graphics_common.h **** 
 110:../../libDaisy//src/hid/disp/graphics_common.h ****     Rectangle Translated(int16_t x, int16_t y) const
 111:../../libDaisy//src/hid/disp/graphics_common.h ****     {
 112:../../libDaisy//src/hid/disp/graphics_common.h ****         return {int16_t(x_ + x), int16_t(y_ + y), width_, height_};
 113:../../libDaisy//src/hid/disp/graphics_common.h ****     }
 114:../../libDaisy//src/hid/disp/graphics_common.h **** 
 115:../../libDaisy//src/hid/disp/graphics_common.h ****     Rectangle WithLeft(int16_t left) const
 116:../../libDaisy//src/hid/disp/graphics_common.h ****     {
 117:../../libDaisy//src/hid/disp/graphics_common.h ****         const auto newWidth = int16_t((x_ - left) + width_);
 118:../../libDaisy//src/hid/disp/graphics_common.h ****         return {left, y_, newWidth, height_};
 119:../../libDaisy//src/hid/disp/graphics_common.h ****     }
 120:../../libDaisy//src/hid/disp/graphics_common.h **** 
 121:../../libDaisy//src/hid/disp/graphics_common.h ****     Rectangle WithRight(int16_t right) const
 122:../../libDaisy//src/hid/disp/graphics_common.h ****     {
 123:../../libDaisy//src/hid/disp/graphics_common.h ****         const auto newWidth = int16_t(right - x_);
 124:../../libDaisy//src/hid/disp/graphics_common.h ****         return {x_, y_, newWidth, height_};
 125:../../libDaisy//src/hid/disp/graphics_common.h ****     }
 126:../../libDaisy//src/hid/disp/graphics_common.h **** 
 127:../../libDaisy//src/hid/disp/graphics_common.h ****     Rectangle WithTop(int16_t top) const
 128:../../libDaisy//src/hid/disp/graphics_common.h ****     {
 129:../../libDaisy//src/hid/disp/graphics_common.h ****         const auto newHeight = int16_t((y_ - top) + height_);
 130:../../libDaisy//src/hid/disp/graphics_common.h ****         return {x_, top, width_, newHeight};
 131:../../libDaisy//src/hid/disp/graphics_common.h ****     }
 132:../../libDaisy//src/hid/disp/graphics_common.h **** 
 133:../../libDaisy//src/hid/disp/graphics_common.h ****     Rectangle WithBottom(int16_t bottom) const
 134:../../libDaisy//src/hid/disp/graphics_common.h ****     {
 135:../../libDaisy//src/hid/disp/graphics_common.h ****         const auto newHeight = int16_t(bottom - y_);
 136:../../libDaisy//src/hid/disp/graphics_common.h ****         return {x_, y_, width_, newHeight};
 137:../../libDaisy//src/hid/disp/graphics_common.h ****     }
 138:../../libDaisy//src/hid/disp/graphics_common.h **** 
 139:../../libDaisy//src/hid/disp/graphics_common.h ****     Rectangle WithTrimmedLeft(int16_t pxToTrim) const
 140:../../libDaisy//src/hid/disp/graphics_common.h ****     {
 141:../../libDaisy//src/hid/disp/graphics_common.h ****         return {
 142:../../libDaisy//src/hid/disp/graphics_common.h ****             int16_t(x_ + pxToTrim), y_, int16_t(width_ - pxToTrim), height_};
 143:../../libDaisy//src/hid/disp/graphics_common.h ****     }
 144:../../libDaisy//src/hid/disp/graphics_common.h **** 
 145:../../libDaisy//src/hid/disp/graphics_common.h ****     Rectangle WithTrimmedRight(int16_t pxToTrim) const
 146:../../libDaisy//src/hid/disp/graphics_common.h ****     {
 147:../../libDaisy//src/hid/disp/graphics_common.h ****         return {x_, y_, int16_t(width_ - pxToTrim), height_};
 148:../../libDaisy//src/hid/disp/graphics_common.h ****     }
 149:../../libDaisy//src/hid/disp/graphics_common.h **** 
 150:../../libDaisy//src/hid/disp/graphics_common.h ****     Rectangle WithTrimmedTop(int16_t pxToTrim) const
 151:../../libDaisy//src/hid/disp/graphics_common.h ****     {
 152:../../libDaisy//src/hid/disp/graphics_common.h ****         return {
 153:../../libDaisy//src/hid/disp/graphics_common.h ****             x_, int16_t(y_ + pxToTrim), width_, int16_t(height_ - pxToTrim)};
 154:../../libDaisy//src/hid/disp/graphics_common.h ****     }
 155:../../libDaisy//src/hid/disp/graphics_common.h **** 
 156:../../libDaisy//src/hid/disp/graphics_common.h ****     Rectangle WithTrimmedBottom(int16_t pxToTrim) const
ARM GAS  /var/folders/hl/qgbwny5j0fd895c2c41bk3tw0000gp/T//cceIFtrC.s 			page 73


 157:../../libDaisy//src/hid/disp/graphics_common.h ****     {
 158:../../libDaisy//src/hid/disp/graphics_common.h ****         return {x_, y_, width_, int16_t(height_ - pxToTrim)};
 159:../../libDaisy//src/hid/disp/graphics_common.h ****     }
 160:../../libDaisy//src/hid/disp/graphics_common.h **** 
 161:../../libDaisy//src/hid/disp/graphics_common.h ****     Rectangle WithCenterX(int16_t centerX) const
 162:../../libDaisy//src/hid/disp/graphics_common.h ****     {
 163:../../libDaisy//src/hid/disp/graphics_common.h ****         return {int16_t(x_ + centerX - GetCenterX()), y_, width_, height_};
 164:../../libDaisy//src/hid/disp/graphics_common.h ****     }
 165:../../libDaisy//src/hid/disp/graphics_common.h **** 
 166:../../libDaisy//src/hid/disp/graphics_common.h ****     Rectangle WithCenterY(int16_t centerY) const
 167:../../libDaisy//src/hid/disp/graphics_common.h ****     {
 168:../../libDaisy//src/hid/disp/graphics_common.h ****         return {x_, int16_t(y_ + centerY - GetCenterY()), width_, height_};
 169:../../libDaisy//src/hid/disp/graphics_common.h ****     }
 170:../../libDaisy//src/hid/disp/graphics_common.h **** 
 171:../../libDaisy//src/hid/disp/graphics_common.h ****     Rectangle WithCenter(int16_t centerX, int16_t centerY) const
 172:../../libDaisy//src/hid/disp/graphics_common.h ****     {
 173:../../libDaisy//src/hid/disp/graphics_common.h ****         return {int16_t(x_ + centerX - GetCenterX()),
 174:../../libDaisy//src/hid/disp/graphics_common.h ****                 int16_t(y_ + centerY - GetCenterY()),
 175:../../libDaisy//src/hid/disp/graphics_common.h ****                 width_,
 176:../../libDaisy//src/hid/disp/graphics_common.h ****                 height_};
 177:../../libDaisy//src/hid/disp/graphics_common.h ****     }
 178:../../libDaisy//src/hid/disp/graphics_common.h **** 
 179:../../libDaisy//src/hid/disp/graphics_common.h ****     Rectangle RemoveFromLeft(int16_t pxToRemove)
 180:../../libDaisy//src/hid/disp/graphics_common.h ****     {
 181:../../libDaisy//src/hid/disp/graphics_common.h ****         const auto result = this->WithWidth(min(pxToRemove, width_));
 182:../../libDaisy//src/hid/disp/graphics_common.h ****         x_ += min(pxToRemove, width_);
 183:../../libDaisy//src/hid/disp/graphics_common.h ****         width_ = max(int16_t(width_ - pxToRemove), 0);
 184:../../libDaisy//src/hid/disp/graphics_common.h ****         return result;
 185:../../libDaisy//src/hid/disp/graphics_common.h ****     }
 186:../../libDaisy//src/hid/disp/graphics_common.h **** 
 187:../../libDaisy//src/hid/disp/graphics_common.h ****     Rectangle RemoveFromRight(int16_t pxToRemove)
 188:../../libDaisy//src/hid/disp/graphics_common.h ****     {
 189:../../libDaisy//src/hid/disp/graphics_common.h ****         const auto canRemove = min(pxToRemove, width_);
 190:../../libDaisy//src/hid/disp/graphics_common.h ****         width_ -= canRemove;
 191:../../libDaisy//src/hid/disp/graphics_common.h ****         return {int16_t(x_ + width_), y_, canRemove, height_};
 192:../../libDaisy//src/hid/disp/graphics_common.h ****     }
 193:../../libDaisy//src/hid/disp/graphics_common.h **** 
 194:../../libDaisy//src/hid/disp/graphics_common.h ****     Rectangle RemoveFromTop(int16_t pxToRemove)
 195:../../libDaisy//src/hid/disp/graphics_common.h ****     {
 196:../../libDaisy//src/hid/disp/graphics_common.h ****         const auto result = this->WithHeight(min(pxToRemove, height_));
 197:../../libDaisy//src/hid/disp/graphics_common.h ****         y_ += min(pxToRemove, height_);
 198:../../libDaisy//src/hid/disp/graphics_common.h ****         height_ = max(height_ - pxToRemove, 0);
 199:../../libDaisy//src/hid/disp/graphics_common.h ****         return result;
 200:../../libDaisy//src/hid/disp/graphics_common.h ****     }
 201:../../libDaisy//src/hid/disp/graphics_common.h **** 
 202:../../libDaisy//src/hid/disp/graphics_common.h ****     Rectangle RemoveFromBottom(int16_t pxToRemove)
 203:../../libDaisy//src/hid/disp/graphics_common.h ****     {
 204:../../libDaisy//src/hid/disp/graphics_common.h ****         const auto canRemove = min(pxToRemove, height_);
 205:../../libDaisy//src/hid/disp/graphics_common.h ****         height_ -= canRemove;
 206:../../libDaisy//src/hid/disp/graphics_common.h ****         return {x_, int16_t(y_ + height_), width_, canRemove};
 207:../../libDaisy//src/hid/disp/graphics_common.h ****     }
 208:../../libDaisy//src/hid/disp/graphics_common.h **** 
 209:../../libDaisy//src/hid/disp/graphics_common.h ****     Rectangle AlignedWithin(const Rectangle& other, Alignment alignment) const
 210:../../libDaisy//src/hid/disp/graphics_common.h ****     {
 211:../../libDaisy//src/hid/disp/graphics_common.h ****         switch(alignment)
 212:../../libDaisy//src/hid/disp/graphics_common.h ****         {
 213:../../libDaisy//src/hid/disp/graphics_common.h ****             case Alignment::topLeft:
ARM GAS  /var/folders/hl/qgbwny5j0fd895c2c41bk3tw0000gp/T//cceIFtrC.s 			page 74


 214:../../libDaisy//src/hid/disp/graphics_common.h ****                 return {other.x_, other.y_, width_, height_};
 215:../../libDaisy//src/hid/disp/graphics_common.h ****             case Alignment::topRight:
 216:../../libDaisy//src/hid/disp/graphics_common.h ****                 return {int16_t(other.GetRight() - width_),
 217:../../libDaisy//src/hid/disp/graphics_common.h ****                         other.y_,
 218:../../libDaisy//src/hid/disp/graphics_common.h ****                         width_,
 219:../../libDaisy//src/hid/disp/graphics_common.h ****                         height_};
 220:../../libDaisy//src/hid/disp/graphics_common.h ****             case Alignment::topCentered:
 221:../../libDaisy//src/hid/disp/graphics_common.h ****                 return {int16_t(x_ + (other.GetCenterX() - GetCenterX())),
 222:../../libDaisy//src/hid/disp/graphics_common.h ****                         other.y_,
 223:../../libDaisy//src/hid/disp/graphics_common.h ****                         width_,
 224:../../libDaisy//src/hid/disp/graphics_common.h ****                         height_};
 225:../../libDaisy//src/hid/disp/graphics_common.h ****             case Alignment::bottomLeft:
 226:../../libDaisy//src/hid/disp/graphics_common.h ****                 return {other.x_,
 227:../../libDaisy//src/hid/disp/graphics_common.h ****                         int16_t(other.GetBottom() - height_),
 228:../../libDaisy//src/hid/disp/graphics_common.h ****                         width_,
 229:../../libDaisy//src/hid/disp/graphics_common.h ****                         height_};
 230:../../libDaisy//src/hid/disp/graphics_common.h ****             case Alignment::bottomRight:
 231:../../libDaisy//src/hid/disp/graphics_common.h ****                 return {int16_t(other.GetRight() - width_),
 232:../../libDaisy//src/hid/disp/graphics_common.h ****                         int16_t(other.GetBottom() - height_),
 233:../../libDaisy//src/hid/disp/graphics_common.h ****                         width_,
 234:../../libDaisy//src/hid/disp/graphics_common.h ****                         height_};
 235:../../libDaisy//src/hid/disp/graphics_common.h ****             case Alignment::bottomCentered:
 236:../../libDaisy//src/hid/disp/graphics_common.h ****                 return {int16_t(x_ + (other.GetCenterX() - GetCenterX())),
 237:../../libDaisy//src/hid/disp/graphics_common.h ****                         int16_t(other.GetBottom() - height_),
 238:../../libDaisy//src/hid/disp/graphics_common.h ****                         width_,
 239:../../libDaisy//src/hid/disp/graphics_common.h ****                         height_};
 240:../../libDaisy//src/hid/disp/graphics_common.h ****             case Alignment::centeredLeft:
 241:../../libDaisy//src/hid/disp/graphics_common.h ****                 return {other.x_,
 242:../../libDaisy//src/hid/disp/graphics_common.h ****                         int16_t(y_ + (other.GetCenterY() - GetCenterY())),
 243:../../libDaisy//src/hid/disp/graphics_common.h ****                         width_,
 244:../../libDaisy//src/hid/disp/graphics_common.h ****                         height_};
 245:../../libDaisy//src/hid/disp/graphics_common.h ****             case Alignment::centeredRight:
 246:../../libDaisy//src/hid/disp/graphics_common.h ****                 return {int16_t(other.GetRight() - width_),
 247:../../libDaisy//src/hid/disp/graphics_common.h ****                         int16_t(y_ + (other.GetCenterY() - GetCenterY())),
 248:../../libDaisy//src/hid/disp/graphics_common.h ****                         width_,
 249:../../libDaisy//src/hid/disp/graphics_common.h ****                         height_};
 250:../../libDaisy//src/hid/disp/graphics_common.h ****             case Alignment::centered:
 251:../../libDaisy//src/hid/disp/graphics_common.h ****                 return {int16_t(x_ + (other.GetCenterX() - GetCenterX())),
 252:../../libDaisy//src/hid/disp/graphics_common.h ****                         int16_t(y_ + (other.GetCenterY() - GetCenterY())),
 253:../../libDaisy//src/hid/disp/graphics_common.h ****                         width_,
 254:../../libDaisy//src/hid/disp/graphics_common.h ****                         height_};
 255:../../libDaisy//src/hid/disp/graphics_common.h ****             default: return {};
 256:../../libDaisy//src/hid/disp/graphics_common.h ****         }
 257:../../libDaisy//src/hid/disp/graphics_common.h ****     }
 258:../../libDaisy//src/hid/disp/graphics_common.h **** 
 259:../../libDaisy//src/hid/disp/graphics_common.h ****   private:
 260:../../libDaisy//src/hid/disp/graphics_common.h ****     int16_t x_, y_, width_, height_;
 261:../../libDaisy//src/hid/disp/graphics_common.h ****     int16_t max(int16_t a, int16_t b) { return (a > b) ? a : b; }
 1830              		.loc 18 261 13 view .LVU406
 1831              	.LBE865:
 1832              	.LBE864:
 1833              	.LBE870:
 1834              	.LBE874:
 1835              		.loc 18 261 41 view .LVU407
 1836              	.LBB875:
 1837              	.LBB871:
 1838              	.LBB867:
ARM GAS  /var/folders/hl/qgbwny5j0fd895c2c41bk3tw0000gp/T//cceIFtrC.s 			page 75


 1839              	.LBB866:
 1840              	.LBI866:
 1841              		.loc 18 261 13 view .LVU408
 1842              	.LBE866:
 1843              	.LBE867:
 1844              	.LBE871:
 1845              	.LBE875:
 1846              		.loc 18 261 41 view .LVU409
 1847              	.LBB876:
 1848              	.LBI876:
 209:../../libDaisy//src/hid/disp/graphics_common.h ****     {
 1849              		.loc 18 209 15 view .LVU410
 1850              	.LBB877:
 211:../../libDaisy//src/hid/disp/graphics_common.h ****         {
 1851              		.loc 18 211 9 view .LVU411
 1852 0036 1BB2     		sxth	r3, r3
 1853 0038 23EAE373 		bic	r3, r3, r3, asr #31
 1854 003c 0829     		cmp	r1, #8
 1855 003e 00F2A681 		bhi	.L129
 1856 0042 DFE811F0 		tbh	[pc, r1, lsl #1]
 1857              	.L131:
 1858 0046 0101     		.2byte	(.L139-.L131)/2
 1859 0048 1301     		.2byte	(.L138-.L131)/2
 1860 004a 1F01     		.2byte	(.L137-.L131)/2
 1861 004c 3301     		.2byte	(.L136-.L131)/2
 1862 004e 4101     		.2byte	(.L135-.L131)/2
 1863 0050 4F01     		.2byte	(.L134-.L131)/2
 1864 0052 6601     		.2byte	(.L133-.L131)/2
 1865 0054 6F01     		.2byte	(.L132-.L131)/2
 1866 0056 0900     		.2byte	(.L130-.L131)/2
 1867              		.p2align 1
 1868              	.L130:
 245:../../libDaisy//src/hid/disp/graphics_common.h ****                 return {int16_t(other.GetRight() - width_),
 1869              		.loc 18 245 13 view .LVU412
 246:../../libDaisy//src/hid/disp/graphics_common.h ****                         int16_t(y_ + (other.GetCenterY() - GetCenterY())),
 1870              		.loc 18 246 17 view .LVU413
 1871              	.LVL121:
 1872              	.LBB878:
 1873              	.LBI878:
  60:../../libDaisy//src/hid/disp/graphics_common.h ****     int16_t GetBottom() const { return y_ + height_; }
 1874              		.loc 18 60 13 view .LVU414
 1875              	.LBB879:
  60:../../libDaisy//src/hid/disp/graphics_common.h ****     int16_t GetBottom() const { return y_ + height_; }
 1876              		.loc 18 60 32 view .LVU415
  60:../../libDaisy//src/hid/disp/graphics_common.h ****     int16_t GetBottom() const { return y_ + height_; }
 1877              		.loc 18 60 42 is_stmt 0 view .LVU416
 1878 0058 A188     		ldrh	r1, [r4, #4]
 1879              	.LVL122:
  60:../../libDaisy//src/hid/disp/graphics_common.h ****     int16_t GetBottom() const { return y_ + height_; }
 1880              		.loc 18 60 42 view .LVU417
 1881 005a 2788     		ldrh	r7, [r4]
 1882 005c 0F44     		add	r7, r7, r1
 1883              	.LBE879:
 1884              	.LBE878:
 1885              	.LBB880:
 1886              	.LBB881:
  63:../../libDaisy//src/hid/disp/graphics_common.h **** 
ARM GAS  /var/folders/hl/qgbwny5j0fd895c2c41bk3tw0000gp/T//cceIFtrC.s 			page 76


 1887              		.loc 18 63 54 view .LVU418
 1888 005e B4F90610 		ldrsh	r1, [r4, #6]
 1889              	.LBE881:
 1890              	.LBE880:
 246:../../libDaisy//src/hid/disp/graphics_common.h ****                         int16_t(y_ + (other.GetCenterY() - GetCenterY())),
 1891              		.loc 18 246 50 view .LVU419
 1892 0062 FF1A     		subs	r7, r7, r3
 1893              	.LBB885:
 1894              	.LBB882:
  63:../../libDaisy//src/hid/disp/graphics_common.h **** 
 1895              		.loc 18 63 54 view .LVU420
 1896 0064 0029     		cmp	r1, #0
 1897              	.LBE882:
 1898              	.LBE885:
 246:../../libDaisy//src/hid/disp/graphics_common.h ****                         int16_t(y_ + (other.GetCenterY() - GetCenterY())),
 1899              		.loc 18 246 50 view .LVU421
 1900 0066 BFB2     		uxth	r7, r7
 1901              	.LVL123:
 1902              	.LBB886:
 1903              	.LBI880:
  63:../../libDaisy//src/hid/disp/graphics_common.h **** 
 1904              		.loc 18 63 13 is_stmt 1 view .LVU422
 1905              	.LBB883:
  63:../../libDaisy//src/hid/disp/graphics_common.h **** 
 1906              		.loc 18 63 34 view .LVU423
  63:../../libDaisy//src/hid/disp/graphics_common.h **** 
 1907              		.loc 18 63 34 is_stmt 0 view .LVU424
 1908              	.LBE883:
 1909              	.LBE886:
 1910              	.LBB887:
 1911              	.LBI887:
  63:../../libDaisy//src/hid/disp/graphics_common.h **** 
 1912              		.loc 18 63 13 is_stmt 1 view .LVU425
 1913              	.LBB888:
  63:../../libDaisy//src/hid/disp/graphics_common.h **** 
 1914              		.loc 18 63 34 view .LVU426
  63:../../libDaisy//src/hid/disp/graphics_common.h **** 
 1915              		.loc 18 63 34 is_stmt 0 view .LVU427
 1916              	.LBE888:
 1917              	.LBE887:
 1918              	.LBB889:
 1919              	.LBB884:
  63:../../libDaisy//src/hid/disp/graphics_common.h **** 
 1920              		.loc 18 63 54 view .LVU428
 1921 0068 C0F2FE80 		blt	.L202
 1922              	.L146:
  63:../../libDaisy//src/hid/disp/graphics_common.h **** 
 1923              		.loc 18 63 54 view .LVU429
 1924              	.LBE884:
 1925              	.LBE889:
 1926              	.LBB890:
 1927              	.LBB891:
  63:../../libDaisy//src/hid/disp/graphics_common.h **** 
 1928              		.loc 18 63 44 view .LVU430
 1929 006c 6488     		ldrh	r4, [r4, #2]
 1930              	.LVL124:
  63:../../libDaisy//src/hid/disp/graphics_common.h **** 
ARM GAS  /var/folders/hl/qgbwny5j0fd895c2c41bk3tw0000gp/T//cceIFtrC.s 			page 77


 1931              		.loc 18 63 44 view .LVU431
 1932              	.LBE891:
 1933              	.LBE890:
 1934              	.LBB897:
 1935              	.LBB898:
 1936              	.LBB899:
  32:../../libDaisy//src/hid/disp/graphics_common.h ****     {
 1937              		.loc 18 32 66 view .LVU432
 1938 006e 0698     		ldr	r0, [sp, #24]
 1939              	.LBE899:
 1940              	.LBE898:
 1941              	.LBE897:
 1942              	.LBB910:
 1943              	.LBB892:
  63:../../libDaisy//src/hid/disp/graphics_common.h **** 
 1944              		.loc 18 63 44 view .LVU433
 1945 0070 04EB6104 		add	r4, r4, r1, asr #1
 1946              	.LBE892:
 1947              	.LBE910:
 1948              	.LBB911:
 1949              	.LBB906:
 1950              	.LBB902:
  32:../../libDaisy//src/hid/disp/graphics_common.h ****     {
 1951              		.loc 18 32 66 view .LVU434
 1952 0074 C280     		strh	r2, [r0, #6]	@ movhi
 1953              	.LBE902:
 1954              	.LBE906:
 1955              	.LBE911:
 252:../../libDaisy//src/hid/disp/graphics_common.h ****                         width_,
 1956              		.loc 18 252 58 view .LVU435
 1957 0076 A4EB5202 		sub	r2, r4, r2, lsr #1
 1958              	.LBB912:
 1959              	.LBB907:
 1960              	.LBB903:
  32:../../libDaisy//src/hid/disp/graphics_common.h ****     {
 1961              		.loc 18 32 66 view .LVU436
 1962 007a 8380     		strh	r3, [r0, #4]	@ movhi
 1963 007c 0780     		strh	r7, [r0]	@ movhi
 1964              	.LBE903:
 1965              	.LBE907:
 1966              	.LBE912:
 252:../../libDaisy//src/hid/disp/graphics_common.h ****                         width_,
 1967              		.loc 18 252 58 view .LVU437
 1968 007e 94B2     		uxth	r4, r2
 1969              	.LVL125:
 1970              	.LBB913:
 1971              	.LBI897:
  31:../../libDaisy//src/hid/disp/graphics_common.h ****     : x_(x), y_(y), width_(max(0, width)), height_(max(0, height))
 1972              		.loc 18 31 5 is_stmt 1 view .LVU438
 1973              	.LBB908:
 1974              	.LBB904:
  32:../../libDaisy//src/hid/disp/graphics_common.h ****     {
 1975              		.loc 18 32 66 is_stmt 0 view .LVU439
 1976 0080 4480     		strh	r4, [r0, #2]	@ movhi
 1977              	.LVL126:
 1978              	.LBB900:
 1979              	.LBI900:
ARM GAS  /var/folders/hl/qgbwny5j0fd895c2c41bk3tw0000gp/T//cceIFtrC.s 			page 78


 1980              		.loc 18 261 13 is_stmt 1 view .LVU440
 1981              	.LBE900:
 1982              	.LBE904:
 1983              	.LBE908:
 1984              	.LBE913:
 1985              	.LBE877:
 1986              	.LBE876:
 1987              		.loc 18 261 41 view .LVU441
 1988              	.LBB1102:
 1989              	.LBB1080:
 1990              	.LBB914:
 1991              	.LBB909:
 1992              	.LBB905:
 1993              	.LBB901:
 1994              	.LBI901:
 1995              		.loc 18 261 13 view .LVU442
 1996              	.LBE901:
 1997              	.LBE905:
 1998              	.LBE909:
 1999              	.LBE914:
 2000              	.LBE1080:
 2001              	.LBE1102:
 2002              		.loc 18 261 41 view .LVU443
 2003              	.L140:
  56:../../libDaisy//src/hid/disp/graphics_common.h ****     int16_t GetY() const { return y_; }
 2004              		.loc 18 56 28 view .LVU444
  57:../../libDaisy//src/hid/disp/graphics_common.h ****     int16_t GetWidth() const { return width_; }
 2005              		.loc 18 57 28 view .LVU445
 2006              	.LBB1103:
 2007              	.LBI1103:
 171:../../libDaisy//src/hid/disp/display.h ****     {
 2008              		.loc 9 171 10 view .LVU446
 2009              	.LBB1104:
 173:../../libDaisy//src/hid/disp/display.h ****         currentY_ = (y >= Height()) ? Height() - 1 : y;
 2010              		.loc 9 173 9 view .LVU447
 2011 0082 A64A     		ldr	r2, .L212
 173:../../libDaisy//src/hid/disp/display.h ****         currentY_ = (y >= Height()) ? Height() - 1 : y;
 2012              		.loc 9 173 33 is_stmt 0 view .LVU448
 2013 0084 D8F80030 		ldr	r3, [r8]
 2014 0088 1146     		mov	r1, r2
 2015 008a 0192     		str	r2, [sp, #4]
 2016 008c DA68     		ldr	r2, [r3, #12]
 2017 008e 8A42     		cmp	r2, r1
 2018 0090 40F08B81 		bne	.L148
 2019 0094 8020     		movs	r0, #128
 2020              	.LVL127:
 2021              	.L149:
 173:../../libDaisy//src/hid/disp/display.h ****         currentY_ = (y >= Height()) ? Height() - 1 : y;
 2022              		.loc 9 173 19 view .LVU449
 2023 0096 B842     		cmp	r0, r7
 2024 0098 05D8     		bhi	.L150
 173:../../libDaisy//src/hid/disp/display.h ****         currentY_ = (y >= Height()) ? Height() - 1 : y;
 2025              		.loc 9 173 44 view .LVU450
 2026 009a DA68     		ldr	r2, [r3, #12]
 2027 009c 0199     		ldr	r1, [sp, #4]
 2028 009e 8A42     		cmp	r2, r1
 2029 00a0 40F09881 		bne	.L203
ARM GAS  /var/folders/hl/qgbwny5j0fd895c2c41bk3tw0000gp/T//cceIFtrC.s 			page 79


 2030 00a4 7F27     		movs	r7, #127
 2031              	.L150:
 2032 00a6 9E4A     		ldr	r2, .L212+4
 174:../../libDaisy//src/hid/disp/display.h ****     }
 2033              		.loc 9 174 34 view .LVU451
 2034 00a8 9B68     		ldr	r3, [r3, #8]
 173:../../libDaisy//src/hid/disp/display.h ****         currentY_ = (y >= Height()) ? Height() - 1 : y;
 2035              		.loc 9 173 19 view .LVU452
 2036 00aa A8F80470 		strh	r7, [r8, #4]	@ movhi
 174:../../libDaisy//src/hid/disp/display.h ****     }
 2037              		.loc 9 174 9 is_stmt 1 view .LVU453
 2038 00ae 9342     		cmp	r3, r2
 2039 00b0 0392     		str	r2, [sp, #12]
 2040 00b2 40F08781 		bne	.L180
 174:../../libDaisy//src/hid/disp/display.h ****     }
 2041              		.loc 9 174 34 is_stmt 0 view .LVU454
 2042 00b6 4020     		movs	r0, #64
 2043              	.L152:
 174:../../libDaisy//src/hid/disp/display.h ****     }
 2044              		.loc 9 174 19 view .LVU455
 2045 00b8 A042     		cmp	r0, r4
 2046 00ba 07D8     		bhi	.L154
 174:../../libDaisy//src/hid/disp/display.h ****     }
 2047              		.loc 9 174 46 view .LVU456
 2048 00bc D8F80030 		ldr	r3, [r8]
 2049 00c0 039A     		ldr	r2, [sp, #12]
 2050 00c2 9B68     		ldr	r3, [r3, #8]
 2051 00c4 9342     		cmp	r3, r2
 2052 00c6 40F08081 		bne	.L204
 2053 00ca 3F24     		movs	r4, #63
 2054              	.L154:
 174:../../libDaisy//src/hid/disp/display.h ****     }
 2055              		.loc 9 174 46 view .LVU457
 2056              	.LBE1104:
 2057              	.LBE1103:
 2058              	.LBB1108:
 2059              	.LBB1109:
 443:../../libDaisy//src/hid/disp/display.h ****         {
 2060              		.loc 9 443 9 view .LVU458
 2061 00cc 009B     		ldr	r3, [sp]
 2062              	.LBE1109:
 2063              	.LBE1108:
 2064              	.LBB1157:
 2065              	.LBB1105:
 174:../../libDaisy//src/hid/disp/display.h ****     }
 2066              		.loc 9 174 19 view .LVU459
 2067 00ce A8F80640 		strh	r4, [r8, #6]	@ movhi
 2068              	.LVL128:
 174:../../libDaisy//src/hid/disp/display.h ****     }
 2069              		.loc 9 174 19 view .LVU460
 2070              	.LBE1105:
 2071              	.LBE1157:
 2072              	.LBB1158:
 2073              	.LBB1154:
 443:../../libDaisy//src/hid/disp/display.h ****         {
 2074              		.loc 9 443 9 view .LVU461
 2075 00d2 93F800B0 		ldrb	fp, [r3]	@ zero_extendqisi2
ARM GAS  /var/folders/hl/qgbwny5j0fd895c2c41bk3tw0000gp/T//cceIFtrC.s 			page 80


 2076 00d6 6B78     		ldrb	r3, [r5, #1]	@ zero_extendqisi2
 2077              	.LVL129:
 443:../../libDaisy//src/hid/disp/display.h ****         {
 2078              		.loc 9 443 9 view .LVU462
 2079 00d8 2C78     		ldrb	r4, [r5]	@ zero_extendqisi2
 2080              	.LVL130:
 443:../../libDaisy//src/hid/disp/display.h ****         {
 2081              		.loc 9 443 9 view .LVU463
 2082 00da 0493     		str	r3, [sp, #16]
 2083              	.LVL131:
 443:../../libDaisy//src/hid/disp/display.h ****         {
 2084              		.loc 9 443 9 view .LVU464
 2085 00dc 6B68     		ldr	r3, [r5, #4]
 2086 00de 0793     		str	r3, [sp, #28]
 2087              	.LVL132:
 443:../../libDaisy//src/hid/disp/display.h ****         {
 2088              		.loc 9 443 9 view .LVU465
 2089              	.LBE1154:
 2090              	.LBI1108:
 440:../../libDaisy//src/hid/disp/display.h ****     {
 2091              		.loc 9 440 10 is_stmt 1 view .LVU466
 2092              	.LBB1155:
 443:../../libDaisy//src/hid/disp/display.h ****         {
 2093              		.loc 9 443 9 view .LVU467
 2094 00e0 BBF1000F 		cmp	fp, #0
 2095 00e4 00F0AC80 		beq	.L126
 2096              	.LVL133:
 2097              	.L156:
 2098              	.LBB1110:
 2099              	.LBI1110:
 396:../../libDaisy//src/hid/disp/display.h ****     {
 2100              		.loc 9 396 10 view .LVU468
 2101              	.LBB1111:
 401:../../libDaisy//src/hid/disp/display.h ****             return 0;
 2102              		.loc 9 401 20 is_stmt 0 view .LVU469
 2103 00e8 ABF12005 		sub	r5, fp, #32
 401:../../libDaisy//src/hid/disp/display.h ****             return 0;
 2104              		.loc 9 401 9 view .LVU470
 2105 00ec EBB2     		uxtb	r3, r5
 2106 00ee 5E2B     		cmp	r3, #94
 2107 00f0 00F22C81 		bhi	.L160
 405:../../libDaisy//src/hid/disp/display.h ****            || Height() < (currentY_ + font.FontHeight))
 2108              		.loc 9 405 17 view .LVU471
 2109 00f4 D8F80030 		ldr	r3, [r8]
 2110 00f8 019A     		ldr	r2, [sp, #4]
 2111 00fa DB68     		ldr	r3, [r3, #12]
 2112 00fc 9342     		cmp	r3, r2
 2113 00fe 40F02881 		bne	.L205
 2114 0102 8020     		movs	r0, #128
 2115              	.L159:
 405:../../libDaisy//src/hid/disp/display.h ****            || Height() < (currentY_ + font.FontHeight))
 2116              		.loc 9 405 23 view .LVU472
 2117 0104 B8F80430 		ldrh	r3, [r8, #4]
 405:../../libDaisy//src/hid/disp/display.h ****            || Height() < (currentY_ + font.FontHeight))
 2118              		.loc 9 405 33 view .LVU473
 2119 0108 2344     		add	r3, r3, r4
 406:../../libDaisy//src/hid/disp/display.h ****         {
ARM GAS  /var/folders/hl/qgbwny5j0fd895c2c41bk3tw0000gp/T//cceIFtrC.s 			page 81


 2120              		.loc 9 406 12 view .LVU474
 2121 010a 9842     		cmp	r0, r3
 2122 010c C0F21E81 		blt	.L160
 406:../../libDaisy//src/hid/disp/display.h ****         {
 2123              		.loc 9 406 21 view .LVU475
 2124 0110 D8F80030 		ldr	r3, [r8]
 2125 0114 039A     		ldr	r2, [sp, #12]
 2126 0116 9B68     		ldr	r3, [r3, #8]
 2127 0118 9342     		cmp	r3, r2
 2128 011a 40F01D81 		bne	.L206
 2129 011e 4020     		movs	r0, #64
 2130              	.L161:
 406:../../libDaisy//src/hid/disp/display.h ****         {
 2131              		.loc 9 406 27 view .LVU476
 2132 0120 B8F80610 		ldrh	r1, [r8, #6]
 406:../../libDaisy//src/hid/disp/display.h ****         {
 2133              		.loc 9 406 37 view .LVU477
 2134 0124 049A     		ldr	r2, [sp, #16]
 406:../../libDaisy//src/hid/disp/display.h ****         {
 2135              		.loc 9 406 27 view .LVU478
 2136 0126 0291     		str	r1, [sp, #8]
 406:../../libDaisy//src/hid/disp/display.h ****         {
 2137              		.loc 9 406 37 view .LVU479
 2138 0128 8B18     		adds	r3, r1, r2
 406:../../libDaisy//src/hid/disp/display.h ****         {
 2139              		.loc 9 406 12 view .LVU480
 2140 012a 9842     		cmp	r0, r3
 2141 012c C0F20E81 		blt	.L160
 2142              	.LVL134:
 413:../../libDaisy//src/hid/disp/display.h ****         {
 2143              		.loc 9 413 22 is_stmt 1 view .LVU481
 2144 0130 002A     		cmp	r2, #0
 2145 0132 00F01C81 		beq	.L162
 415:../../libDaisy//src/hid/disp/display.h ****             for(j = 0; j < font.FontWidth; j++)
 2146              		.loc 9 415 37 is_stmt 0 view .LVU482
 2147 0136 02FB05F5 		mul	r5, r2, r5
 2148 013a 6FF0004E 		mvn	lr, #-2147483648
 2149 013e 079B     		ldr	r3, [sp, #28]
 2150 0140 AE44     		add	lr, lr, r5
 2151 0142 1544     		add	r5, r5, r2
 2152 0144 CDF814B0 		str	fp, [sp, #20]
 2153 0148 03EB4E0E 		add	lr, r3, lr, lsl #1
 2154 014c 023B     		subs	r3, r3, #2
 434:../../libDaisy//src/hid/disp/display.h **** 
 2155              		.loc 9 434 19 view .LVU483
 2156 014e B8F804A0 		ldrh	r10, [r8, #4]
 2157 0152 03EB4503 		add	r3, r3, r5, lsl #1
 2158 0156 0D46     		mov	r5, r1
 2159 0158 9B46     		mov	fp, r3
 2160              	.LVL135:
 2161              	.L165:
 415:../../libDaisy//src/hid/disp/display.h ****             for(j = 0; j < font.FontWidth; j++)
 2162              		.loc 9 415 15 view .LVU484
 2163 015a 3EF8027F 		ldrh	r7, [lr, #2]!
 2164              	.LVL136:
 416:../../libDaisy//src/hid/disp/display.h ****             {
 2165              		.loc 9 416 26 is_stmt 1 view .LVU485
ARM GAS  /var/folders/hl/qgbwny5j0fd895c2c41bk3tw0000gp/T//cceIFtrC.s 			page 82


 2166 015e A4B3     		cbz	r4, .L170
 2167              	.LBB1112:
 2168              	.LBB1113:
 2169              	.LBB1114:
 2170              	.LBB1115:
 2171              	.LBB1116:
 359:../../libDaisy//src/dev/oled_ssd130x.h ****     }
 2172              		.loc 15 359 55 is_stmt 0 view .LVU486
 2173 0160 05F00703 		and	r3, r5, #7
 359:../../libDaisy//src/dev/oled_ssd130x.h ****     }
 2174              		.loc 15 359 49 view .LVU487
 2175 0164 4FF0010C 		mov	ip, #1
 359:../../libDaisy//src/dev/oled_ssd130x.h ****     }
 2176              		.loc 15 359 28 view .LVU488
 2177 0168 EA08     		lsrs	r2, r5, #3
 2178 016a 5146     		mov	r1, r10
 359:../../libDaisy//src/dev/oled_ssd130x.h ****     }
 2179              		.loc 15 359 49 view .LVU489
 2180 016c 0CFA03FC 		lsl	ip, ip, r3
 2181 0170 0AF11003 		add	r3, r10, #16
 359:../../libDaisy//src/dev/oled_ssd130x.h ****     }
 2182              		.loc 15 359 42 view .LVU490
 2183 0174 4FFA8CFC 		sxtb	ip, ip
 2184 0178 03EBC212 		add	r2, r3, r2, lsl #7
 2185              	.LBE1116:
 2186              	.LBE1115:
 2187              	.LBE1114:
 2188              	.LBE1113:
 2189              	.LBE1112:
 416:../../libDaisy//src/hid/disp/display.h ****             {
 2190              		.loc 9 416 19 view .LVU491
 2191 017c 0023     		movs	r3, #0
 2192              	.LBB1134:
 2193              	.LBB1129:
 2194              	.LBB1124:
 2195              	.LBB1120:
 2196              	.LBB1117:
 359:../../libDaisy//src/dev/oled_ssd130x.h ****     }
 2197              		.loc 15 359 42 view .LVU492
 2198 017e 6FEA0C09 		mvn	r9, ip
 2199 0182 4244     		add	r2, r2, r8
 2200 0184 0DE0     		b	.L171
 2201              	.LVL137:
 2202              	.L207:
 359:../../libDaisy//src/dev/oled_ssd130x.h ****     }
 2203              		.loc 15 359 42 view .LVU493
 2204              	.LBE1117:
 2205              	.LBE1120:
 2206              	.LBE1124:
 2207              	.LBE1129:
 2208              	.LBE1134:
 2209              	.LBB1135:
 2210              	.LBI1135:
  42:../../libDaisy//src/hid/disp/oled_display.h ****     {
 2211              		.loc 8 42 10 is_stmt 1 view .LVU494
 2212              	.LBB1136:
 2213              	.LBI1136:
ARM GAS  /var/folders/hl/qgbwny5j0fd895c2c41bk3tw0000gp/T//cceIFtrC.s 			page 83


 352:../../libDaisy//src/dev/oled_ssd130x.h ****     {
 2214              		.loc 15 352 10 view .LVU495
 2215              	.LBB1137:
 354:../../libDaisy//src/dev/oled_ssd130x.h ****             return;
 2216              		.loc 15 354 9 is_stmt 0 view .LVU496
 2217 0186 7F29     		cmp	r1, #127
 2218 0188 06D8     		bhi	.L167
 2219 018a 3F2D     		cmp	r5, #63
 2220 018c 04D8     		bhi	.L167
 357:../../libDaisy//src/dev/oled_ssd130x.h ****         else
 2221              		.loc 15 357 42 view .LVU497
 2222 018e 1078     		ldrb	r0, [r2]	@ zero_extendqisi2
 356:../../libDaisy//src/dev/oled_ssd130x.h ****             buffer_[x + (y / 8) * width] |= (1 << (y % 8));
 2223              		.loc 15 356 9 view .LVU498
 2224 0190 96B1     		cbz	r6, .L169
 2225              	.L201:
 356:../../libDaisy//src/dev/oled_ssd130x.h ****             buffer_[x + (y / 8) * width] |= (1 << (y % 8));
 2226              		.loc 15 356 9 view .LVU499
 2227              	.LBE1137:
 2228              	.LBE1136:
 2229              	.LBE1135:
 2230              	.LBB1138:
 2231              	.LBB1130:
 2232              	.LBB1125:
 357:../../libDaisy//src/dev/oled_ssd130x.h ****         else
 2233              		.loc 15 357 42 view .LVU500
 2234 0192 4CEA0000 		orr	r0, ip, r0
 2235 0196 1070     		strb	r0, [r2]
 2236              	.L167:
 2237              	.LBE1125:
 2238              	.LBE1130:
 2239              	.LBE1138:
 416:../../libDaisy//src/hid/disp/display.h ****             {
 2240              		.loc 9 416 13 is_stmt 1 view .LVU501
 2241 0198 0133     		adds	r3, r3, #1
 2242              	.LVL138:
 416:../../libDaisy//src/hid/disp/display.h ****             {
 2243              		.loc 9 416 26 view .LVU502
 2244 019a 0132     		adds	r2, r2, #1
 2245 019c 0131     		adds	r1, r1, #1
 2246 019e 9C42     		cmp	r4, r3
 2247 01a0 13D0     		beq	.L170
 2248              	.LVL139:
 2249              	.L171:
 418:../../libDaisy//src/hid/disp/display.h ****                 {
 2250              		.loc 9 418 23 is_stmt 0 view .LVU503
 2251 01a2 07FA03F0 		lsl	r0, r7, r3
 418:../../libDaisy//src/hid/disp/display.h ****                 {
 2252              		.loc 9 418 17 view .LVU504
 2253 01a6 0004     		lsls	r0, r0, #16
 2254 01a8 EDD4     		bmi	.L207
 2255              	.LVL140:
 2256              	.LBB1139:
 2257              	.LBI1112:
  42:../../libDaisy//src/hid/disp/oled_display.h ****     {
 2258              		.loc 8 42 10 is_stmt 1 view .LVU505
 2259              	.LBB1131:
ARM GAS  /var/folders/hl/qgbwny5j0fd895c2c41bk3tw0000gp/T//cceIFtrC.s 			page 84


 2260              	.LBI1113:
 352:../../libDaisy//src/dev/oled_ssd130x.h ****     {
 2261              		.loc 15 352 10 view .LVU506
 2262              	.LBB1126:
 354:../../libDaisy//src/dev/oled_ssd130x.h ****             return;
 2263              		.loc 15 354 9 is_stmt 0 view .LVU507
 2264 01aa 7F29     		cmp	r1, #127
 2265 01ac F4D8     		bhi	.L167
 2266 01ae 3F2D     		cmp	r5, #63
 2267 01b0 F2D8     		bhi	.L167
 357:../../libDaisy//src/dev/oled_ssd130x.h ****         else
 2268              		.loc 15 357 42 view .LVU508
 2269 01b2 1078     		ldrb	r0, [r2]	@ zero_extendqisi2
 356:../../libDaisy//src/dev/oled_ssd130x.h ****             buffer_[x + (y / 8) * width] |= (1 << (y % 8));
 2270              		.loc 15 356 9 view .LVU509
 2271 01b4 002E     		cmp	r6, #0
 2272 01b6 ECD0     		beq	.L201
 2273              	.L169:
 2274              	.LVL141:
 2275              	.LBB1121:
 2276              	.LBI1115:
 352:../../libDaisy//src/dev/oled_ssd130x.h ****     {
 2277              		.loc 15 352 10 is_stmt 1 view .LVU510
 352:../../libDaisy//src/dev/oled_ssd130x.h ****     {
 2278              		.loc 15 352 10 is_stmt 0 view .LVU511
 2279              	.LBE1121:
 2280              	.LBE1126:
 2281              	.LBE1131:
 2282              	.LBE1139:
 416:../../libDaisy//src/hid/disp/display.h ****             {
 2283              		.loc 9 416 13 view .LVU512
 2284 01b8 0133     		adds	r3, r3, #1
 2285              	.LVL142:
 2286              	.LBB1140:
 2287              	.LBB1132:
 2288              	.LBB1127:
 2289              	.LBB1122:
 2290              	.LBB1118:
 359:../../libDaisy//src/dev/oled_ssd130x.h ****     }
 2291              		.loc 15 359 42 view .LVU513
 2292 01ba 09EA0000 		and	r0, r9, r0
 2293              	.LBE1118:
 2294              	.LBE1122:
 2295              	.LBE1127:
 2296              	.LBE1132:
 2297              	.LBE1140:
 416:../../libDaisy//src/hid/disp/display.h ****             {
 2298              		.loc 9 416 26 view .LVU514
 2299 01be 0132     		adds	r2, r2, #1
 2300 01c0 0131     		adds	r1, r1, #1
 2301 01c2 9C42     		cmp	r4, r3
 2302              	.LBB1141:
 2303              	.LBB1133:
 2304              	.LBB1128:
 2305              	.LBB1123:
 2306              	.LBB1119:
 359:../../libDaisy//src/dev/oled_ssd130x.h ****     }
ARM GAS  /var/folders/hl/qgbwny5j0fd895c2c41bk3tw0000gp/T//cceIFtrC.s 			page 85


 2307              		.loc 15 359 42 view .LVU515
 2308 01c4 02F8010C 		strb	r0, [r2, #-1]
 359:../../libDaisy//src/dev/oled_ssd130x.h ****     }
 2309              		.loc 15 359 42 view .LVU516
 2310              	.LBE1119:
 2311              	.LBE1123:
 2312              	.LBE1128:
 2313              	.LBE1133:
 2314              	.LBE1141:
 416:../../libDaisy//src/hid/disp/display.h ****             {
 2315              		.loc 9 416 13 is_stmt 1 view .LVU517
 2316              	.LVL143:
 416:../../libDaisy//src/hid/disp/display.h ****             {
 2317              		.loc 9 416 26 view .LVU518
 2318 01c8 EBD1     		bne	.L171
 2319              	.LVL144:
 2320              	.L170:
 413:../../libDaisy//src/hid/disp/display.h ****         {
 2321              		.loc 9 413 9 view .LVU519
 413:../../libDaisy//src/hid/disp/display.h ****         {
 2322              		.loc 9 413 22 view .LVU520
 2323 01ca F345     		cmp	fp, lr
 2324 01cc 05F10105 		add	r5, r5, #1
 2325 01d0 C3D1     		bne	.L165
 2326 01d2 DDF814B0 		ldr	fp, [sp, #20]
 2327              	.LVL145:
 2328              	.L164:
 2329              	.LBB1142:
 2330              	.LBB1143:
 173:../../libDaisy//src/hid/disp/display.h ****         currentY_ = (y >= Height()) ? Height() - 1 : y;
 2331              		.loc 9 173 33 is_stmt 0 view .LVU521
 2332 01d6 D8F80020 		ldr	r2, [r8]
 2333              	.LBE1143:
 2334              	.LBE1142:
 434:../../libDaisy//src/hid/disp/display.h **** 
 2335              		.loc 9 434 18 view .LVU522
 2336 01da 0AEB0405 		add	r5, r10, r4
 2337 01de 0199     		ldr	r1, [sp, #4]
 2338              	.LBB1148:
 2339              	.LBB1144:
 173:../../libDaisy//src/hid/disp/display.h ****         currentY_ = (y >= Height()) ? Height() - 1 : y;
 2340              		.loc 9 173 33 view .LVU523
 2341 01e0 D368     		ldr	r3, [r2, #12]
 2342              	.LBE1144:
 2343              	.LBE1148:
 434:../../libDaisy//src/hid/disp/display.h **** 
 2344              		.loc 9 434 18 view .LVU524
 2345 01e2 ADB2     		uxth	r5, r5
 2346              	.LVL146:
 2347              	.LBB1149:
 2348              	.LBI1142:
 171:../../libDaisy//src/hid/disp/display.h ****     {
 2349              		.loc 9 171 10 is_stmt 1 view .LVU525
 2350              	.LBB1145:
 173:../../libDaisy//src/hid/disp/display.h ****         currentY_ = (y >= Height()) ? Height() - 1 : y;
 2351              		.loc 9 173 9 view .LVU526
 2352 01e4 8B42     		cmp	r3, r1
ARM GAS  /var/folders/hl/qgbwny5j0fd895c2c41bk3tw0000gp/T//cceIFtrC.s 			page 86


 2353 01e6 40F0BD80 		bne	.L208
 173:../../libDaisy//src/hid/disp/display.h ****         currentY_ = (y >= Height()) ? Height() - 1 : y;
 2354              		.loc 9 173 33 is_stmt 0 view .LVU527
 2355 01ea 8020     		movs	r0, #128
 2356              	.L172:
 173:../../libDaisy//src/hid/disp/display.h ****         currentY_ = (y >= Height()) ? Height() - 1 : y;
 2357              		.loc 9 173 19 view .LVU528
 2358 01ec 8542     		cmp	r5, r0
 2359 01ee 05D3     		bcc	.L173
 173:../../libDaisy//src/hid/disp/display.h ****         currentY_ = (y >= Height()) ? Height() - 1 : y;
 2360              		.loc 9 173 44 view .LVU529
 2361 01f0 D368     		ldr	r3, [r2, #12]
 2362 01f2 0199     		ldr	r1, [sp, #4]
 2363 01f4 8B42     		cmp	r3, r1
 2364 01f6 40F0C380 		bne	.L209
 2365 01fa 7F25     		movs	r5, #127
 2366              	.LVL147:
 2367              	.L173:
 174:../../libDaisy//src/hid/disp/display.h ****     }
 2368              		.loc 9 174 34 view .LVU530
 2369 01fc 9368     		ldr	r3, [r2, #8]
 2370 01fe 039A     		ldr	r2, [sp, #12]
 173:../../libDaisy//src/hid/disp/display.h ****         currentY_ = (y >= Height()) ? Height() - 1 : y;
 2371              		.loc 9 173 19 view .LVU531
 2372 0200 A8F80450 		strh	r5, [r8, #4]	@ movhi
 174:../../libDaisy//src/hid/disp/display.h ****     }
 2373              		.loc 9 174 9 is_stmt 1 view .LVU532
 2374 0204 9342     		cmp	r3, r2
 2375 0206 40F0AA80 		bne	.L210
 174:../../libDaisy//src/hid/disp/display.h ****     }
 2376              		.loc 9 174 34 is_stmt 0 view .LVU533
 2377 020a 4020     		movs	r0, #64
 2378              	.L175:
 174:../../libDaisy//src/hid/disp/display.h ****     }
 2379              		.loc 9 174 19 view .LVU534
 2380 020c 029B     		ldr	r3, [sp, #8]
 2381 020e 8342     		cmp	r3, r0
 2382 0210 08D3     		bcc	.L176
 174:../../libDaisy//src/hid/disp/display.h ****     }
 2383              		.loc 9 174 46 view .LVU535
 2384 0212 D8F80030 		ldr	r3, [r8]
 2385 0216 039A     		ldr	r2, [sp, #12]
 2386 0218 9B68     		ldr	r3, [r3, #8]
 2387 021a 9342     		cmp	r3, r2
 2388 021c 40F0AA80 		bne	.L211
 2389 0220 3F23     		movs	r3, #63
 2390 0222 0293     		str	r3, [sp, #8]
 2391              	.LVL148:
 2392              	.L176:
 174:../../libDaisy//src/hid/disp/display.h ****     }
 2393              		.loc 9 174 19 view .LVU536
 2394 0224 029B     		ldr	r3, [sp, #8]
 2395 0226 A8F80630 		strh	r3, [r8, #6]	@ movhi
 2396              	.LVL149:
 2397              	.L158:
 174:../../libDaisy//src/hid/disp/display.h ****     }
 2398              		.loc 9 174 19 view .LVU537
ARM GAS  /var/folders/hl/qgbwny5j0fd895c2c41bk3tw0000gp/T//cceIFtrC.s 			page 87


 2399              	.LBE1145:
 2400              	.LBE1149:
 2401              	.LBE1111:
 2402              	.LBE1110:
 445:../../libDaisy//src/hid/disp/display.h ****                != *str)
 2403              		.loc 9 445 13 view .LVU538
 2404 022a 009A     		ldr	r2, [sp]
 2405 022c 1378     		ldrb	r3, [r2]	@ zero_extendqisi2
 2406 022e 5B45     		cmp	r3, fp
 2407 0230 06D1     		bne	.L126
 2408              	.LVL150:
 443:../../libDaisy//src/hid/disp/display.h ****         {
 2409              		.loc 9 443 9 is_stmt 1 view .LVU539
 2410 0232 12F801BF 		ldrb	fp, [r2, #1]!	@ zero_extendqisi2
 2411              	.LVL151:
 443:../../libDaisy//src/hid/disp/display.h ****         {
 2412              		.loc 9 443 9 is_stmt 0 view .LVU540
 2413 0236 0092     		str	r2, [sp]
 2414 0238 BBF1000F 		cmp	fp, #0
 2415 023c 7FF454AF 		bne	.L156
 2416              	.LVL152:
 2417              	.L126:
 443:../../libDaisy//src/hid/disp/display.h ****         {
 2418              		.loc 9 443 9 view .LVU541
 2419              	.LBE1155:
 2420              	.LBE1158:
 471:../../libDaisy//src/hid/disp/display.h **** 
 2421              		.loc 9 471 5 view .LVU542
 2422 0240 0698     		ldr	r0, [sp, #24]
 2423 0242 09B0     		add	sp, sp, #36
 2424              		.cfi_remember_state
 2425              		.cfi_def_cfa_offset 36
 2426              		@ sp needed
 2427 0244 BDE8F08F 		pop	{r4, r5, r6, r7, r8, r9, r10, fp, pc}
 2428              	.LVL153:
 2429              	.L139:
 2430              		.cfi_restore_state
 2431              	.LBB1159:
 2432              	.LBB1081:
 250:../../libDaisy//src/hid/disp/graphics_common.h ****                 return {int16_t(x_ + (other.GetCenterX() - GetCenterX())),
 2433              		.loc 18 250 13 is_stmt 1 view .LVU543
 251:../../libDaisy//src/hid/disp/graphics_common.h ****                         int16_t(y_ + (other.GetCenterY() - GetCenterY())),
 2434              		.loc 18 251 17 view .LVU544
 2435              	.LBB915:
 2436              	.LBI915:
  62:../../libDaisy//src/hid/disp/graphics_common.h ****     int16_t GetCenterY() const { return y_ + height_ / 2; }
 2437              		.loc 18 62 13 view .LVU545
 2438              	.LBB916:
  62:../../libDaisy//src/hid/disp/graphics_common.h ****     int16_t GetCenterY() const { return y_ + height_ / 2; }
 2439              		.loc 18 62 34 view .LVU546
  62:../../libDaisy//src/hid/disp/graphics_common.h ****     int16_t GetCenterY() const { return y_ + height_ / 2; }
 2440              		.loc 18 62 34 is_stmt 0 view .LVU547
 2441              	.LBE916:
 2442              	.LBE915:
 2443              	.LBB918:
 2444              	.LBI918:
  62:../../libDaisy//src/hid/disp/graphics_common.h ****     int16_t GetCenterY() const { return y_ + height_ / 2; }
ARM GAS  /var/folders/hl/qgbwny5j0fd895c2c41bk3tw0000gp/T//cceIFtrC.s 			page 88


 2445              		.loc 18 62 13 is_stmt 1 view .LVU548
 2446              	.LBB919:
  62:../../libDaisy//src/hid/disp/graphics_common.h ****     int16_t GetCenterY() const { return y_ + height_ / 2; }
 2447              		.loc 18 62 34 view .LVU549
  62:../../libDaisy//src/hid/disp/graphics_common.h ****     int16_t GetCenterY() const { return y_ + height_ / 2; }
 2448              		.loc 18 62 34 is_stmt 0 view .LVU550
 2449              	.LBE919:
 2450              	.LBE918:
 2451              	.LBB920:
 2452              	.LBB917:
  62:../../libDaisy//src/hid/disp/graphics_common.h ****     int16_t GetCenterY() const { return y_ + height_ / 2; }
 2453              		.loc 18 62 53 view .LVU551
 2454 0248 B4F90410 		ldrsh	r1, [r4, #4]
 2455              	.LVL154:
  62:../../libDaisy//src/hid/disp/graphics_common.h ****     int16_t GetCenterY() const { return y_ + height_ / 2; }
 2456              		.loc 18 62 44 view .LVU552
 2457 024c 2788     		ldrh	r7, [r4]
  62:../../libDaisy//src/hid/disp/graphics_common.h ****     int16_t GetCenterY() const { return y_ + height_ / 2; }
 2458              		.loc 18 62 53 view .LVU553
 2459 024e 0029     		cmp	r1, #0
 2460 0250 B8BF     		it	lt
 2461 0252 0131     		addlt	r1, r1, #1
  62:../../libDaisy//src/hid/disp/graphics_common.h ****     int16_t GetCenterY() const { return y_ + height_ / 2; }
 2462              		.loc 18 62 44 view .LVU554
 2463 0254 07EB6107 		add	r7, r7, r1, asr #1
 2464              	.LBE917:
 2465              	.LBE920:
 2466              	.LBB921:
 2467              	.LBB893:
  63:../../libDaisy//src/hid/disp/graphics_common.h **** 
 2468              		.loc 18 63 54 view .LVU555
 2469 0258 B4F90610 		ldrsh	r1, [r4, #6]
 2470              	.LBE893:
 2471              	.LBE921:
 251:../../libDaisy//src/hid/disp/graphics_common.h ****                         int16_t(y_ + (other.GetCenterY() - GetCenterY())),
 2472              		.loc 18 251 58 view .LVU556
 2473 025c A7EB6307 		sub	r7, r7, r3, asr #1
 2474              	.LBB922:
 2475              	.LBB894:
  63:../../libDaisy//src/hid/disp/graphics_common.h **** 
 2476              		.loc 18 63 54 view .LVU557
 2477 0260 0029     		cmp	r1, #0
 2478              	.LBE894:
 2479              	.LBE922:
 251:../../libDaisy//src/hid/disp/graphics_common.h ****                         int16_t(y_ + (other.GetCenterY() - GetCenterY())),
 2480              		.loc 18 251 58 view .LVU558
 2481 0262 BFB2     		uxth	r7, r7
 2482              	.LVL155:
 2483              	.LBB923:
 2484              	.LBI890:
  63:../../libDaisy//src/hid/disp/graphics_common.h **** 
 2485              		.loc 18 63 13 is_stmt 1 view .LVU559
 2486              	.LBB895:
  63:../../libDaisy//src/hid/disp/graphics_common.h **** 
 2487              		.loc 18 63 34 view .LVU560
  63:../../libDaisy//src/hid/disp/graphics_common.h **** 
 2488              		.loc 18 63 34 is_stmt 0 view .LVU561
ARM GAS  /var/folders/hl/qgbwny5j0fd895c2c41bk3tw0000gp/T//cceIFtrC.s 			page 89


 2489              	.LBE895:
 2490              	.LBE923:
 2491              	.LBB924:
 2492              	.LBI924:
  63:../../libDaisy//src/hid/disp/graphics_common.h **** 
 2493              		.loc 18 63 13 is_stmt 1 view .LVU562
 2494              	.LBB925:
  63:../../libDaisy//src/hid/disp/graphics_common.h **** 
 2495              		.loc 18 63 34 view .LVU563
  63:../../libDaisy//src/hid/disp/graphics_common.h **** 
 2496              		.loc 18 63 34 is_stmt 0 view .LVU564
 2497              	.LBE925:
 2498              	.LBE924:
 2499              	.LBB926:
 2500              	.LBB896:
  63:../../libDaisy//src/hid/disp/graphics_common.h **** 
 2501              		.loc 18 63 54 view .LVU565
 2502 0264 BFF602AF 		bge	.L146
 2503              	.L202:
  63:../../libDaisy//src/hid/disp/graphics_common.h **** 
 2504              		.loc 18 63 54 view .LVU566
 2505 0268 0131     		adds	r1, r1, #1
 2506 026a FFE6     		b	.L146
 2507              	.LVL156:
 2508              	.L138:
  63:../../libDaisy//src/hid/disp/graphics_common.h **** 
 2509              		.loc 18 63 54 view .LVU567
 2510              	.LBE896:
 2511              	.LBE926:
 213:../../libDaisy//src/hid/disp/graphics_common.h ****                 return {other.x_, other.y_, width_, height_};
 2512              		.loc 18 213 13 is_stmt 1 view .LVU568
 214:../../libDaisy//src/hid/disp/graphics_common.h ****             case Alignment::topRight:
 2513              		.loc 18 214 17 view .LVU569
 214:../../libDaisy//src/hid/disp/graphics_common.h ****             case Alignment::topRight:
 2514              		.loc 18 214 31 is_stmt 0 view .LVU570
 2515 026c B4F90070 		ldrsh	r7, [r4]
 2516              	.LBB927:
 2517              	.LBB928:
 2518              	.LBB929:
  32:../../libDaisy//src/hid/disp/graphics_common.h ****     {
 2519              		.loc 18 32 66 view .LVU571
 2520 0270 0699     		ldr	r1, [sp, #24]
 2521              	.LVL157:
  32:../../libDaisy//src/hid/disp/graphics_common.h ****     {
 2522              		.loc 18 32 66 view .LVU572
 2523              	.LBE929:
 2524              	.LBE928:
 2525              	.LBE927:
 214:../../libDaisy//src/hid/disp/graphics_common.h ****             case Alignment::topRight:
 2526              		.loc 18 214 41 view .LVU573
 2527 0272 B4F90240 		ldrsh	r4, [r4, #2]
 2528              	.LVL158:
 2529              	.LBB942:
 2530              	.LBI927:
  31:../../libDaisy//src/hid/disp/graphics_common.h ****     : x_(x), y_(y), width_(max(0, width)), height_(max(0, height))
 2531              		.loc 18 31 5 is_stmt 1 view .LVU574
 2532              	.LBB937:
ARM GAS  /var/folders/hl/qgbwny5j0fd895c2c41bk3tw0000gp/T//cceIFtrC.s 			page 90


 2533              	.LBB932:
  32:../../libDaisy//src/hid/disp/graphics_common.h ****     {
 2534              		.loc 18 32 66 is_stmt 0 view .LVU575
 2535 0276 0F80     		strh	r7, [r1]	@ movhi
 2536              	.LBE932:
 2537              	.LBE937:
 2538              	.LBE942:
 2539              	.LBE1081:
 2540              	.LBE1159:
 468:../../libDaisy//src/hid/disp/display.h ****         ((ChildType*)(this))->ChildType::WriteString(str, font, on);
 2541              		.loc 9 468 18 view .LVU576
 2542 0278 BFB2     		uxth	r7, r7
 2543              	.LVL159:
 2544              	.LBB1160:
 2545              	.LBB1082:
 2546              	.LBB943:
 2547              	.LBB938:
 2548              	.LBB933:
  32:../../libDaisy//src/hid/disp/graphics_common.h ****     {
 2549              		.loc 18 32 66 view .LVU577
 2550 027a 4C80     		strh	r4, [r1, #2]	@ movhi
 2551              	.LBE933:
 2552              	.LBE938:
 2553              	.LBE943:
 2554              	.LBE1082:
 2555              	.LBE1160:
 468:../../libDaisy//src/hid/disp/display.h ****         ((ChildType*)(this))->ChildType::WriteString(str, font, on);
 2556              		.loc 9 468 18 view .LVU578
 2557 027c A4B2     		uxth	r4, r4
 2558              	.LVL160:
 2559              	.LBB1161:
 2560              	.LBB1083:
 2561              	.LBB944:
 2562              	.LBB939:
 2563              	.LBB934:
  32:../../libDaisy//src/hid/disp/graphics_common.h ****     {
 2564              		.loc 18 32 66 view .LVU579
 2565 027e 8B80     		strh	r3, [r1, #4]	@ movhi
 2566              	.LVL161:
 2567              	.LBB930:
 2568              	.LBI930:
 2569              		.loc 18 261 13 is_stmt 1 view .LVU580
 2570              	.LBE930:
 2571              	.LBE934:
 2572              	.LBE939:
 2573              	.LBE944:
 2574              	.LBE1083:
 2575              	.LBE1161:
 2576              		.loc 18 261 41 view .LVU581
 2577              	.LBB1162:
 2578              	.LBB1084:
 2579              	.LBB945:
 2580              	.LBB940:
 2581              	.LBB935:
 2582              	.LBB931:
 2583              	.LBI931:
 2584              		.loc 18 261 13 view .LVU582
ARM GAS  /var/folders/hl/qgbwny5j0fd895c2c41bk3tw0000gp/T//cceIFtrC.s 			page 91


 2585              	.LBE931:
 2586              	.LBE935:
 2587              	.LBE940:
 2588              	.LBE945:
 2589              	.LBE1084:
 2590              	.LBE1162:
 2591              		.loc 18 261 41 view .LVU583
 2592              	.LBB1163:
 2593              	.LBB1085:
 2594              	.LBB946:
 2595              	.LBB941:
 2596              	.LBB936:
  32:../../libDaisy//src/hid/disp/graphics_common.h ****     {
 2597              		.loc 18 32 66 is_stmt 0 view .LVU584
 2598 0280 CA80     		strh	r2, [r1, #6]	@ movhi
 2599              	.LBE936:
  34:../../libDaisy//src/hid/disp/graphics_common.h **** 
 2600              		.loc 18 34 5 view .LVU585
 2601 0282 FEE6     		b	.L140
 2602              	.LVL162:
 2603              	.L137:
  34:../../libDaisy//src/hid/disp/graphics_common.h **** 
 2604              		.loc 18 34 5 view .LVU586
 2605              	.LBE941:
 2606              	.LBE946:
 220:../../libDaisy//src/hid/disp/graphics_common.h ****                 return {int16_t(x_ + (other.GetCenterX() - GetCenterX())),
 2607              		.loc 18 220 13 is_stmt 1 view .LVU587
 221:../../libDaisy//src/hid/disp/graphics_common.h ****                         other.y_,
 2608              		.loc 18 221 17 view .LVU588
 2609              	.LBB947:
 2610              	.LBI947:
  62:../../libDaisy//src/hid/disp/graphics_common.h ****     int16_t GetCenterY() const { return y_ + height_ / 2; }
 2611              		.loc 18 62 13 view .LVU589
 2612              	.LBB948:
  62:../../libDaisy//src/hid/disp/graphics_common.h ****     int16_t GetCenterY() const { return y_ + height_ / 2; }
 2613              		.loc 18 62 34 view .LVU590
  62:../../libDaisy//src/hid/disp/graphics_common.h ****     int16_t GetCenterY() const { return y_ + height_ / 2; }
 2614              		.loc 18 62 34 is_stmt 0 view .LVU591
 2615              	.LBE948:
 2616              	.LBE947:
 2617              	.LBB951:
 2618              	.LBI951:
  62:../../libDaisy//src/hid/disp/graphics_common.h ****     int16_t GetCenterY() const { return y_ + height_ / 2; }
 2619              		.loc 18 62 13 is_stmt 1 view .LVU592
 2620              	.LBB952:
  62:../../libDaisy//src/hid/disp/graphics_common.h ****     int16_t GetCenterY() const { return y_ + height_ / 2; }
 2621              		.loc 18 62 34 view .LVU593
  62:../../libDaisy//src/hid/disp/graphics_common.h ****     int16_t GetCenterY() const { return y_ + height_ / 2; }
 2622              		.loc 18 62 34 is_stmt 0 view .LVU594
 2623              	.LBE952:
 2624              	.LBE951:
 2625              	.LBB953:
 2626              	.LBB949:
  62:../../libDaisy//src/hid/disp/graphics_common.h ****     int16_t GetCenterY() const { return y_ + height_ / 2; }
 2627              		.loc 18 62 53 view .LVU595
 2628 0284 B4F90410 		ldrsh	r1, [r4, #4]
 2629              	.LVL163:
ARM GAS  /var/folders/hl/qgbwny5j0fd895c2c41bk3tw0000gp/T//cceIFtrC.s 			page 92


  62:../../libDaisy//src/hid/disp/graphics_common.h ****     int16_t GetCenterY() const { return y_ + height_ / 2; }
 2630              		.loc 18 62 44 view .LVU596
 2631 0288 2788     		ldrh	r7, [r4]
  62:../../libDaisy//src/hid/disp/graphics_common.h ****     int16_t GetCenterY() const { return y_ + height_ / 2; }
 2632              		.loc 18 62 53 view .LVU597
 2633 028a 0029     		cmp	r1, #0
 2634              	.LBE949:
 2635              	.LBE953:
 222:../../libDaisy//src/hid/disp/graphics_common.h ****                         width_,
 2636              		.loc 18 222 31 view .LVU598
 2637 028c B4F90240 		ldrsh	r4, [r4, #2]
 2638              	.LVL164:
 2639              	.LBB954:
 2640              	.LBB950:
  62:../../libDaisy//src/hid/disp/graphics_common.h ****     int16_t GetCenterY() const { return y_ + height_ / 2; }
 2641              		.loc 18 62 53 view .LVU599
 2642 0290 B8BF     		it	lt
 2643 0292 0131     		addlt	r1, r1, #1
  62:../../libDaisy//src/hid/disp/graphics_common.h ****     int16_t GetCenterY() const { return y_ + height_ / 2; }
 2644              		.loc 18 62 44 view .LVU600
 2645 0294 07EB6107 		add	r7, r7, r1, asr #1
 2646              	.LBE950:
 2647              	.LBE954:
 2648              	.LBB955:
 2649              	.LBB956:
 2650              	.LBB957:
  32:../../libDaisy//src/hid/disp/graphics_common.h ****     {
 2651              		.loc 18 32 66 view .LVU601
 2652 0298 0699     		ldr	r1, [sp, #24]
 2653 029a 8B80     		strh	r3, [r1, #4]	@ movhi
 2654              	.LBE957:
 2655              	.LBE956:
 2656              	.LBE955:
 221:../../libDaisy//src/hid/disp/graphics_common.h ****                         other.y_,
 2657              		.loc 18 221 58 view .LVU602
 2658 029c A7EB6303 		sub	r3, r7, r3, asr #1
 2659              	.LBB968:
 2660              	.LBB964:
 2661              	.LBB960:
  32:../../libDaisy//src/hid/disp/graphics_common.h ****     {
 2662              		.loc 18 32 66 view .LVU603
 2663 02a0 4C80     		strh	r4, [r1, #2]	@ movhi
 2664              	.LBE960:
 2665              	.LBE964:
 2666              	.LBE968:
 2667              	.LBE1085:
 2668              	.LBE1163:
 468:../../libDaisy//src/hid/disp/display.h ****         ((ChildType*)(this))->ChildType::WriteString(str, font, on);
 2669              		.loc 9 468 18 view .LVU604
 2670 02a2 A4B2     		uxth	r4, r4
 2671              	.LBB1164:
 2672              	.LBB1086:
 221:../../libDaisy//src/hid/disp/graphics_common.h ****                         other.y_,
 2673              		.loc 18 221 58 view .LVU605
 2674 02a4 9FB2     		uxth	r7, r3
 2675              	.LVL165:
 2676              	.LBB969:
ARM GAS  /var/folders/hl/qgbwny5j0fd895c2c41bk3tw0000gp/T//cceIFtrC.s 			page 93


 2677              	.LBI955:
  31:../../libDaisy//src/hid/disp/graphics_common.h ****     : x_(x), y_(y), width_(max(0, width)), height_(max(0, height))
 2678              		.loc 18 31 5 is_stmt 1 view .LVU606
 2679              	.LBB965:
 2680              	.LBB961:
 2681              	.LBB958:
 2682              	.LBI958:
 2683              		.loc 18 261 13 view .LVU607
 2684              	.LBE958:
 2685              	.LBE961:
 2686              	.LBE965:
 2687              	.LBE969:
 2688              	.LBE1086:
 2689              	.LBE1164:
 2690              		.loc 18 261 41 view .LVU608
 2691              	.LBB1165:
 2692              	.LBB1087:
 2693              	.LBB970:
 2694              	.LBB966:
 2695              	.LBB962:
 2696              	.LBB959:
 2697              	.LBI959:
 2698              		.loc 18 261 13 view .LVU609
 2699              	.LBE959:
 2700              	.LBE962:
 2701              	.LBE966:
 2702              	.LBE970:
 2703              	.LBE1087:
 2704              	.LBE1165:
 2705              		.loc 18 261 41 view .LVU610
 2706              	.LBB1166:
 2707              	.LBB1088:
 2708              	.LBB971:
 2709              	.LBB967:
 2710              	.LBB963:
  32:../../libDaisy//src/hid/disp/graphics_common.h ****     {
 2711              		.loc 18 32 66 is_stmt 0 view .LVU611
 2712 02a6 CA80     		strh	r2, [r1, #6]	@ movhi
 2713 02a8 0F80     		strh	r7, [r1]	@ movhi
 2714              	.LBE963:
  34:../../libDaisy//src/hid/disp/graphics_common.h **** 
 2715              		.loc 18 34 5 view .LVU612
 2716 02aa EAE6     		b	.L140
 2717              	.LVL166:
 2718              	.L136:
  34:../../libDaisy//src/hid/disp/graphics_common.h **** 
 2719              		.loc 18 34 5 view .LVU613
 2720              	.LBE967:
 2721              	.LBE971:
 215:../../libDaisy//src/hid/disp/graphics_common.h ****                 return {int16_t(other.GetRight() - width_),
 2722              		.loc 18 215 13 is_stmt 1 view .LVU614
 216:../../libDaisy//src/hid/disp/graphics_common.h ****                         other.y_,
 2723              		.loc 18 216 17 view .LVU615
 2724              	.LBB972:
 2725              	.LBI972:
  60:../../libDaisy//src/hid/disp/graphics_common.h ****     int16_t GetBottom() const { return y_ + height_; }
 2726              		.loc 18 60 13 view .LVU616
ARM GAS  /var/folders/hl/qgbwny5j0fd895c2c41bk3tw0000gp/T//cceIFtrC.s 			page 94


 2727              	.LBB973:
  60:../../libDaisy//src/hid/disp/graphics_common.h ****     int16_t GetBottom() const { return y_ + height_; }
 2728              		.loc 18 60 32 view .LVU617
  60:../../libDaisy//src/hid/disp/graphics_common.h ****     int16_t GetBottom() const { return y_ + height_; }
 2729              		.loc 18 60 42 is_stmt 0 view .LVU618
 2730 02ac A188     		ldrh	r1, [r4, #4]
 2731              	.LVL167:
  60:../../libDaisy//src/hid/disp/graphics_common.h ****     int16_t GetBottom() const { return y_ + height_; }
 2732              		.loc 18 60 42 view .LVU619
 2733 02ae 2788     		ldrh	r7, [r4]
 2734              	.LBE973:
 2735              	.LBE972:
 217:../../libDaisy//src/hid/disp/graphics_common.h ****                         width_,
 2736              		.loc 18 217 31 view .LVU620
 2737 02b0 B4F90240 		ldrsh	r4, [r4, #2]
 2738              	.LVL168:
 2739              	.LBB975:
 2740              	.LBB974:
  60:../../libDaisy//src/hid/disp/graphics_common.h ****     int16_t GetBottom() const { return y_ + height_; }
 2741              		.loc 18 60 42 view .LVU621
 2742 02b4 0F44     		add	r7, r7, r1
 2743              	.LBE974:
 2744              	.LBE975:
 2745              	.LBB976:
 2746              	.LBB977:
 2747              	.LBB978:
  32:../../libDaisy//src/hid/disp/graphics_common.h ****     {
 2748              		.loc 18 32 66 view .LVU622
 2749 02b6 0699     		ldr	r1, [sp, #24]
 2750 02b8 8B80     		strh	r3, [r1, #4]	@ movhi
 2751              	.LBE978:
 2752              	.LBE977:
 2753              	.LBE976:
 216:../../libDaisy//src/hid/disp/graphics_common.h ****                         other.y_,
 2754              		.loc 18 216 50 view .LVU623
 2755 02ba FB1A     		subs	r3, r7, r3
 2756              	.LBB989:
 2757              	.LBB985:
 2758              	.LBB981:
  32:../../libDaisy//src/hid/disp/graphics_common.h ****     {
 2759              		.loc 18 32 66 view .LVU624
 2760 02bc 4C80     		strh	r4, [r1, #2]	@ movhi
 2761              	.LBE981:
 2762              	.LBE985:
 2763              	.LBE989:
 2764              	.LBE1088:
 2765              	.LBE1166:
 468:../../libDaisy//src/hid/disp/display.h ****         ((ChildType*)(this))->ChildType::WriteString(str, font, on);
 2766              		.loc 9 468 18 view .LVU625
 2767 02be A4B2     		uxth	r4, r4
 2768              	.LBB1167:
 2769              	.LBB1089:
 216:../../libDaisy//src/hid/disp/graphics_common.h ****                         other.y_,
 2770              		.loc 18 216 50 view .LVU626
 2771 02c0 9FB2     		uxth	r7, r3
 2772              	.LVL169:
 2773              	.LBB990:
ARM GAS  /var/folders/hl/qgbwny5j0fd895c2c41bk3tw0000gp/T//cceIFtrC.s 			page 95


 2774              	.LBI976:
  31:../../libDaisy//src/hid/disp/graphics_common.h ****     : x_(x), y_(y), width_(max(0, width)), height_(max(0, height))
 2775              		.loc 18 31 5 is_stmt 1 view .LVU627
 2776              	.LBB986:
 2777              	.LBB982:
 2778              	.LBB979:
 2779              	.LBI979:
 2780              		.loc 18 261 13 view .LVU628
 2781              	.LBE979:
 2782              	.LBE982:
 2783              	.LBE986:
 2784              	.LBE990:
 2785              	.LBE1089:
 2786              	.LBE1167:
 2787              		.loc 18 261 41 view .LVU629
 2788              	.LBB1168:
 2789              	.LBB1090:
 2790              	.LBB991:
 2791              	.LBB987:
 2792              	.LBB983:
 2793              	.LBB980:
 2794              	.LBI980:
 2795              		.loc 18 261 13 view .LVU630
 2796              	.LBE980:
 2797              	.LBE983:
 2798              	.LBE987:
 2799              	.LBE991:
 2800              	.LBE1090:
 2801              	.LBE1168:
 2802              		.loc 18 261 41 view .LVU631
 2803              	.LBB1169:
 2804              	.LBB1091:
 2805              	.LBB992:
 2806              	.LBB988:
 2807              	.LBB984:
  32:../../libDaisy//src/hid/disp/graphics_common.h ****     {
 2808              		.loc 18 32 66 is_stmt 0 view .LVU632
 2809 02c2 CA80     		strh	r2, [r1, #6]	@ movhi
 2810 02c4 0F80     		strh	r7, [r1]	@ movhi
 2811              	.LBE984:
  34:../../libDaisy//src/hid/disp/graphics_common.h **** 
 2812              		.loc 18 34 5 view .LVU633
 2813 02c6 DCE6     		b	.L140
 2814              	.LVL170:
 2815              	.L135:
  34:../../libDaisy//src/hid/disp/graphics_common.h **** 
 2816              		.loc 18 34 5 view .LVU634
 2817              	.LBE988:
 2818              	.LBE992:
 225:../../libDaisy//src/hid/disp/graphics_common.h ****                 return {other.x_,
 2819              		.loc 18 225 13 is_stmt 1 view .LVU635
 226:../../libDaisy//src/hid/disp/graphics_common.h ****                         int16_t(other.GetBottom() - height_),
 2820              		.loc 18 226 17 view .LVU636
 2821              	.LBB993:
 2822              	.LBB994:
  61:../../libDaisy//src/hid/disp/graphics_common.h ****     int16_t GetCenterX() const { return x_ + width_ / 2; }
 2823              		.loc 18 61 43 is_stmt 0 view .LVU637
ARM GAS  /var/folders/hl/qgbwny5j0fd895c2c41bk3tw0000gp/T//cceIFtrC.s 			page 96


 2824 02c8 E788     		ldrh	r7, [r4, #6]
 2825 02ca 6188     		ldrh	r1, [r4, #2]
 2826              	.LVL171:
  61:../../libDaisy//src/hid/disp/graphics_common.h ****     int16_t GetCenterX() const { return x_ + width_ / 2; }
 2827              		.loc 18 61 43 view .LVU638
 2828 02cc 3944     		add	r1, r1, r7
 2829              	.LBE994:
 2830              	.LBE993:
 226:../../libDaisy//src/hid/disp/graphics_common.h ****                         int16_t(other.GetBottom() - height_),
 2831              		.loc 18 226 31 view .LVU639
 2832 02ce B4F90070 		ldrsh	r7, [r4]
 227:../../libDaisy//src/hid/disp/graphics_common.h ****                         width_,
 2833              		.loc 18 227 51 view .LVU640
 2834 02d2 081A     		subs	r0, r1, r0
 2835              	.LVL172:
 2836              	.LBB996:
 2837              	.LBI993:
  61:../../libDaisy//src/hid/disp/graphics_common.h ****     int16_t GetCenterX() const { return x_ + width_ / 2; }
 2838              		.loc 18 61 13 is_stmt 1 view .LVU641
 2839              	.LBB995:
  61:../../libDaisy//src/hid/disp/graphics_common.h ****     int16_t GetCenterX() const { return x_ + width_ / 2; }
 2840              		.loc 18 61 33 view .LVU642
  61:../../libDaisy//src/hid/disp/graphics_common.h ****     int16_t GetCenterX() const { return x_ + width_ / 2; }
 2841              		.loc 18 61 33 is_stmt 0 view .LVU643
 2842              	.LBE995:
 2843              	.LBE996:
 2844              	.LBB997:
 2845              	.LBB998:
 2846              	.LBB999:
  32:../../libDaisy//src/hid/disp/graphics_common.h ****     {
 2847              		.loc 18 32 66 view .LVU644
 2848 02d4 0699     		ldr	r1, [sp, #24]
 2849              	.LBE999:
 2850              	.LBE998:
 2851              	.LBE997:
 227:../../libDaisy//src/hid/disp/graphics_common.h ****                         width_,
 2852              		.loc 18 227 51 view .LVU645
 2853 02d6 84B2     		uxth	r4, r0
 2854              	.LVL173:
 2855              	.LBB1009:
 2856              	.LBB1005:
 2857              	.LBB1002:
  32:../../libDaisy//src/hid/disp/graphics_common.h ****     {
 2858              		.loc 18 32 66 view .LVU646
 2859 02d8 0F80     		strh	r7, [r1]	@ movhi
 2860 02da 8B80     		strh	r3, [r1, #4]	@ movhi
 2861              	.LVL174:
  32:../../libDaisy//src/hid/disp/graphics_common.h ****     {
 2862              		.loc 18 32 66 view .LVU647
 2863              	.LBE1002:
 2864              	.LBE1005:
 2865              	.LBI997:
  31:../../libDaisy//src/hid/disp/graphics_common.h ****     : x_(x), y_(y), width_(max(0, width)), height_(max(0, height))
 2866              		.loc 18 31 5 is_stmt 1 view .LVU648
 2867              	.LBE1009:
 2868              	.LBE1091:
 2869              	.LBE1169:
ARM GAS  /var/folders/hl/qgbwny5j0fd895c2c41bk3tw0000gp/T//cceIFtrC.s 			page 97


 468:../../libDaisy//src/hid/disp/display.h ****         ((ChildType*)(this))->ChildType::WriteString(str, font, on);
 2870              		.loc 9 468 18 is_stmt 0 view .LVU649
 2871 02dc BFB2     		uxth	r7, r7
 2872              	.LVL175:
 2873              	.LBB1170:
 2874              	.LBB1092:
 2875              	.LBB1010:
 2876              	.LBB1006:
 2877              	.LBB1003:
  32:../../libDaisy//src/hid/disp/graphics_common.h ****     {
 2878              		.loc 18 32 66 view .LVU650
 2879 02de CA80     		strh	r2, [r1, #6]	@ movhi
 2880 02e0 4C80     		strh	r4, [r1, #2]	@ movhi
 2881              	.LVL176:
 2882              	.LBB1000:
 2883              	.LBI1000:
 2884              		.loc 18 261 13 is_stmt 1 view .LVU651
 2885              	.LBE1000:
 2886              	.LBE1003:
 2887              	.LBE1006:
 2888              	.LBE1010:
 2889              	.LBE1092:
 2890              	.LBE1170:
 2891              		.loc 18 261 41 view .LVU652
 2892              	.LBB1171:
 2893              	.LBB1093:
 2894              	.LBB1011:
 2895              	.LBB1007:
 2896              	.LBB1004:
 2897              	.LBB1001:
 2898              	.LBI1001:
 2899              		.loc 18 261 13 view .LVU653
 2900              	.LBE1001:
 2901              	.LBE1004:
 2902              	.LBE1007:
 2903              	.LBE1011:
 2904              	.LBE1093:
 2905              	.LBE1171:
 2906              		.loc 18 261 41 view .LVU654
 2907              	.LBB1172:
 2908              	.LBB1094:
 2909              	.LBB1012:
 2910              	.LBB1008:
  34:../../libDaisy//src/hid/disp/graphics_common.h **** 
 2911              		.loc 18 34 5 is_stmt 0 view .LVU655
 2912 02e2 CEE6     		b	.L140
 2913              	.LVL177:
 2914              	.L134:
  34:../../libDaisy//src/hid/disp/graphics_common.h **** 
 2915              		.loc 18 34 5 view .LVU656
 2916              	.LBE1008:
 2917              	.LBE1012:
 235:../../libDaisy//src/hid/disp/graphics_common.h ****                 return {int16_t(x_ + (other.GetCenterX() - GetCenterX())),
 2918              		.loc 18 235 13 is_stmt 1 view .LVU657
 236:../../libDaisy//src/hid/disp/graphics_common.h ****                         int16_t(other.GetBottom() - height_),
 2919              		.loc 18 236 17 view .LVU658
 2920              	.LBB1013:
ARM GAS  /var/folders/hl/qgbwny5j0fd895c2c41bk3tw0000gp/T//cceIFtrC.s 			page 98


 2921              	.LBI1013:
  62:../../libDaisy//src/hid/disp/graphics_common.h ****     int16_t GetCenterY() const { return y_ + height_ / 2; }
 2922              		.loc 18 62 13 view .LVU659
 2923              	.LBB1014:
  62:../../libDaisy//src/hid/disp/graphics_common.h ****     int16_t GetCenterY() const { return y_ + height_ / 2; }
 2924              		.loc 18 62 34 view .LVU660
  62:../../libDaisy//src/hid/disp/graphics_common.h ****     int16_t GetCenterY() const { return y_ + height_ / 2; }
 2925              		.loc 18 62 34 is_stmt 0 view .LVU661
 2926              	.LBE1014:
 2927              	.LBE1013:
 2928              	.LBB1016:
 2929              	.LBI1016:
  62:../../libDaisy//src/hid/disp/graphics_common.h ****     int16_t GetCenterY() const { return y_ + height_ / 2; }
 2930              		.loc 18 62 13 is_stmt 1 view .LVU662
 2931              	.LBB1017:
  62:../../libDaisy//src/hid/disp/graphics_common.h ****     int16_t GetCenterY() const { return y_ + height_ / 2; }
 2932              		.loc 18 62 34 view .LVU663
  62:../../libDaisy//src/hid/disp/graphics_common.h ****     int16_t GetCenterY() const { return y_ + height_ / 2; }
 2933              		.loc 18 62 34 is_stmt 0 view .LVU664
 2934              	.LBE1017:
 2935              	.LBE1016:
 2936              	.LBB1018:
 2937              	.LBB1015:
  62:../../libDaisy//src/hid/disp/graphics_common.h ****     int16_t GetCenterY() const { return y_ + height_ / 2; }
 2938              		.loc 18 62 53 view .LVU665
 2939 02e4 B4F90410 		ldrsh	r1, [r4, #4]
 2940              	.LVL178:
  62:../../libDaisy//src/hid/disp/graphics_common.h ****     int16_t GetCenterY() const { return y_ + height_ / 2; }
 2941              		.loc 18 62 44 view .LVU666
 2942 02e8 2788     		ldrh	r7, [r4]
  62:../../libDaisy//src/hid/disp/graphics_common.h ****     int16_t GetCenterY() const { return y_ + height_ / 2; }
 2943              		.loc 18 62 53 view .LVU667
 2944 02ea 0029     		cmp	r1, #0
 2945 02ec B8BF     		it	lt
 2946 02ee 0131     		addlt	r1, r1, #1
  62:../../libDaisy//src/hid/disp/graphics_common.h ****     int16_t GetCenterY() const { return y_ + height_ / 2; }
 2947              		.loc 18 62 44 view .LVU668
 2948 02f0 07EB6107 		add	r7, r7, r1, asr #1
 2949              	.LBE1015:
 2950              	.LBE1018:
 236:../../libDaisy//src/hid/disp/graphics_common.h ****                         int16_t(other.GetBottom() - height_),
 2951              		.loc 18 236 58 view .LVU669
 2952 02f4 A7EB6307 		sub	r7, r7, r3, asr #1
 2953              	.L200:
 2954              	.LBB1019:
 2955              	.LBB1020:
  61:../../libDaisy//src/hid/disp/graphics_common.h ****     int16_t GetCenterX() const { return x_ + width_ / 2; }
 2956              		.loc 18 61 43 view .LVU670
 2957 02f8 B4F802C0 		ldrh	ip, [r4, #2]
 2958              	.LBE1020:
 2959              	.LBE1019:
 236:../../libDaisy//src/hid/disp/graphics_common.h ****                         int16_t(other.GetBottom() - height_),
 2960              		.loc 18 236 58 view .LVU671
 2961 02fc BFB2     		uxth	r7, r7
 2962              	.LVL179:
 2963              	.LBB1023:
 2964              	.LBI1019:
ARM GAS  /var/folders/hl/qgbwny5j0fd895c2c41bk3tw0000gp/T//cceIFtrC.s 			page 99


  61:../../libDaisy//src/hid/disp/graphics_common.h ****     int16_t GetCenterX() const { return x_ + width_ / 2; }
 2965              		.loc 18 61 13 is_stmt 1 view .LVU672
 2966              	.LBB1021:
  61:../../libDaisy//src/hid/disp/graphics_common.h ****     int16_t GetCenterX() const { return x_ + width_ / 2; }
 2967              		.loc 18 61 33 view .LVU673
  61:../../libDaisy//src/hid/disp/graphics_common.h ****     int16_t GetCenterX() const { return x_ + width_ / 2; }
 2968              		.loc 18 61 43 is_stmt 0 view .LVU674
 2969 02fe E488     		ldrh	r4, [r4, #6]
 2970              	.LVL180:
  61:../../libDaisy//src/hid/disp/graphics_common.h ****     int16_t GetCenterX() const { return x_ + width_ / 2; }
 2971              		.loc 18 61 43 view .LVU675
 2972              	.LBE1021:
 2973              	.LBE1023:
 2974              	.LBB1024:
 2975              	.LBB1025:
 2976              	.LBB1026:
  32:../../libDaisy//src/hid/disp/graphics_common.h ****     {
 2977              		.loc 18 32 66 view .LVU676
 2978 0300 0699     		ldr	r1, [sp, #24]
 2979              	.LBE1026:
 2980              	.LBE1025:
 2981              	.LBE1024:
 2982              	.LBB1038:
 2983              	.LBB1022:
  61:../../libDaisy//src/hid/disp/graphics_common.h ****     int16_t GetCenterX() const { return x_ + width_ / 2; }
 2984              		.loc 18 61 43 view .LVU677
 2985 0302 6444     		add	r4, r4, ip
 2986              	.LBE1022:
 2987              	.LBE1038:
 2988              	.LBB1039:
 2989              	.LBB1033:
 2990              	.LBB1029:
  32:../../libDaisy//src/hid/disp/graphics_common.h ****     {
 2991              		.loc 18 32 66 view .LVU678
 2992 0304 8B80     		strh	r3, [r1, #4]	@ movhi
 2993              	.LBE1029:
 2994              	.LBE1033:
 2995              	.LBE1039:
 237:../../libDaisy//src/hid/disp/graphics_common.h ****                         width_,
 2996              		.loc 18 237 51 view .LVU679
 2997 0306 201A     		subs	r0, r4, r0
 2998              	.LBB1040:
 2999              	.LBB1034:
 3000              	.LBB1030:
  32:../../libDaisy//src/hid/disp/graphics_common.h ****     {
 3001              		.loc 18 32 66 view .LVU680
 3002 0308 CA80     		strh	r2, [r1, #6]	@ movhi
 3003 030a 0F80     		strh	r7, [r1]	@ movhi
 3004              	.LBE1030:
 3005              	.LBE1034:
 3006              	.LBE1040:
 237:../../libDaisy//src/hid/disp/graphics_common.h ****                         width_,
 3007              		.loc 18 237 51 view .LVU681
 3008 030c 84B2     		uxth	r4, r0
 3009              	.LVL181:
 3010              	.LBB1041:
 3011              	.LBI1024:
ARM GAS  /var/folders/hl/qgbwny5j0fd895c2c41bk3tw0000gp/T//cceIFtrC.s 			page 100


  31:../../libDaisy//src/hid/disp/graphics_common.h ****     : x_(x), y_(y), width_(max(0, width)), height_(max(0, height))
 3012              		.loc 18 31 5 is_stmt 1 view .LVU682
 3013              	.LBB1035:
 3014              	.LBB1031:
  32:../../libDaisy//src/hid/disp/graphics_common.h ****     {
 3015              		.loc 18 32 66 is_stmt 0 view .LVU683
 3016 030e 4C80     		strh	r4, [r1, #2]	@ movhi
 3017              	.LVL182:
 3018              	.LBB1027:
 3019              	.LBI1027:
 3020              		.loc 18 261 13 is_stmt 1 view .LVU684
 3021              	.LBE1027:
 3022              	.LBE1031:
 3023              	.LBE1035:
 3024              	.LBE1041:
 3025              	.LBE1094:
 3026              	.LBE1172:
 3027              		.loc 18 261 41 view .LVU685
 3028              	.LBB1173:
 3029              	.LBB1095:
 3030              	.LBB1042:
 3031              	.LBB1036:
 3032              	.LBB1032:
 3033              	.LBB1028:
 3034              	.LBI1028:
 3035              		.loc 18 261 13 view .LVU686
 3036              	.LBE1028:
 3037              	.LBE1032:
 3038              	.LBE1036:
 3039              	.LBE1042:
 3040              	.LBE1095:
 3041              	.LBE1173:
 3042              		.loc 18 261 41 view .LVU687
 3043              	.LBB1174:
 3044              	.LBB1096:
 3045              	.LBB1043:
 3046              	.LBB1037:
  34:../../libDaisy//src/hid/disp/graphics_common.h **** 
 3047              		.loc 18 34 5 is_stmt 0 view .LVU688
 3048 0310 B7E6     		b	.L140
 3049              	.LVL183:
 3050              	.L133:
  34:../../libDaisy//src/hid/disp/graphics_common.h **** 
 3051              		.loc 18 34 5 view .LVU689
 3052              	.LBE1037:
 3053              	.LBE1043:
 230:../../libDaisy//src/hid/disp/graphics_common.h ****                 return {int16_t(other.GetRight() - width_),
 3054              		.loc 18 230 13 is_stmt 1 view .LVU690
 231:../../libDaisy//src/hid/disp/graphics_common.h ****                         int16_t(other.GetBottom() - height_),
 3055              		.loc 18 231 17 view .LVU691
 3056              	.LBB1044:
 3057              	.LBI1044:
  60:../../libDaisy//src/hid/disp/graphics_common.h ****     int16_t GetBottom() const { return y_ + height_; }
 3058              		.loc 18 60 13 view .LVU692
 3059              	.LBB1045:
  60:../../libDaisy//src/hid/disp/graphics_common.h ****     int16_t GetBottom() const { return y_ + height_; }
 3060              		.loc 18 60 32 view .LVU693
ARM GAS  /var/folders/hl/qgbwny5j0fd895c2c41bk3tw0000gp/T//cceIFtrC.s 			page 101


  60:../../libDaisy//src/hid/disp/graphics_common.h ****     int16_t GetBottom() const { return y_ + height_; }
 3061              		.loc 18 60 42 is_stmt 0 view .LVU694
 3062 0312 2788     		ldrh	r7, [r4]
 3063 0314 A188     		ldrh	r1, [r4, #4]
 3064              	.LVL184:
  60:../../libDaisy//src/hid/disp/graphics_common.h ****     int16_t GetBottom() const { return y_ + height_; }
 3065              		.loc 18 60 42 view .LVU695
 3066 0316 0F44     		add	r7, r7, r1
 3067              	.LBE1045:
 3068              	.LBE1044:
 231:../../libDaisy//src/hid/disp/graphics_common.h ****                         int16_t(other.GetBottom() - height_),
 3069              		.loc 18 231 50 view .LVU696
 3070 0318 FF1A     		subs	r7, r7, r3
 3071 031a EDE7     		b	.L200
 3072              	.L213:
 3073              		.align	2
 3074              	.L212:
 3075 031c 00000000 		.word	_ZNK5daisy11OledDisplayINS_13SSD130xDriverILj128ELj64ENS_19SSD130xI2CTransportEEEE5WidthEv
 3076 0320 00000000 		.word	_ZNK5daisy11OledDisplayINS_13SSD130xDriverILj128ELj64ENS_19SSD130xI2CTransportEEEE6HeightEv
 3077              	.LVL185:
 3078              	.L132:
 240:../../libDaisy//src/hid/disp/graphics_common.h ****                 return {other.x_,
 3079              		.loc 18 240 13 is_stmt 1 view .LVU697
 241:../../libDaisy//src/hid/disp/graphics_common.h ****                         int16_t(y_ + (other.GetCenterY() - GetCenterY())),
 3080              		.loc 18 241 17 view .LVU698
 3081              	.LBB1046:
 3082              	.LBB1047:
  63:../../libDaisy//src/hid/disp/graphics_common.h **** 
 3083              		.loc 18 63 54 is_stmt 0 view .LVU699
 3084 0324 B4F90610 		ldrsh	r1, [r4, #6]
 3085              	.LVL186:
  63:../../libDaisy//src/hid/disp/graphics_common.h **** 
 3086              		.loc 18 63 54 view .LVU700
 3087              	.LBE1047:
 3088              	.LBE1046:
 241:../../libDaisy//src/hid/disp/graphics_common.h ****                         int16_t(y_ + (other.GetCenterY() - GetCenterY())),
 3089              		.loc 18 241 31 view .LVU701
 3090 0328 B4F90070 		ldrsh	r7, [r4]
 3091              	.LVL187:
 3092              	.LBB1052:
 3093              	.LBI1046:
  63:../../libDaisy//src/hid/disp/graphics_common.h **** 
 3094              		.loc 18 63 13 is_stmt 1 view .LVU702
 3095              	.LBB1048:
  63:../../libDaisy//src/hid/disp/graphics_common.h **** 
 3096              		.loc 18 63 34 view .LVU703
  63:../../libDaisy//src/hid/disp/graphics_common.h **** 
 3097              		.loc 18 63 34 is_stmt 0 view .LVU704
 3098              	.LBE1048:
 3099              	.LBE1052:
 3100              	.LBB1053:
 3101              	.LBI1053:
  63:../../libDaisy//src/hid/disp/graphics_common.h **** 
 3102              		.loc 18 63 13 is_stmt 1 view .LVU705
 3103              	.LBB1054:
  63:../../libDaisy//src/hid/disp/graphics_common.h **** 
 3104              		.loc 18 63 34 view .LVU706
ARM GAS  /var/folders/hl/qgbwny5j0fd895c2c41bk3tw0000gp/T//cceIFtrC.s 			page 102


  63:../../libDaisy//src/hid/disp/graphics_common.h **** 
 3105              		.loc 18 63 34 is_stmt 0 view .LVU707
 3106              	.LBE1054:
 3107              	.LBE1053:
 3108              	.LBB1055:
 3109              	.LBB1049:
  63:../../libDaisy//src/hid/disp/graphics_common.h **** 
 3110              		.loc 18 63 54 view .LVU708
 3111 032c 0029     		cmp	r1, #0
  63:../../libDaisy//src/hid/disp/graphics_common.h **** 
 3112              		.loc 18 63 44 view .LVU709
 3113 032e 6488     		ldrh	r4, [r4, #2]
 3114              	.LVL188:
  63:../../libDaisy//src/hid/disp/graphics_common.h **** 
 3115              		.loc 18 63 44 view .LVU710
 3116              	.LBE1049:
 3117              	.LBE1055:
 3118              	.LBB1056:
 3119              	.LBB1057:
 3120              	.LBB1058:
  32:../../libDaisy//src/hid/disp/graphics_common.h ****     {
 3121              		.loc 18 32 66 view .LVU711
 3122 0330 0698     		ldr	r0, [sp, #24]
 3123              	.LBE1058:
 3124              	.LBE1057:
 3125              	.LBE1056:
 3126              	.LBB1070:
 3127              	.LBB1050:
  63:../../libDaisy//src/hid/disp/graphics_common.h **** 
 3128              		.loc 18 63 54 view .LVU712
 3129 0332 B8BF     		it	lt
 3130 0334 0131     		addlt	r1, r1, #1
 3131              	.LBE1050:
 3132              	.LBE1070:
 3133              	.LBB1071:
 3134              	.LBB1065:
 3135              	.LBB1061:
  32:../../libDaisy//src/hid/disp/graphics_common.h ****     {
 3136              		.loc 18 32 66 view .LVU713
 3137 0336 C280     		strh	r2, [r0, #6]	@ movhi
 3138              	.LBE1061:
 3139              	.LBE1065:
 3140              	.LBE1071:
 3141              	.LBB1072:
 3142              	.LBB1051:
  63:../../libDaisy//src/hid/disp/graphics_common.h **** 
 3143              		.loc 18 63 44 view .LVU714
 3144 0338 04EB6104 		add	r4, r4, r1, asr #1
 3145              	.LBE1051:
 3146              	.LBE1072:
 3147              	.LBB1073:
 3148              	.LBB1066:
 3149              	.LBB1062:
  32:../../libDaisy//src/hid/disp/graphics_common.h ****     {
 3150              		.loc 18 32 66 view .LVU715
 3151 033c 0780     		strh	r7, [r0]	@ movhi
 3152 033e 8380     		strh	r3, [r0, #4]	@ movhi
ARM GAS  /var/folders/hl/qgbwny5j0fd895c2c41bk3tw0000gp/T//cceIFtrC.s 			page 103


 3153              	.LBE1062:
 3154              	.LBE1066:
 3155              	.LBE1073:
 3156              	.LBE1096:
 3157              	.LBE1174:
 468:../../libDaisy//src/hid/disp/display.h ****         ((ChildType*)(this))->ChildType::WriteString(str, font, on);
 3158              		.loc 9 468 18 view .LVU716
 3159 0340 BFB2     		uxth	r7, r7
 3160              	.LBB1175:
 3161              	.LBB1097:
 242:../../libDaisy//src/hid/disp/graphics_common.h ****                         width_,
 3162              		.loc 18 242 58 view .LVU717
 3163 0342 A4EB5202 		sub	r2, r4, r2, lsr #1
 3164 0346 94B2     		uxth	r4, r2
 3165              	.LVL189:
 3166              	.LBB1074:
 3167              	.LBI1056:
  31:../../libDaisy//src/hid/disp/graphics_common.h ****     : x_(x), y_(y), width_(max(0, width)), height_(max(0, height))
 3168              		.loc 18 31 5 is_stmt 1 view .LVU718
 3169              	.LBB1067:
 3170              	.LBB1063:
  32:../../libDaisy//src/hid/disp/graphics_common.h ****     {
 3171              		.loc 18 32 66 is_stmt 0 view .LVU719
 3172 0348 4480     		strh	r4, [r0, #2]	@ movhi
 3173              	.LVL190:
 3174              	.LBB1059:
 3175              	.LBI1059:
 3176              		.loc 18 261 13 is_stmt 1 view .LVU720
 3177              	.LBE1059:
 3178              	.LBE1063:
 3179              	.LBE1067:
 3180              	.LBE1074:
 3181              	.LBE1097:
 3182              	.LBE1175:
 3183              		.loc 18 261 41 view .LVU721
 3184              	.LBB1176:
 3185              	.LBB1098:
 3186              	.LBB1075:
 3187              	.LBB1068:
 3188              	.LBB1064:
 3189              	.LBB1060:
 3190              	.LBI1060:
 3191              		.loc 18 261 13 view .LVU722
 3192              	.LBE1060:
 3193              	.LBE1064:
 3194              	.LBE1068:
 3195              	.LBE1075:
 3196              	.LBE1098:
 3197              	.LBE1176:
 3198              		.loc 18 261 41 view .LVU723
 3199              	.LBB1177:
 3200              	.LBB1099:
 3201              	.LBB1076:
 3202              	.LBB1069:
  34:../../libDaisy//src/hid/disp/graphics_common.h **** 
 3203              		.loc 18 34 5 is_stmt 0 view .LVU724
 3204 034a 9AE6     		b	.L140
ARM GAS  /var/folders/hl/qgbwny5j0fd895c2c41bk3tw0000gp/T//cceIFtrC.s 			page 104


 3205              	.LVL191:
 3206              	.L160:
  34:../../libDaisy//src/hid/disp/graphics_common.h **** 
 3207              		.loc 18 34 5 view .LVU725
 3208              	.LBE1069:
 3209              	.LBE1076:
 3210              	.LBE1099:
 3211              	.LBE1177:
 3212              	.LBB1178:
 3213              	.LBB1156:
 3214              	.LBB1153:
 3215              	.LBB1152:
 402:../../libDaisy//src/hid/disp/display.h **** 
 3216              		.loc 9 402 20 view .LVU726
 3217 034c 4FF0000B 		mov	fp, #0
 3218              	.LVL192:
 402:../../libDaisy//src/hid/disp/display.h **** 
 3219              		.loc 9 402 20 view .LVU727
 3220 0350 6BE7     		b	.L158
 3221              	.LVL193:
 3222              	.L205:
 405:../../libDaisy//src/hid/disp/display.h ****            || Height() < (currentY_ + font.FontHeight))
 3223              		.loc 9 405 17 view .LVU728
 3224 0352 4046     		mov	r0, r8
 3225 0354 9847     		blx	r3
 3226              	.LVL194:
 3227 0356 D5E6     		b	.L159
 3228              	.L206:
 406:../../libDaisy//src/hid/disp/display.h ****         {
 3229              		.loc 9 406 21 view .LVU729
 3230 0358 4046     		mov	r0, r8
 3231 035a 9847     		blx	r3
 3232              	.LVL195:
 3233 035c E0E6     		b	.L161
 3234              	.LVL196:
 3235              	.L210:
 3236              	.LBB1150:
 3237              	.LBB1146:
 174:../../libDaisy//src/hid/disp/display.h ****     }
 3238              		.loc 9 174 33 view .LVU730
 3239 035e 4046     		mov	r0, r8
 3240 0360 9847     		blx	r3
 3241              	.LVL197:
 3242 0362 53E7     		b	.L175
 3243              	.LVL198:
 3244              	.L208:
 173:../../libDaisy//src/hid/disp/display.h ****         currentY_ = (y >= Height()) ? Height() - 1 : y;
 3245              		.loc 9 173 32 view .LVU731
 3246 0364 4046     		mov	r0, r8
 3247 0366 9847     		blx	r3
 3248              	.LVL199:
 173:../../libDaisy//src/hid/disp/display.h ****         currentY_ = (y >= Height()) ? Height() - 1 : y;
 3249              		.loc 9 173 44 view .LVU732
 3250 0368 D8F80020 		ldr	r2, [r8]
 3251 036c 3EE7     		b	.L172
 3252              	.LVL200:
 3253              	.L162:
ARM GAS  /var/folders/hl/qgbwny5j0fd895c2c41bk3tw0000gp/T//cceIFtrC.s 			page 105


 173:../../libDaisy//src/hid/disp/display.h ****         currentY_ = (y >= Height()) ? Height() - 1 : y;
 3254              		.loc 9 173 44 view .LVU733
 3255              	.LBE1146:
 3256              	.LBE1150:
 434:../../libDaisy//src/hid/disp/display.h **** 
 3257              		.loc 9 434 19 view .LVU734
 3258 036e B8F804A0 		ldrh	r10, [r8, #4]
 3259 0372 30E7     		b	.L164
 3260              	.LVL201:
 3261              	.L211:
 3262              	.LBB1151:
 3263              	.LBB1147:
 174:../../libDaisy//src/hid/disp/display.h ****     }
 3264              		.loc 9 174 45 view .LVU735
 3265 0374 4046     		mov	r0, r8
 3266 0376 9847     		blx	r3
 3267              	.LVL202:
 174:../../libDaisy//src/hid/disp/display.h ****     }
 3268              		.loc 9 174 19 view .LVU736
 3269 0378 0138     		subs	r0, r0, #1
 3270 037a 83B2     		uxth	r3, r0
 3271 037c 0293     		str	r3, [sp, #8]
 3272              	.LVL203:
 174:../../libDaisy//src/hid/disp/display.h ****     }
 3273              		.loc 9 174 19 view .LVU737
 3274 037e 51E7     		b	.L176
 3275              	.LVL204:
 3276              	.L209:
 173:../../libDaisy//src/hid/disp/display.h ****         currentY_ = (y >= Height()) ? Height() - 1 : y;
 3277              		.loc 9 173 43 view .LVU738
 3278 0380 4046     		mov	r0, r8
 3279 0382 9847     		blx	r3
 3280              	.LVL205:
 173:../../libDaisy//src/hid/disp/display.h ****         currentY_ = (y >= Height()) ? Height() - 1 : y;
 3281              		.loc 9 173 19 view .LVU739
 3282 0384 0138     		subs	r0, r0, #1
 174:../../libDaisy//src/hid/disp/display.h ****     }
 3283              		.loc 9 174 34 view .LVU740
 3284 0386 D8F80020 		ldr	r2, [r8]
 173:../../libDaisy//src/hid/disp/display.h ****         currentY_ = (y >= Height()) ? Height() - 1 : y;
 3285              		.loc 9 173 19 view .LVU741
 3286 038a 85B2     		uxth	r5, r0
 3287              	.LVL206:
 173:../../libDaisy//src/hid/disp/display.h ****         currentY_ = (y >= Height()) ? Height() - 1 : y;
 3288              		.loc 9 173 19 view .LVU742
 3289 038c 36E7     		b	.L173
 3290              	.LVL207:
 3291              	.L129:
 173:../../libDaisy//src/hid/disp/display.h ****         currentY_ = (y >= Height()) ? Height() - 1 : y;
 3292              		.loc 9 173 19 view .LVU743
 3293              	.LBE1147:
 3294              	.LBE1151:
 3295              	.LBE1152:
 3296              	.LBE1153:
 3297              	.LBE1156:
 3298              	.LBE1178:
 3299              	.LBB1179:
ARM GAS  /var/folders/hl/qgbwny5j0fd895c2c41bk3tw0000gp/T//cceIFtrC.s 			page 106


 3300              	.LBB1100:
 255:../../libDaisy//src/hid/disp/graphics_common.h ****         }
 3301              		.loc 18 255 13 is_stmt 1 view .LVU744
 255:../../libDaisy//src/hid/disp/graphics_common.h ****         }
 3302              		.loc 18 255 22 view .LVU745
 3303              	.LBB1077:
 3304              	.LBI1077:
  24:../../libDaisy//src/hid/disp/graphics_common.h **** 
 3305              		.loc 18 24 5 view .LVU746
 3306              	.LBE1077:
 3307              	.LBE1100:
 3308              	.LBE1179:
 3309              	.LBB1180:
 3310              	.LBB1106:
 173:../../libDaisy//src/hid/disp/display.h ****         currentY_ = (y >= Height()) ? Height() - 1 : y;
 3311              		.loc 9 173 33 is_stmt 0 view .LVU747
 3312 038e D8F80030 		ldr	r3, [r8]
 3313              	.LBE1106:
 3314              	.LBE1180:
 3315              	.LBB1181:
 3316              	.LBB1101:
 3317              	.LBB1079:
 3318              	.LBB1078:
  24:../../libDaisy//src/hid/disp/graphics_common.h **** 
 3319              		.loc 18 24 53 view .LVU748
 3320 0392 0024     		movs	r4, #0
 3321              	.LVL208:
  24:../../libDaisy//src/hid/disp/graphics_common.h **** 
 3322              		.loc 18 24 53 view .LVU749
 3323 0394 069A     		ldr	r2, [sp, #24]
 3324 0396 1349     		ldr	r1, .L214
 3325              	.LVL209:
  24:../../libDaisy//src/hid/disp/graphics_common.h **** 
 3326              		.loc 18 24 53 view .LVU750
 3327 0398 1480     		strh	r4, [r2]	@ movhi
 3328 039a 5480     		strh	r4, [r2, #2]	@ movhi
 3329 039c 9480     		strh	r4, [r2, #4]	@ movhi
 3330 039e D480     		strh	r4, [r2, #6]	@ movhi
 3331              	.LVL210:
  24:../../libDaisy//src/hid/disp/graphics_common.h **** 
 3332              		.loc 18 24 53 view .LVU751
 3333              	.LBE1078:
 3334              	.LBE1079:
 3335              	.LBE1101:
 3336              	.LBE1181:
  56:../../libDaisy//src/hid/disp/graphics_common.h ****     int16_t GetY() const { return y_; }
 3337              		.loc 18 56 28 is_stmt 1 view .LVU752
  57:../../libDaisy//src/hid/disp/graphics_common.h ****     int16_t GetWidth() const { return width_; }
 3338              		.loc 18 57 28 view .LVU753
 3339              	.LBB1182:
 171:../../libDaisy//src/hid/disp/display.h ****     {
 3340              		.loc 9 171 10 view .LVU754
 3341              	.LBB1107:
 173:../../libDaisy//src/hid/disp/display.h ****         currentY_ = (y >= Height()) ? Height() - 1 : y;
 3342              		.loc 9 173 9 view .LVU755
 173:../../libDaisy//src/hid/disp/display.h ****         currentY_ = (y >= Height()) ? Height() - 1 : y;
 3343              		.loc 9 173 33 is_stmt 0 view .LVU756
ARM GAS  /var/folders/hl/qgbwny5j0fd895c2c41bk3tw0000gp/T//cceIFtrC.s 			page 107


 3344 03a0 DA68     		ldr	r2, [r3, #12]
 3345 03a2 0191     		str	r1, [sp, #4]
 3346 03a4 8A42     		cmp	r2, r1
 3347 03a6 05D0     		beq	.L147
 3348 03a8 2746     		mov	r7, r4
 3349              	.LVL211:
 3350              	.L148:
 173:../../libDaisy//src/hid/disp/display.h ****         currentY_ = (y >= Height()) ? Height() - 1 : y;
 3351              		.loc 9 173 32 view .LVU757
 3352 03aa 4046     		mov	r0, r8
 3353 03ac 9047     		blx	r2
 3354              	.LVL212:
 173:../../libDaisy//src/hid/disp/display.h ****         currentY_ = (y >= Height()) ? Height() - 1 : y;
 3355              		.loc 9 173 44 view .LVU758
 3356 03ae D8F80030 		ldr	r3, [r8]
 3357 03b2 70E6     		b	.L149
 3358              	.LVL213:
 3359              	.L147:
 174:../../libDaisy//src/hid/disp/display.h ****     }
 3360              		.loc 9 174 34 view .LVU759
 3361 03b4 9B68     		ldr	r3, [r3, #8]
 3362 03b6 0C4A     		ldr	r2, .L214+4
 173:../../libDaisy//src/hid/disp/display.h ****         currentY_ = (y >= Height()) ? Height() - 1 : y;
 3363              		.loc 9 173 19 view .LVU760
 3364 03b8 A8F80440 		strh	r4, [r8, #4]	@ movhi
 174:../../libDaisy//src/hid/disp/display.h ****     }
 3365              		.loc 9 174 9 is_stmt 1 view .LVU761
 3366 03bc 9342     		cmp	r3, r2
 3367 03be 0392     		str	r2, [sp, #12]
 3368 03c0 3FF484AE 		beq	.L154
 3369              	.LVL214:
 3370              	.L180:
 174:../../libDaisy//src/hid/disp/display.h ****     }
 3371              		.loc 9 174 33 is_stmt 0 view .LVU762
 3372 03c4 4046     		mov	r0, r8
 3373 03c6 9847     		blx	r3
 3374              	.LVL215:
 3375 03c8 76E6     		b	.L152
 3376              	.L204:
 174:../../libDaisy//src/hid/disp/display.h ****     }
 3377              		.loc 9 174 45 view .LVU763
 3378 03ca 4046     		mov	r0, r8
 3379 03cc 9847     		blx	r3
 3380              	.LVL216:
 174:../../libDaisy//src/hid/disp/display.h ****     }
 3381              		.loc 9 174 19 view .LVU764
 3382 03ce 0138     		subs	r0, r0, #1
 3383 03d0 84B2     		uxth	r4, r0
 3384 03d2 7BE6     		b	.L154
 3385              	.L203:
 173:../../libDaisy//src/hid/disp/display.h ****         currentY_ = (y >= Height()) ? Height() - 1 : y;
 3386              		.loc 9 173 43 view .LVU765
 3387 03d4 4046     		mov	r0, r8
 3388 03d6 9047     		blx	r2
 3389              	.LVL217:
 173:../../libDaisy//src/hid/disp/display.h ****         currentY_ = (y >= Height()) ? Height() - 1 : y;
 3390              		.loc 9 173 19 view .LVU766
ARM GAS  /var/folders/hl/qgbwny5j0fd895c2c41bk3tw0000gp/T//cceIFtrC.s 			page 108


 3391 03d8 0138     		subs	r0, r0, #1
 174:../../libDaisy//src/hid/disp/display.h ****     }
 3392              		.loc 9 174 34 view .LVU767
 3393 03da D8F80030 		ldr	r3, [r8]
 173:../../libDaisy//src/hid/disp/display.h ****         currentY_ = (y >= Height()) ? Height() - 1 : y;
 3394              		.loc 9 173 19 view .LVU768
 3395 03de 87B2     		uxth	r7, r0
 3396 03e0 61E6     		b	.L150
 3397              	.L215:
 3398 03e2 00BF     		.align	2
 3399              	.L214:
 3400 03e4 00000000 		.word	_ZNK5daisy11OledDisplayINS_13SSD130xDriverILj128ELj64ENS_19SSD130xI2CTransportEEEE5WidthEv
 3401 03e8 00000000 		.word	_ZNK5daisy11OledDisplayINS_13SSD130xDriverILj128ELj64ENS_19SSD130xI2CTransportEEEE6HeightEv
 3402              	.LBE1107:
 3403              	.LBE1182:
 3404              		.cfi_endproc
 3405              	.LFE5453:
 3407              		.section	.text._ZN5daisy11OledDisplayINS_13SSD130xDriverILj128ELj64ENS_19SSD130xI2CTransportEEEE9D
 3408              		.align	1
 3409              		.p2align 2,,3
 3410              		.weak	_ZN5daisy11OledDisplayINS_13SSD130xDriverILj128ELj64ENS_19SSD130xI2CTransportEEEE9DrawPixelE
 3411              		.syntax unified
 3412              		.thumb
 3413              		.thumb_func
 3414              		.fpu fpv5-d16
 3416              	_ZN5daisy11OledDisplayINS_13SSD130xDriverILj128ELj64ENS_19SSD130xI2CTransportEEEE9DrawPixelEjjb:
 3417              	.LVL218:
 3418              	.LFB5447:
  42:../../libDaisy//src/hid/disp/oled_display.h ****     {
 3419              		.loc 8 42 10 is_stmt 1 view -0
 3420              		.cfi_startproc
 3421              		@ args = 0, pretend = 0, frame = 0
 3422              		@ frame_needed = 0, uses_anonymous_args = 0
 3423              		@ link register save eliminated.
 3424              	.LBB1187:
 3425              	.LBI1187:
 352:../../libDaisy//src/dev/oled_ssd130x.h ****     {
 3426              		.loc 15 352 10 view .LVU770
 3427              	.LBB1188:
 354:../../libDaisy//src/dev/oled_ssd130x.h ****             return;
 3428              		.loc 15 354 9 is_stmt 0 view .LVU771
 3429 0000 7F29     		cmp	r1, #127
 3430 0002 1ED8     		bhi	.L216
 3431 0004 3F2A     		cmp	r2, #63
 3432 0006 1CD8     		bhi	.L216
 356:../../libDaisy//src/dev/oled_ssd130x.h ****             buffer_[x + (y / 8) * width] |= (1 << (y % 8));
 3433              		.loc 15 356 9 view .LVU772
 3434 0008 6BB1     		cbz	r3, .L218
 357:../../libDaisy//src/dev/oled_ssd130x.h ****         else
 3435              		.loc 15 357 28 view .LVU773
 3436 000a D308     		lsrs	r3, r2, #3
 3437              	.LVL219:
 357:../../libDaisy//src/dev/oled_ssd130x.h ****         else
 3438              		.loc 15 357 48 view .LVU774
 3439 000c 4FF0010C 		mov	ip, #1
 357:../../libDaisy//src/dev/oled_ssd130x.h ****         else
 3440              		.loc 15 357 54 view .LVU775
ARM GAS  /var/folders/hl/qgbwny5j0fd895c2c41bk3tw0000gp/T//cceIFtrC.s 			page 109


 3441 0010 02F00702 		and	r2, r2, #7
 3442              	.LVL220:
 357:../../libDaisy//src/dev/oled_ssd130x.h ****         else
 3443              		.loc 15 357 42 view .LVU776
 3444 0014 01EBC313 		add	r3, r1, r3, lsl #7
 357:../../libDaisy//src/dev/oled_ssd130x.h ****         else
 3445              		.loc 15 357 48 view .LVU777
 3446 0018 0CFA02F2 		lsl	r2, ip, r2
 357:../../libDaisy//src/dev/oled_ssd130x.h ****         else
 3447              		.loc 15 357 42 view .LVU778
 3448 001c C118     		adds	r1, r0, r3
 3449              	.LVL221:
 357:../../libDaisy//src/dev/oled_ssd130x.h ****         else
 3450              		.loc 15 357 42 view .LVU779
 3451 001e 0B7C     		ldrb	r3, [r1, #16]	@ zero_extendqisi2
 3452 0020 1A43     		orrs	r2, r2, r3
 3453 0022 0A74     		strb	r2, [r1, #16]
 3454 0024 7047     		bx	lr
 3455              	.LVL222:
 3456              	.L218:
 3457              	.LBB1189:
 3458              	.LBI1189:
 352:../../libDaisy//src/dev/oled_ssd130x.h ****     {
 3459              		.loc 15 352 10 is_stmt 1 view .LVU780
 3460              	.LBB1190:
 359:../../libDaisy//src/dev/oled_ssd130x.h ****     }
 3461              		.loc 15 359 28 is_stmt 0 view .LVU781
 3462 0026 D308     		lsrs	r3, r2, #3
 3463              	.LVL223:
 359:../../libDaisy//src/dev/oled_ssd130x.h ****     }
 3464              		.loc 15 359 49 view .LVU782
 3465 0028 4FF0010C 		mov	ip, #1
 359:../../libDaisy//src/dev/oled_ssd130x.h ****     }
 3466              		.loc 15 359 55 view .LVU783
 3467 002c 02F00702 		and	r2, r2, #7
 3468              	.LVL224:
 359:../../libDaisy//src/dev/oled_ssd130x.h ****     }
 3469              		.loc 15 359 42 view .LVU784
 3470 0030 01EBC313 		add	r3, r1, r3, lsl #7
 359:../../libDaisy//src/dev/oled_ssd130x.h ****     }
 3471              		.loc 15 359 49 view .LVU785
 3472 0034 0CFA02FC 		lsl	ip, ip, r2
 359:../../libDaisy//src/dev/oled_ssd130x.h ****     }
 3473              		.loc 15 359 42 view .LVU786
 3474 0038 C118     		adds	r1, r0, r3
 3475              	.LVL225:
 359:../../libDaisy//src/dev/oled_ssd130x.h ****     }
 3476              		.loc 15 359 42 view .LVU787
 3477 003a 0A7C     		ldrb	r2, [r1, #16]	@ zero_extendqisi2
 3478 003c 22EA0C02 		bic	r2, r2, ip
 3479 0040 0A74     		strb	r2, [r1, #16]
 3480              	.LVL226:
 3481              	.L216:
 359:../../libDaisy//src/dev/oled_ssd130x.h ****     }
 3482              		.loc 15 359 42 view .LVU788
 3483              	.LBE1190:
 3484              	.LBE1189:
ARM GAS  /var/folders/hl/qgbwny5j0fd895c2c41bk3tw0000gp/T//cceIFtrC.s 			page 110


 3485              	.LBE1188:
 3486              	.LBE1187:
  45:../../libDaisy//src/hid/disp/oled_display.h **** 
 3487              		.loc 8 45 5 view .LVU789
 3488 0042 7047     		bx	lr
 3489              		.cfi_endproc
 3490              	.LFE5447:
 3492              		.section	.text._ZN5daisy25OneBitGraphicsDisplayImplINS_11OledDisplayINS_13SSD130xDriverILj128ELj64
 3493              		.align	1
 3494              		.p2align 2,,3
 3495              		.weak	_ZN5daisy25OneBitGraphicsDisplayImplINS_11OledDisplayINS_13SSD130xDriverILj128ELj64ENS_19SSD
 3496              		.syntax unified
 3497              		.thumb
 3498              		.thumb_func
 3499              		.fpu fpv5-d16
 3501              	_ZN5daisy25OneBitGraphicsDisplayImplINS_11OledDisplayINS_13SSD130xDriverILj128ELj64ENS_19SSD130xI2C
 3502              	.LVL227:
 3503              	.LFB5448:
 221:../../libDaisy//src/hid/disp/display.h ****                   uint_fast8_t y1,
 3504              		.loc 9 221 10 is_stmt 1 view -0
 3505              		.cfi_startproc
 3506              		@ args = 8, pretend = 0, frame = 8
 3507              		@ frame_needed = 0, uses_anonymous_args = 0
 221:../../libDaisy//src/hid/disp/display.h ****                   uint_fast8_t y1,
 3508              		.loc 9 221 10 is_stmt 0 view .LVU791
 3509 0000 2DE9F04F 		push	{r4, r5, r6, r7, r8, r9, r10, fp, lr}
 3510              		.cfi_def_cfa_offset 36
 3511              		.cfi_offset 4, -36
 3512              		.cfi_offset 5, -32
 3513              		.cfi_offset 6, -28
 3514              		.cfi_offset 7, -24
 3515              		.cfi_offset 8, -20
 3516              		.cfi_offset 9, -16
 3517              		.cfi_offset 10, -12
 3518              		.cfi_offset 11, -8
 3519              		.cfi_offset 14, -4
 3520 0004 83B0     		sub	sp, sp, #12
 3521              		.cfi_def_cfa_offset 48
 227:../../libDaisy//src/hid/disp/display.h ****         int_fast16_t deltaY = abs((int_fast16_t)y2 - (int_fast16_t)y1);
 3522              		.loc 9 227 52 view .LVU792
 3523 0006 5C1A     		subs	r4, r3, r1
 221:../../libDaisy//src/hid/disp/display.h ****                   uint_fast8_t y1,
 3524              		.loc 9 221 10 view .LVU793
 3525 0008 0C9E     		ldr	r6, [sp, #48]
 227:../../libDaisy//src/hid/disp/display.h ****         int_fast16_t deltaY = abs((int_fast16_t)y2 - (int_fast16_t)y1);
 3526              		.loc 9 227 22 view .LVU794
 3527 000a 002C     		cmp	r4, #0
 221:../../libDaisy//src/hid/disp/display.h ****                   uint_fast8_t y1,
 3528              		.loc 9 221 10 view .LVU795
 3529 000c 9DF83490 		ldrb	r9, [sp, #52]	@ zero_extendqisi2
 228:../../libDaisy//src/hid/disp/display.h ****         int_fast16_t signX  = ((x1 < x2) ? 1 : -1);
 3530              		.loc 9 228 52 view .LVU796
 3531 0010 A6EB0208 		sub	r8, r6, r2
 227:../../libDaisy//src/hid/disp/display.h ****         int_fast16_t deltaY = abs((int_fast16_t)y2 - (int_fast16_t)y1);
 3532              		.loc 9 227 22 view .LVU797
 3533 0014 B8BF     		it	lt
 3534 0016 6442     		rsblt	r4, r4, #0
ARM GAS  /var/folders/hl/qgbwny5j0fd895c2c41bk3tw0000gp/T//cceIFtrC.s 			page 111


 3535              	.LVL228:
 228:../../libDaisy//src/hid/disp/display.h ****         int_fast16_t signX  = ((x1 < x2) ? 1 : -1);
 3536              		.loc 9 228 22 view .LVU798
 3537 0018 B8F1000F 		cmp	r8, #0
 3538 001c B8BF     		it	lt
 3539 001e C8F10008 		rsblt	r8, r8, #0
 3540              	.LVL229:
 229:../../libDaisy//src/hid/disp/display.h ****         int_fast16_t signY  = ((y1 < y2) ? 1 : -1);
 3541              		.loc 9 229 42 view .LVU799
 3542 0022 8B42     		cmp	r3, r1
 3543 0024 8CBF     		ite	hi
 3544 0026 4FF0010A 		movhi	r10, #1
 3545 002a 4FF0FF3A 		movls	r10, #-1
 3546              	.LVL230:
 230:../../libDaisy//src/hid/disp/display.h ****         int_fast16_t error  = deltaX - deltaY;
 3547              		.loc 9 230 42 view .LVU800
 3548 002e 9642     		cmp	r6, r2
 231:../../libDaisy//src/hid/disp/display.h ****         int_fast16_t error2;
 3549              		.loc 9 231 22 view .LVU801
 3550 0030 A4EB080C 		sub	ip, r4, r8
 230:../../libDaisy//src/hid/disp/display.h ****         int_fast16_t error  = deltaX - deltaY;
 3551              		.loc 9 230 42 view .LVU802
 3552 0034 51D8     		bhi	.L221
 3553              	.LVL231:
 3554              	.LBB1207:
 3555              	.LBI1207:
  42:../../libDaisy//src/hid/disp/oled_display.h ****     {
 3556              		.loc 8 42 10 is_stmt 1 discriminator 4 view .LVU803
 3557              	.LBB1208:
 3558              	.LBI1208:
 352:../../libDaisy//src/dev/oled_ssd130x.h ****     {
 3559              		.loc 15 352 10 discriminator 4 view .LVU804
 3560              	.LBE1208:
 3561              	.LBE1207:
 230:../../libDaisy//src/hid/disp/display.h ****         int_fast16_t error  = deltaX - deltaY;
 3562              		.loc 9 230 42 is_stmt 0 discriminator 4 view .LVU805
 3563 0036 4FF0FF35 		mov	r5, #-1
 3564              	.LBB1224:
 3565              	.LBB1218:
 3566              	.LBB1209:
 354:../../libDaisy//src/dev/oled_ssd130x.h ****             return;
 3567              		.loc 15 354 9 discriminator 4 view .LVU806
 3568 003a 7F2B     		cmp	r3, #127
 3569              	.LBE1209:
 3570              	.LBE1218:
 3571              	.LBE1224:
 230:../../libDaisy//src/hid/disp/display.h ****         int_fast16_t error  = deltaX - deltaY;
 3572              		.loc 9 230 42 discriminator 4 view .LVU807
 3573 003c 0195     		str	r5, [sp, #4]
 3574              	.LBB1225:
 3575              	.LBB1219:
 3576              	.LBB1214:
 354:../../libDaisy//src/dev/oled_ssd130x.h ****             return;
 3577              		.loc 15 354 9 discriminator 4 view .LVU808
 3578 003e 12D8     		bhi	.L222
 3579 0040 3F2E     		cmp	r6, #63
 3580 0042 10D8     		bhi	.L222
ARM GAS  /var/folders/hl/qgbwny5j0fd895c2c41bk3tw0000gp/T//cceIFtrC.s 			page 112


 3581              	.LVL232:
 3582              	.L233:
 357:../../libDaisy//src/dev/oled_ssd130x.h ****         else
 3583              		.loc 15 357 28 view .LVU809
 3584 0044 F508     		lsrs	r5, r6, #3
 357:../../libDaisy//src/dev/oled_ssd130x.h ****         else
 3585              		.loc 15 357 54 view .LVU810
 3586 0046 06F0070E 		and	lr, r6, #7
 357:../../libDaisy//src/dev/oled_ssd130x.h ****         else
 3587              		.loc 15 357 48 view .LVU811
 3588 004a 0127     		movs	r7, #1
 357:../../libDaisy//src/dev/oled_ssd130x.h ****         else
 3589              		.loc 15 357 42 view .LVU812
 3590 004c 03EBC515 		add	r5, r3, r5, lsl #7
 3591 0050 0544     		add	r5, r5, r0
 356:../../libDaisy//src/dev/oled_ssd130x.h ****             buffer_[x + (y / 8) * width] |= (1 << (y % 8));
 3592              		.loc 15 356 9 view .LVU813
 3593 0052 B9F1000F 		cmp	r9, #0
 3594 0056 47D0     		beq	.L223
 357:../../libDaisy//src/dev/oled_ssd130x.h ****         else
 3595              		.loc 15 357 48 view .LVU814
 3596 0058 07FA0EF7 		lsl	r7, r7, lr
 357:../../libDaisy//src/dev/oled_ssd130x.h ****         else
 3597              		.loc 15 357 42 view .LVU815
 3598 005c 95F810E0 		ldrb	lr, [r5, #16]	@ zero_extendqisi2
 3599 0060 47EA0E07 		orr	r7, r7, lr
 3600 0064 2F74     		strb	r7, [r5, #16]
 3601              	.LVL233:
 3602              	.L222:
 357:../../libDaisy//src/dev/oled_ssd130x.h ****         else
 3603              		.loc 15 357 42 view .LVU816
 3604              	.LBE1214:
 3605              	.LBE1219:
 3606              	.LBE1225:
 239:../../libDaisy//src/hid/disp/display.h ****         {
 3607              		.loc 9 239 26 is_stmt 1 view .LVU817
 3608 0066 9642     		cmp	r6, r2
 3609 0068 01D1     		bne	.L226
 3610              	.L245:
 239:../../libDaisy//src/hid/disp/display.h ****         {
 3611              		.loc 9 239 26 is_stmt 0 view .LVU818
 3612 006a 8B42     		cmp	r3, r1
 3613 006c 29D0     		beq	.L219
 3614              	.L226:
 3615              	.LVL234:
 243:../../libDaisy//src/hid/disp/display.h ****             {
 3616              		.loc 9 243 23 view .LVU819
 3617 006e C8F10007 		rsb	r7, r8, #0
 3618              	.L228:
 3619              	.LVL235:
 3620              	.LBB1226:
 3621              	.LBI1226:
  42:../../libDaisy//src/hid/disp/oled_display.h ****     {
 3622              		.loc 8 42 10 is_stmt 1 view .LVU820
 3623              	.LBB1227:
 3624              	.LBI1227:
 352:../../libDaisy//src/dev/oled_ssd130x.h ****     {
ARM GAS  /var/folders/hl/qgbwny5j0fd895c2c41bk3tw0000gp/T//cceIFtrC.s 			page 113


 3625              		.loc 15 352 10 view .LVU821
 3626              	.LBB1228:
 354:../../libDaisy//src/dev/oled_ssd130x.h ****             return;
 3627              		.loc 15 354 9 is_stmt 0 view .LVU822
 3628 0072 7F29     		cmp	r1, #127
 3629 0074 14D8     		bhi	.L229
 3630 0076 3F2A     		cmp	r2, #63
 3631 0078 12D8     		bhi	.L229
 357:../../libDaisy//src/dev/oled_ssd130x.h ****         else
 3632              		.loc 15 357 28 view .LVU823
 3633 007a D508     		lsrs	r5, r2, #3
 357:../../libDaisy//src/dev/oled_ssd130x.h ****         else
 3634              		.loc 15 357 54 view .LVU824
 3635 007c 02F0070B 		and	fp, r2, #7
 357:../../libDaisy//src/dev/oled_ssd130x.h ****         else
 3636              		.loc 15 357 48 view .LVU825
 3637 0080 4FF0010E 		mov	lr, #1
 357:../../libDaisy//src/dev/oled_ssd130x.h ****         else
 3638              		.loc 15 357 42 view .LVU826
 3639 0084 01EBC515 		add	r5, r1, r5, lsl #7
 3640 0088 0544     		add	r5, r5, r0
 356:../../libDaisy//src/dev/oled_ssd130x.h ****             buffer_[x + (y / 8) * width] |= (1 << (y % 8));
 3641              		.loc 15 356 9 view .LVU827
 3642 008a B9F1000F 		cmp	r9, #0
 3643 008e 1BD0     		beq	.L230
 357:../../libDaisy//src/dev/oled_ssd130x.h ****         else
 3644              		.loc 15 357 48 view .LVU828
 3645 0090 0EFA0BFE 		lsl	lr, lr, fp
 357:../../libDaisy//src/dev/oled_ssd130x.h ****         else
 3646              		.loc 15 357 42 view .LVU829
 3647 0094 95F810B0 		ldrb	fp, [r5, #16]	@ zero_extendqisi2
 3648 0098 4EEA0B0E 		orr	lr, lr, fp
 3649 009c 85F810E0 		strb	lr, [r5, #16]
 3650              	.L229:
 3651              	.LVL236:
 357:../../libDaisy//src/dev/oled_ssd130x.h ****         else
 3652              		.loc 15 357 42 view .LVU830
 3653              	.LBE1228:
 3654              	.LBE1227:
 3655              	.LBE1226:
 243:../../libDaisy//src/hid/disp/display.h ****             {
 3656              		.loc 9 243 13 view .LVU831
 3657 00a0 B7EB4C0F 		cmp	r7, ip, lsl #1
 242:../../libDaisy//src/hid/disp/display.h ****             if(error2 > -deltaY)
 3658              		.loc 9 242 20 view .LVU832
 3659 00a4 4FEA4C05 		lsl	r5, ip, #1
 3660              	.LVL237:
 243:../../libDaisy//src/hid/disp/display.h ****             {
 3661              		.loc 9 243 13 view .LVU833
 3662 00a8 02DA     		bge	.L231
 245:../../libDaisy//src/hid/disp/display.h ****                 x1 += signX;
 3663              		.loc 9 245 23 view .LVU834
 3664 00aa ACEB080C 		sub	ip, ip, r8
 3665              	.LVL238:
 246:../../libDaisy//src/hid/disp/display.h ****             }
 3666              		.loc 9 246 20 view .LVU835
 3667 00ae 5144     		add	r1, r1, r10
ARM GAS  /var/folders/hl/qgbwny5j0fd895c2c41bk3tw0000gp/T//cceIFtrC.s 			page 114


 3668              	.LVL239:
 3669              	.L231:
 249:../../libDaisy//src/hid/disp/display.h ****             {
 3670              		.loc 9 249 13 view .LVU836
 3671 00b0 AC42     		cmp	r4, r5
 3672 00b2 02DD     		ble	.L232
 252:../../libDaisy//src/hid/disp/display.h ****             }
 3673              		.loc 9 252 20 view .LVU837
 3674 00b4 019D     		ldr	r5, [sp, #4]
 3675              	.LVL240:
 251:../../libDaisy//src/hid/disp/display.h ****                 y1 += signY;
 3676              		.loc 9 251 23 view .LVU838
 3677 00b6 A444     		add	ip, ip, r4
 3678              	.LVL241:
 252:../../libDaisy//src/hid/disp/display.h ****             }
 3679              		.loc 9 252 20 view .LVU839
 3680 00b8 2A44     		add	r2, r2, r5
 3681              	.LVL242:
 3682              	.L232:
 239:../../libDaisy//src/hid/disp/display.h ****         {
 3683              		.loc 9 239 26 is_stmt 1 view .LVU840
 3684 00ba 9942     		cmp	r1, r3
 3685 00bc D9D1     		bne	.L228
 239:../../libDaisy//src/hid/disp/display.h ****         {
 3686              		.loc 9 239 26 is_stmt 0 view .LVU841
 3687 00be 9642     		cmp	r6, r2
 3688 00c0 D7D1     		bne	.L228
 3689              	.L219:
 255:../../libDaisy//src/hid/disp/display.h **** 
 3690              		.loc 9 255 5 view .LVU842
 3691 00c2 03B0     		add	sp, sp, #12
 3692              		.cfi_remember_state
 3693              		.cfi_def_cfa_offset 36
 3694              		@ sp needed
 3695 00c4 BDE8F08F 		pop	{r4, r5, r6, r7, r8, r9, r10, fp, pc}
 3696              	.LVL243:
 3697              	.L230:
 3698              		.cfi_restore_state
 3699              	.LBB1233:
 3700              	.LBB1232:
 3701              	.LBB1231:
 3702              	.LBB1229:
 3703              	.LBI1229:
 352:../../libDaisy//src/dev/oled_ssd130x.h ****     {
 3704              		.loc 15 352 10 is_stmt 1 view .LVU843
 3705              	.LBB1230:
 359:../../libDaisy//src/dev/oled_ssd130x.h ****     }
 3706              		.loc 15 359 49 is_stmt 0 view .LVU844
 3707 00c8 0EFA0BFB 		lsl	fp, lr, fp
 359:../../libDaisy//src/dev/oled_ssd130x.h ****     }
 3708              		.loc 15 359 42 view .LVU845
 3709 00cc 95F810E0 		ldrb	lr, [r5, #16]	@ zero_extendqisi2
 3710 00d0 2EEA0B0E 		bic	lr, lr, fp
 3711 00d4 85F810E0 		strb	lr, [r5, #16]
 3712 00d8 E2E7     		b	.L229
 3713              	.LVL244:
 3714              	.L221:
ARM GAS  /var/folders/hl/qgbwny5j0fd895c2c41bk3tw0000gp/T//cceIFtrC.s 			page 115


 359:../../libDaisy//src/dev/oled_ssd130x.h ****     }
 3715              		.loc 15 359 42 view .LVU846
 3716              	.LBE1230:
 3717              	.LBE1229:
 3718              	.LBE1231:
 3719              	.LBE1232:
 3720              	.LBE1233:
 3721              	.LBB1234:
  42:../../libDaisy//src/hid/disp/oled_display.h ****     {
 3722              		.loc 8 42 10 is_stmt 1 view .LVU847
 3723              	.LBB1220:
 352:../../libDaisy//src/dev/oled_ssd130x.h ****     {
 3724              		.loc 15 352 10 view .LVU848
 3725              	.LBE1220:
 3726              	.LBE1234:
 230:../../libDaisy//src/hid/disp/display.h ****         int_fast16_t error  = deltaX - deltaY;
 3727              		.loc 9 230 42 is_stmt 0 view .LVU849
 3728 00da 0125     		movs	r5, #1
 3729              	.LBB1235:
 3730              	.LBB1221:
 3731              	.LBB1215:
 354:../../libDaisy//src/dev/oled_ssd130x.h ****             return;
 3732              		.loc 15 354 9 view .LVU850
 3733 00dc 7F2B     		cmp	r3, #127
 3734              	.LBE1215:
 3735              	.LBE1221:
 3736              	.LBE1235:
 230:../../libDaisy//src/hid/disp/display.h ****         int_fast16_t error  = deltaX - deltaY;
 3737              		.loc 9 230 42 view .LVU851
 3738 00de 0195     		str	r5, [sp, #4]
 3739              	.LBB1236:
 3740              	.LBB1222:
 3741              	.LBB1216:
 354:../../libDaisy//src/dev/oled_ssd130x.h ****             return;
 3742              		.loc 15 354 9 view .LVU852
 3743 00e0 C5D8     		bhi	.L226
 3744 00e2 3F2E     		cmp	r6, #63
 3745 00e4 AED9     		bls	.L233
 3746 00e6 C2E7     		b	.L226
 3747              	.LVL245:
 3748              	.L223:
 3749              	.LBB1210:
 3750              	.LBI1210:
 352:../../libDaisy//src/dev/oled_ssd130x.h ****     {
 3751              		.loc 15 352 10 is_stmt 1 view .LVU853
 3752              	.LBB1211:
 359:../../libDaisy//src/dev/oled_ssd130x.h ****     }
 3753              		.loc 15 359 49 is_stmt 0 view .LVU854
 3754 00e8 07FA0EFE 		lsl	lr, r7, lr
 359:../../libDaisy//src/dev/oled_ssd130x.h ****     }
 3755              		.loc 15 359 42 view .LVU855
 3756 00ec 2F7C     		ldrb	r7, [r5, #16]	@ zero_extendqisi2
 3757              	.LBE1211:
 3758              	.LBE1210:
 3759              	.LBE1216:
 3760              	.LBE1222:
 3761              	.LBE1236:
ARM GAS  /var/folders/hl/qgbwny5j0fd895c2c41bk3tw0000gp/T//cceIFtrC.s 			page 116


 239:../../libDaisy//src/hid/disp/display.h ****         {
 3762              		.loc 9 239 26 view .LVU856
 3763 00ee 9642     		cmp	r6, r2
 3764              	.LBB1237:
 3765              	.LBB1223:
 3766              	.LBB1217:
 3767              	.LBB1213:
 3768              	.LBB1212:
 359:../../libDaisy//src/dev/oled_ssd130x.h ****     }
 3769              		.loc 15 359 42 view .LVU857
 3770 00f0 27EA0E07 		bic	r7, r7, lr
 3771 00f4 2F74     		strb	r7, [r5, #16]
 3772              	.LVL246:
 359:../../libDaisy//src/dev/oled_ssd130x.h ****     }
 3773              		.loc 15 359 42 view .LVU858
 3774              	.LBE1212:
 3775              	.LBE1213:
 3776              	.LBE1217:
 3777              	.LBE1223:
 3778              	.LBE1237:
 239:../../libDaisy//src/hid/disp/display.h ****         {
 3779              		.loc 9 239 26 is_stmt 1 view .LVU859
 3780 00f6 B8D0     		beq	.L245
 3781 00f8 B9E7     		b	.L226
 3782              		.cfi_endproc
 3783              	.LFE5448:
 3785 00fa 00BF     		.section	.text._ZN5daisy25OneBitGraphicsDisplayImplINS_11OledDisplayINS_13SSD130xDriverILj128ELj64
 3786              		.align	1
 3787              		.p2align 2,,3
 3788              		.weak	_ZN5daisy25OneBitGraphicsDisplayImplINS_11OledDisplayINS_13SSD130xDriverILj128ELj64ENS_19SSD
 3789              		.syntax unified
 3790              		.thumb
 3791              		.thumb_func
 3792              		.fpu fpv5-d16
 3794              	_ZN5daisy25OneBitGraphicsDisplayImplINS_11OledDisplayINS_13SSD130xDriverILj128ELj64ENS_19SSD130xI2C
 3795              	.LVL247:
 3796              	.LFB5450:
 283:../../libDaisy//src/hid/disp/display.h ****                  uint_fast8_t y,
 3797              		.loc 9 283 10 view -0
 3798              		.cfi_startproc
 3799              		@ args = 12, pretend = 0, frame = 8
 3800              		@ frame_needed = 0, uses_anonymous_args = 0
 283:../../libDaisy//src/hid/disp/display.h ****                  uint_fast8_t y,
 3801              		.loc 9 283 10 is_stmt 0 view .LVU861
 3802 0000 2DE9F04F 		push	{r4, r5, r6, r7, r8, r9, r10, fp, lr}
 3803              		.cfi_def_cfa_offset 36
 3804              		.cfi_offset 4, -36
 3805              		.cfi_offset 5, -32
 3806              		.cfi_offset 6, -28
 3807              		.cfi_offset 7, -24
 3808              		.cfi_offset 8, -20
 3809              		.cfi_offset 9, -16
 3810              		.cfi_offset 10, -12
 3811              		.cfi_offset 11, -8
 3812              		.cfi_offset 14, -4
 3813 0004 2DED068B 		vpush.64	{d8, d9, d10}
 3814              		.cfi_def_cfa_offset 60
ARM GAS  /var/folders/hl/qgbwny5j0fd895c2c41bk3tw0000gp/T//cceIFtrC.s 			page 117


 3815              		.cfi_offset 80, -60
 3816              		.cfi_offset 81, -56
 3817              		.cfi_offset 82, -52
 3818              		.cfi_offset 83, -48
 3819              		.cfi_offset 84, -44
 3820              		.cfi_offset 85, -40
 3821 0008 83B0     		sub	sp, sp, #12
 3822              		.cfi_def_cfa_offset 72
 283:../../libDaisy//src/hid/disp/display.h ****                  uint_fast8_t y,
 3823              		.loc 9 283 10 view .LVU862
 3824 000a 1F46     		mov	r7, r3
 3825 000c 8046     		mov	r8, r0
 3826 000e 0D46     		mov	r5, r1
 3827 0010 9DF85030 		ldrb	r3, [sp, #80]	@ zero_extendqisi2
 3828              	.LVL248:
 283:../../libDaisy//src/hid/disp/display.h ****                  uint_fast8_t y,
 3829              		.loc 9 283 10 view .LVU863
 3830 0014 1646     		mov	r6, r2
 3831 0016 0193     		str	r3, [sp, #4]
 306:../../libDaisy//src/hid/disp/display.h ****         {
 3832              		.loc 9 306 9 view .LVU864
 3833 0018 139B     		ldr	r3, [sp, #76]
 3834 001a 002B     		cmp	r3, #0
 3835 001c C0F22182 		blt	.L247
 313:../../libDaisy//src/hid/disp/display.h **** 
 3836              		.loc 9 313 27 view .LVU865
 3837 0020 129A     		ldr	r2, [sp, #72]
 3838              	.LVL249:
 313:../../libDaisy//src/hid/disp/display.h **** 
 3839              		.loc 9 313 27 view .LVU866
 3840 0022 1344     		add	r3, r3, r2
 3841 0024 06EE103A 		vmov	s12, r3	@ int
 3842              	.LVL250:
 3843              	.L248:
 312:../../libDaisy//src/hid/disp/display.h ****         end_angle_rad   = deg2rad(start_angle + sweep);
 3844              		.loc 9 312 27 view .LVU867
 3845 0028 DDED127A 		vldr.32	s15, [sp, #72]	@ int
 313:../../libDaisy//src/hid/disp/display.h **** 
 3846              		.loc 9 313 27 view .LVU868
 3847 002c B8EEC66B 		vcvt.f64.s32	d6, s12
 312:../../libDaisy//src/hid/disp/display.h ****         end_angle_rad   = deg2rad(start_angle + sweep);
 3848              		.loc 9 312 27 view .LVU869
 3849 0030 9FEDCD4B 		vldr.64	d4, .L323
 3850 0034 B8EEE77B 		vcvt.f64.s32	d7, s15
 3851 0038 9FEDCD5B 		vldr.64	d5, .L323+8
 3852 003c 27EE047B 		vmul.f64	d7, d7, d4
 313:../../libDaisy//src/hid/disp/display.h **** 
 3853              		.loc 9 313 27 view .LVU870
 3854 0040 26EE046B 		vmul.f64	d6, d6, d4
 312:../../libDaisy//src/hid/disp/display.h ****         end_angle_rad   = deg2rad(start_angle + sweep);
 3855              		.loc 9 312 27 view .LVU871
 3856 0044 87EE050B 		vdiv.f64	d0, d7, d5
 313:../../libDaisy//src/hid/disp/display.h **** 
 3857              		.loc 9 313 27 view .LVU872
 3858 0048 86EE05AB 		vdiv.f64	d10, d6, d5
 312:../../libDaisy//src/hid/disp/display.h ****         end_angle_rad   = deg2rad(start_angle + sweep);
 3859              		.loc 9 312 25 view .LVU873
ARM GAS  /var/folders/hl/qgbwny5j0fd895c2c41bk3tw0000gp/T//cceIFtrC.s 			page 118


 3860 004c F7EEC08B 		vcvt.f32.f64	s17, d0
 3861              	.LVL251:
 3862              	.LBB1270:
 3863              	.LBB1271:
 3864              		.file 19 "/opt/homebrew/Cellar/arm-none-eabi-gcc/10.3-2021.07/gcc/arm-none-eabi/include/c++/10.3.1
   1:/opt/homebrew/Cellar/arm-none-eabi-gcc/10.3-2021.07/gcc/arm-none-eabi/include/c++/10.3.1/cmath **** // -*- C++ -*- C forwarding header.
   2:/opt/homebrew/Cellar/arm-none-eabi-gcc/10.3-2021.07/gcc/arm-none-eabi/include/c++/10.3.1/cmath **** 
   3:/opt/homebrew/Cellar/arm-none-eabi-gcc/10.3-2021.07/gcc/arm-none-eabi/include/c++/10.3.1/cmath **** // Copyright (C) 1997-2020 Free Software Foundation, Inc.
   4:/opt/homebrew/Cellar/arm-none-eabi-gcc/10.3-2021.07/gcc/arm-none-eabi/include/c++/10.3.1/cmath **** //
   5:/opt/homebrew/Cellar/arm-none-eabi-gcc/10.3-2021.07/gcc/arm-none-eabi/include/c++/10.3.1/cmath **** // This file is part of the GNU ISO C++ Library.  This library is free
   6:/opt/homebrew/Cellar/arm-none-eabi-gcc/10.3-2021.07/gcc/arm-none-eabi/include/c++/10.3.1/cmath **** // software; you can redistribute it and/or modify it under the
   7:/opt/homebrew/Cellar/arm-none-eabi-gcc/10.3-2021.07/gcc/arm-none-eabi/include/c++/10.3.1/cmath **** // terms of the GNU General Public License as published by the
   8:/opt/homebrew/Cellar/arm-none-eabi-gcc/10.3-2021.07/gcc/arm-none-eabi/include/c++/10.3.1/cmath **** // Free Software Foundation; either version 3, or (at your option)
   9:/opt/homebrew/Cellar/arm-none-eabi-gcc/10.3-2021.07/gcc/arm-none-eabi/include/c++/10.3.1/cmath **** // any later version.
  10:/opt/homebrew/Cellar/arm-none-eabi-gcc/10.3-2021.07/gcc/arm-none-eabi/include/c++/10.3.1/cmath **** 
  11:/opt/homebrew/Cellar/arm-none-eabi-gcc/10.3-2021.07/gcc/arm-none-eabi/include/c++/10.3.1/cmath **** // This library is distributed in the hope that it will be useful,
  12:/opt/homebrew/Cellar/arm-none-eabi-gcc/10.3-2021.07/gcc/arm-none-eabi/include/c++/10.3.1/cmath **** // but WITHOUT ANY WARRANTY; without even the implied warranty of
  13:/opt/homebrew/Cellar/arm-none-eabi-gcc/10.3-2021.07/gcc/arm-none-eabi/include/c++/10.3.1/cmath **** // MERCHANTABILITY or FITNESS FOR A PARTICULAR PURPOSE.  See the
  14:/opt/homebrew/Cellar/arm-none-eabi-gcc/10.3-2021.07/gcc/arm-none-eabi/include/c++/10.3.1/cmath **** // GNU General Public License for more details.
  15:/opt/homebrew/Cellar/arm-none-eabi-gcc/10.3-2021.07/gcc/arm-none-eabi/include/c++/10.3.1/cmath **** 
  16:/opt/homebrew/Cellar/arm-none-eabi-gcc/10.3-2021.07/gcc/arm-none-eabi/include/c++/10.3.1/cmath **** // Under Section 7 of GPL version 3, you are granted additional
  17:/opt/homebrew/Cellar/arm-none-eabi-gcc/10.3-2021.07/gcc/arm-none-eabi/include/c++/10.3.1/cmath **** // permissions described in the GCC Runtime Library Exception, version
  18:/opt/homebrew/Cellar/arm-none-eabi-gcc/10.3-2021.07/gcc/arm-none-eabi/include/c++/10.3.1/cmath **** // 3.1, as published by the Free Software Foundation.
  19:/opt/homebrew/Cellar/arm-none-eabi-gcc/10.3-2021.07/gcc/arm-none-eabi/include/c++/10.3.1/cmath **** 
  20:/opt/homebrew/Cellar/arm-none-eabi-gcc/10.3-2021.07/gcc/arm-none-eabi/include/c++/10.3.1/cmath **** // You should have received a copy of the GNU General Public License and
  21:/opt/homebrew/Cellar/arm-none-eabi-gcc/10.3-2021.07/gcc/arm-none-eabi/include/c++/10.3.1/cmath **** // a copy of the GCC Runtime Library Exception along with this program;
  22:/opt/homebrew/Cellar/arm-none-eabi-gcc/10.3-2021.07/gcc/arm-none-eabi/include/c++/10.3.1/cmath **** // see the files COPYING3 and COPYING.RUNTIME respectively.  If not, see
  23:/opt/homebrew/Cellar/arm-none-eabi-gcc/10.3-2021.07/gcc/arm-none-eabi/include/c++/10.3.1/cmath **** // <http://www.gnu.org/licenses/>.
  24:/opt/homebrew/Cellar/arm-none-eabi-gcc/10.3-2021.07/gcc/arm-none-eabi/include/c++/10.3.1/cmath **** 
  25:/opt/homebrew/Cellar/arm-none-eabi-gcc/10.3-2021.07/gcc/arm-none-eabi/include/c++/10.3.1/cmath **** /** @file include/cmath
  26:/opt/homebrew/Cellar/arm-none-eabi-gcc/10.3-2021.07/gcc/arm-none-eabi/include/c++/10.3.1/cmath ****  *  This is a Standard C++ Library file.  You should @c \#include this file
  27:/opt/homebrew/Cellar/arm-none-eabi-gcc/10.3-2021.07/gcc/arm-none-eabi/include/c++/10.3.1/cmath ****  *  in your programs, rather than any of the @a *.h implementation files.
  28:/opt/homebrew/Cellar/arm-none-eabi-gcc/10.3-2021.07/gcc/arm-none-eabi/include/c++/10.3.1/cmath ****  *
  29:/opt/homebrew/Cellar/arm-none-eabi-gcc/10.3-2021.07/gcc/arm-none-eabi/include/c++/10.3.1/cmath ****  *  This is the C++ version of the Standard C Library header @c math.h,
  30:/opt/homebrew/Cellar/arm-none-eabi-gcc/10.3-2021.07/gcc/arm-none-eabi/include/c++/10.3.1/cmath ****  *  and its contents are (mostly) the same as that header, but are all
  31:/opt/homebrew/Cellar/arm-none-eabi-gcc/10.3-2021.07/gcc/arm-none-eabi/include/c++/10.3.1/cmath ****  *  contained in the namespace @c std (except for names which are defined
  32:/opt/homebrew/Cellar/arm-none-eabi-gcc/10.3-2021.07/gcc/arm-none-eabi/include/c++/10.3.1/cmath ****  *  as macros in C).
  33:/opt/homebrew/Cellar/arm-none-eabi-gcc/10.3-2021.07/gcc/arm-none-eabi/include/c++/10.3.1/cmath ****  */
  34:/opt/homebrew/Cellar/arm-none-eabi-gcc/10.3-2021.07/gcc/arm-none-eabi/include/c++/10.3.1/cmath **** 
  35:/opt/homebrew/Cellar/arm-none-eabi-gcc/10.3-2021.07/gcc/arm-none-eabi/include/c++/10.3.1/cmath **** //
  36:/opt/homebrew/Cellar/arm-none-eabi-gcc/10.3-2021.07/gcc/arm-none-eabi/include/c++/10.3.1/cmath **** // ISO C++ 14882: 26.5  C library
  37:/opt/homebrew/Cellar/arm-none-eabi-gcc/10.3-2021.07/gcc/arm-none-eabi/include/c++/10.3.1/cmath **** //
  38:/opt/homebrew/Cellar/arm-none-eabi-gcc/10.3-2021.07/gcc/arm-none-eabi/include/c++/10.3.1/cmath **** 
  39:/opt/homebrew/Cellar/arm-none-eabi-gcc/10.3-2021.07/gcc/arm-none-eabi/include/c++/10.3.1/cmath **** #pragma GCC system_header
  40:/opt/homebrew/Cellar/arm-none-eabi-gcc/10.3-2021.07/gcc/arm-none-eabi/include/c++/10.3.1/cmath **** 
  41:/opt/homebrew/Cellar/arm-none-eabi-gcc/10.3-2021.07/gcc/arm-none-eabi/include/c++/10.3.1/cmath **** #include <bits/c++config.h>
  42:/opt/homebrew/Cellar/arm-none-eabi-gcc/10.3-2021.07/gcc/arm-none-eabi/include/c++/10.3.1/cmath **** #include <bits/cpp_type_traits.h>
  43:/opt/homebrew/Cellar/arm-none-eabi-gcc/10.3-2021.07/gcc/arm-none-eabi/include/c++/10.3.1/cmath **** #include <ext/type_traits.h>
  44:/opt/homebrew/Cellar/arm-none-eabi-gcc/10.3-2021.07/gcc/arm-none-eabi/include/c++/10.3.1/cmath **** #define _GLIBCXX_INCLUDE_NEXT_C_HEADERS
  45:/opt/homebrew/Cellar/arm-none-eabi-gcc/10.3-2021.07/gcc/arm-none-eabi/include/c++/10.3.1/cmath **** #include_next <math.h>
  46:/opt/homebrew/Cellar/arm-none-eabi-gcc/10.3-2021.07/gcc/arm-none-eabi/include/c++/10.3.1/cmath **** #undef _GLIBCXX_INCLUDE_NEXT_C_HEADERS
  47:/opt/homebrew/Cellar/arm-none-eabi-gcc/10.3-2021.07/gcc/arm-none-eabi/include/c++/10.3.1/cmath **** #include <bits/std_abs.h>
  48:/opt/homebrew/Cellar/arm-none-eabi-gcc/10.3-2021.07/gcc/arm-none-eabi/include/c++/10.3.1/cmath **** 
  49:/opt/homebrew/Cellar/arm-none-eabi-gcc/10.3-2021.07/gcc/arm-none-eabi/include/c++/10.3.1/cmath **** #ifndef _GLIBCXX_CMATH
  50:/opt/homebrew/Cellar/arm-none-eabi-gcc/10.3-2021.07/gcc/arm-none-eabi/include/c++/10.3.1/cmath **** #define _GLIBCXX_CMATH 1
  51:/opt/homebrew/Cellar/arm-none-eabi-gcc/10.3-2021.07/gcc/arm-none-eabi/include/c++/10.3.1/cmath **** 
  52:/opt/homebrew/Cellar/arm-none-eabi-gcc/10.3-2021.07/gcc/arm-none-eabi/include/c++/10.3.1/cmath **** // Get rid of those macros defined in <math.h> in lieu of real functions.
ARM GAS  /var/folders/hl/qgbwny5j0fd895c2c41bk3tw0000gp/T//cceIFtrC.s 			page 119


  53:/opt/homebrew/Cellar/arm-none-eabi-gcc/10.3-2021.07/gcc/arm-none-eabi/include/c++/10.3.1/cmath **** #undef div
  54:/opt/homebrew/Cellar/arm-none-eabi-gcc/10.3-2021.07/gcc/arm-none-eabi/include/c++/10.3.1/cmath **** #undef acos
  55:/opt/homebrew/Cellar/arm-none-eabi-gcc/10.3-2021.07/gcc/arm-none-eabi/include/c++/10.3.1/cmath **** #undef asin
  56:/opt/homebrew/Cellar/arm-none-eabi-gcc/10.3-2021.07/gcc/arm-none-eabi/include/c++/10.3.1/cmath **** #undef atan
  57:/opt/homebrew/Cellar/arm-none-eabi-gcc/10.3-2021.07/gcc/arm-none-eabi/include/c++/10.3.1/cmath **** #undef atan2
  58:/opt/homebrew/Cellar/arm-none-eabi-gcc/10.3-2021.07/gcc/arm-none-eabi/include/c++/10.3.1/cmath **** #undef ceil
  59:/opt/homebrew/Cellar/arm-none-eabi-gcc/10.3-2021.07/gcc/arm-none-eabi/include/c++/10.3.1/cmath **** #undef cos
  60:/opt/homebrew/Cellar/arm-none-eabi-gcc/10.3-2021.07/gcc/arm-none-eabi/include/c++/10.3.1/cmath **** #undef cosh
  61:/opt/homebrew/Cellar/arm-none-eabi-gcc/10.3-2021.07/gcc/arm-none-eabi/include/c++/10.3.1/cmath **** #undef exp
  62:/opt/homebrew/Cellar/arm-none-eabi-gcc/10.3-2021.07/gcc/arm-none-eabi/include/c++/10.3.1/cmath **** #undef fabs
  63:/opt/homebrew/Cellar/arm-none-eabi-gcc/10.3-2021.07/gcc/arm-none-eabi/include/c++/10.3.1/cmath **** #undef floor
  64:/opt/homebrew/Cellar/arm-none-eabi-gcc/10.3-2021.07/gcc/arm-none-eabi/include/c++/10.3.1/cmath **** #undef fmod
  65:/opt/homebrew/Cellar/arm-none-eabi-gcc/10.3-2021.07/gcc/arm-none-eabi/include/c++/10.3.1/cmath **** #undef frexp
  66:/opt/homebrew/Cellar/arm-none-eabi-gcc/10.3-2021.07/gcc/arm-none-eabi/include/c++/10.3.1/cmath **** #undef ldexp
  67:/opt/homebrew/Cellar/arm-none-eabi-gcc/10.3-2021.07/gcc/arm-none-eabi/include/c++/10.3.1/cmath **** #undef log
  68:/opt/homebrew/Cellar/arm-none-eabi-gcc/10.3-2021.07/gcc/arm-none-eabi/include/c++/10.3.1/cmath **** #undef log10
  69:/opt/homebrew/Cellar/arm-none-eabi-gcc/10.3-2021.07/gcc/arm-none-eabi/include/c++/10.3.1/cmath **** #undef modf
  70:/opt/homebrew/Cellar/arm-none-eabi-gcc/10.3-2021.07/gcc/arm-none-eabi/include/c++/10.3.1/cmath **** #undef pow
  71:/opt/homebrew/Cellar/arm-none-eabi-gcc/10.3-2021.07/gcc/arm-none-eabi/include/c++/10.3.1/cmath **** #undef sin
  72:/opt/homebrew/Cellar/arm-none-eabi-gcc/10.3-2021.07/gcc/arm-none-eabi/include/c++/10.3.1/cmath **** #undef sinh
  73:/opt/homebrew/Cellar/arm-none-eabi-gcc/10.3-2021.07/gcc/arm-none-eabi/include/c++/10.3.1/cmath **** #undef sqrt
  74:/opt/homebrew/Cellar/arm-none-eabi-gcc/10.3-2021.07/gcc/arm-none-eabi/include/c++/10.3.1/cmath **** #undef tan
  75:/opt/homebrew/Cellar/arm-none-eabi-gcc/10.3-2021.07/gcc/arm-none-eabi/include/c++/10.3.1/cmath **** #undef tanh
  76:/opt/homebrew/Cellar/arm-none-eabi-gcc/10.3-2021.07/gcc/arm-none-eabi/include/c++/10.3.1/cmath **** 
  77:/opt/homebrew/Cellar/arm-none-eabi-gcc/10.3-2021.07/gcc/arm-none-eabi/include/c++/10.3.1/cmath **** extern "C++"
  78:/opt/homebrew/Cellar/arm-none-eabi-gcc/10.3-2021.07/gcc/arm-none-eabi/include/c++/10.3.1/cmath **** {
  79:/opt/homebrew/Cellar/arm-none-eabi-gcc/10.3-2021.07/gcc/arm-none-eabi/include/c++/10.3.1/cmath **** namespace std _GLIBCXX_VISIBILITY(default)
  80:/opt/homebrew/Cellar/arm-none-eabi-gcc/10.3-2021.07/gcc/arm-none-eabi/include/c++/10.3.1/cmath **** {
  81:/opt/homebrew/Cellar/arm-none-eabi-gcc/10.3-2021.07/gcc/arm-none-eabi/include/c++/10.3.1/cmath **** _GLIBCXX_BEGIN_NAMESPACE_VERSION
  82:/opt/homebrew/Cellar/arm-none-eabi-gcc/10.3-2021.07/gcc/arm-none-eabi/include/c++/10.3.1/cmath **** 
  83:/opt/homebrew/Cellar/arm-none-eabi-gcc/10.3-2021.07/gcc/arm-none-eabi/include/c++/10.3.1/cmath ****   using ::acos;
  84:/opt/homebrew/Cellar/arm-none-eabi-gcc/10.3-2021.07/gcc/arm-none-eabi/include/c++/10.3.1/cmath **** 
  85:/opt/homebrew/Cellar/arm-none-eabi-gcc/10.3-2021.07/gcc/arm-none-eabi/include/c++/10.3.1/cmath **** #ifndef __CORRECT_ISO_CPP_MATH_H_PROTO
  86:/opt/homebrew/Cellar/arm-none-eabi-gcc/10.3-2021.07/gcc/arm-none-eabi/include/c++/10.3.1/cmath ****   inline _GLIBCXX_CONSTEXPR float
  87:/opt/homebrew/Cellar/arm-none-eabi-gcc/10.3-2021.07/gcc/arm-none-eabi/include/c++/10.3.1/cmath ****   acos(float __x)
  88:/opt/homebrew/Cellar/arm-none-eabi-gcc/10.3-2021.07/gcc/arm-none-eabi/include/c++/10.3.1/cmath ****   { return __builtin_acosf(__x); }
  89:/opt/homebrew/Cellar/arm-none-eabi-gcc/10.3-2021.07/gcc/arm-none-eabi/include/c++/10.3.1/cmath **** 
  90:/opt/homebrew/Cellar/arm-none-eabi-gcc/10.3-2021.07/gcc/arm-none-eabi/include/c++/10.3.1/cmath ****   inline _GLIBCXX_CONSTEXPR long double
  91:/opt/homebrew/Cellar/arm-none-eabi-gcc/10.3-2021.07/gcc/arm-none-eabi/include/c++/10.3.1/cmath ****   acos(long double __x)
  92:/opt/homebrew/Cellar/arm-none-eabi-gcc/10.3-2021.07/gcc/arm-none-eabi/include/c++/10.3.1/cmath ****   { return __builtin_acosl(__x); }
  93:/opt/homebrew/Cellar/arm-none-eabi-gcc/10.3-2021.07/gcc/arm-none-eabi/include/c++/10.3.1/cmath **** #endif
  94:/opt/homebrew/Cellar/arm-none-eabi-gcc/10.3-2021.07/gcc/arm-none-eabi/include/c++/10.3.1/cmath **** 
  95:/opt/homebrew/Cellar/arm-none-eabi-gcc/10.3-2021.07/gcc/arm-none-eabi/include/c++/10.3.1/cmath ****   template<typename _Tp>
  96:/opt/homebrew/Cellar/arm-none-eabi-gcc/10.3-2021.07/gcc/arm-none-eabi/include/c++/10.3.1/cmath ****     inline _GLIBCXX_CONSTEXPR
  97:/opt/homebrew/Cellar/arm-none-eabi-gcc/10.3-2021.07/gcc/arm-none-eabi/include/c++/10.3.1/cmath ****     typename __gnu_cxx::__enable_if<__is_integer<_Tp>::__value, 
  98:/opt/homebrew/Cellar/arm-none-eabi-gcc/10.3-2021.07/gcc/arm-none-eabi/include/c++/10.3.1/cmath ****                                     double>::__type
  99:/opt/homebrew/Cellar/arm-none-eabi-gcc/10.3-2021.07/gcc/arm-none-eabi/include/c++/10.3.1/cmath ****     acos(_Tp __x)
 100:/opt/homebrew/Cellar/arm-none-eabi-gcc/10.3-2021.07/gcc/arm-none-eabi/include/c++/10.3.1/cmath ****     { return __builtin_acos(__x); }
 101:/opt/homebrew/Cellar/arm-none-eabi-gcc/10.3-2021.07/gcc/arm-none-eabi/include/c++/10.3.1/cmath **** 
 102:/opt/homebrew/Cellar/arm-none-eabi-gcc/10.3-2021.07/gcc/arm-none-eabi/include/c++/10.3.1/cmath ****   using ::asin;
 103:/opt/homebrew/Cellar/arm-none-eabi-gcc/10.3-2021.07/gcc/arm-none-eabi/include/c++/10.3.1/cmath **** 
 104:/opt/homebrew/Cellar/arm-none-eabi-gcc/10.3-2021.07/gcc/arm-none-eabi/include/c++/10.3.1/cmath **** #ifndef __CORRECT_ISO_CPP_MATH_H_PROTO
 105:/opt/homebrew/Cellar/arm-none-eabi-gcc/10.3-2021.07/gcc/arm-none-eabi/include/c++/10.3.1/cmath ****   inline _GLIBCXX_CONSTEXPR float
 106:/opt/homebrew/Cellar/arm-none-eabi-gcc/10.3-2021.07/gcc/arm-none-eabi/include/c++/10.3.1/cmath ****   asin(float __x)
 107:/opt/homebrew/Cellar/arm-none-eabi-gcc/10.3-2021.07/gcc/arm-none-eabi/include/c++/10.3.1/cmath ****   { return __builtin_asinf(__x); }
 108:/opt/homebrew/Cellar/arm-none-eabi-gcc/10.3-2021.07/gcc/arm-none-eabi/include/c++/10.3.1/cmath **** 
 109:/opt/homebrew/Cellar/arm-none-eabi-gcc/10.3-2021.07/gcc/arm-none-eabi/include/c++/10.3.1/cmath ****   inline _GLIBCXX_CONSTEXPR long double
ARM GAS  /var/folders/hl/qgbwny5j0fd895c2c41bk3tw0000gp/T//cceIFtrC.s 			page 120


 110:/opt/homebrew/Cellar/arm-none-eabi-gcc/10.3-2021.07/gcc/arm-none-eabi/include/c++/10.3.1/cmath ****   asin(long double __x)
 111:/opt/homebrew/Cellar/arm-none-eabi-gcc/10.3-2021.07/gcc/arm-none-eabi/include/c++/10.3.1/cmath ****   { return __builtin_asinl(__x); }
 112:/opt/homebrew/Cellar/arm-none-eabi-gcc/10.3-2021.07/gcc/arm-none-eabi/include/c++/10.3.1/cmath **** #endif
 113:/opt/homebrew/Cellar/arm-none-eabi-gcc/10.3-2021.07/gcc/arm-none-eabi/include/c++/10.3.1/cmath **** 
 114:/opt/homebrew/Cellar/arm-none-eabi-gcc/10.3-2021.07/gcc/arm-none-eabi/include/c++/10.3.1/cmath ****   template<typename _Tp>
 115:/opt/homebrew/Cellar/arm-none-eabi-gcc/10.3-2021.07/gcc/arm-none-eabi/include/c++/10.3.1/cmath ****     inline _GLIBCXX_CONSTEXPR
 116:/opt/homebrew/Cellar/arm-none-eabi-gcc/10.3-2021.07/gcc/arm-none-eabi/include/c++/10.3.1/cmath ****     typename __gnu_cxx::__enable_if<__is_integer<_Tp>::__value,
 117:/opt/homebrew/Cellar/arm-none-eabi-gcc/10.3-2021.07/gcc/arm-none-eabi/include/c++/10.3.1/cmath ****                                     double>::__type
 118:/opt/homebrew/Cellar/arm-none-eabi-gcc/10.3-2021.07/gcc/arm-none-eabi/include/c++/10.3.1/cmath ****     asin(_Tp __x)
 119:/opt/homebrew/Cellar/arm-none-eabi-gcc/10.3-2021.07/gcc/arm-none-eabi/include/c++/10.3.1/cmath ****     { return __builtin_asin(__x); }
 120:/opt/homebrew/Cellar/arm-none-eabi-gcc/10.3-2021.07/gcc/arm-none-eabi/include/c++/10.3.1/cmath **** 
 121:/opt/homebrew/Cellar/arm-none-eabi-gcc/10.3-2021.07/gcc/arm-none-eabi/include/c++/10.3.1/cmath ****   using ::atan;
 122:/opt/homebrew/Cellar/arm-none-eabi-gcc/10.3-2021.07/gcc/arm-none-eabi/include/c++/10.3.1/cmath **** 
 123:/opt/homebrew/Cellar/arm-none-eabi-gcc/10.3-2021.07/gcc/arm-none-eabi/include/c++/10.3.1/cmath **** #ifndef __CORRECT_ISO_CPP_MATH_H_PROTO
 124:/opt/homebrew/Cellar/arm-none-eabi-gcc/10.3-2021.07/gcc/arm-none-eabi/include/c++/10.3.1/cmath ****   inline _GLIBCXX_CONSTEXPR float
 125:/opt/homebrew/Cellar/arm-none-eabi-gcc/10.3-2021.07/gcc/arm-none-eabi/include/c++/10.3.1/cmath ****   atan(float __x)
 126:/opt/homebrew/Cellar/arm-none-eabi-gcc/10.3-2021.07/gcc/arm-none-eabi/include/c++/10.3.1/cmath ****   { return __builtin_atanf(__x); }
 127:/opt/homebrew/Cellar/arm-none-eabi-gcc/10.3-2021.07/gcc/arm-none-eabi/include/c++/10.3.1/cmath **** 
 128:/opt/homebrew/Cellar/arm-none-eabi-gcc/10.3-2021.07/gcc/arm-none-eabi/include/c++/10.3.1/cmath ****   inline _GLIBCXX_CONSTEXPR long double
 129:/opt/homebrew/Cellar/arm-none-eabi-gcc/10.3-2021.07/gcc/arm-none-eabi/include/c++/10.3.1/cmath ****   atan(long double __x)
 130:/opt/homebrew/Cellar/arm-none-eabi-gcc/10.3-2021.07/gcc/arm-none-eabi/include/c++/10.3.1/cmath ****   { return __builtin_atanl(__x); }
 131:/opt/homebrew/Cellar/arm-none-eabi-gcc/10.3-2021.07/gcc/arm-none-eabi/include/c++/10.3.1/cmath **** #endif
 132:/opt/homebrew/Cellar/arm-none-eabi-gcc/10.3-2021.07/gcc/arm-none-eabi/include/c++/10.3.1/cmath **** 
 133:/opt/homebrew/Cellar/arm-none-eabi-gcc/10.3-2021.07/gcc/arm-none-eabi/include/c++/10.3.1/cmath ****   template<typename _Tp>
 134:/opt/homebrew/Cellar/arm-none-eabi-gcc/10.3-2021.07/gcc/arm-none-eabi/include/c++/10.3.1/cmath ****     inline _GLIBCXX_CONSTEXPR
 135:/opt/homebrew/Cellar/arm-none-eabi-gcc/10.3-2021.07/gcc/arm-none-eabi/include/c++/10.3.1/cmath ****     typename __gnu_cxx::__enable_if<__is_integer<_Tp>::__value,
 136:/opt/homebrew/Cellar/arm-none-eabi-gcc/10.3-2021.07/gcc/arm-none-eabi/include/c++/10.3.1/cmath ****                                     double>::__type
 137:/opt/homebrew/Cellar/arm-none-eabi-gcc/10.3-2021.07/gcc/arm-none-eabi/include/c++/10.3.1/cmath ****     atan(_Tp __x)
 138:/opt/homebrew/Cellar/arm-none-eabi-gcc/10.3-2021.07/gcc/arm-none-eabi/include/c++/10.3.1/cmath ****     { return __builtin_atan(__x); }
 139:/opt/homebrew/Cellar/arm-none-eabi-gcc/10.3-2021.07/gcc/arm-none-eabi/include/c++/10.3.1/cmath **** 
 140:/opt/homebrew/Cellar/arm-none-eabi-gcc/10.3-2021.07/gcc/arm-none-eabi/include/c++/10.3.1/cmath ****   using ::atan2;
 141:/opt/homebrew/Cellar/arm-none-eabi-gcc/10.3-2021.07/gcc/arm-none-eabi/include/c++/10.3.1/cmath **** 
 142:/opt/homebrew/Cellar/arm-none-eabi-gcc/10.3-2021.07/gcc/arm-none-eabi/include/c++/10.3.1/cmath **** #ifndef __CORRECT_ISO_CPP_MATH_H_PROTO
 143:/opt/homebrew/Cellar/arm-none-eabi-gcc/10.3-2021.07/gcc/arm-none-eabi/include/c++/10.3.1/cmath ****   inline _GLIBCXX_CONSTEXPR float
 144:/opt/homebrew/Cellar/arm-none-eabi-gcc/10.3-2021.07/gcc/arm-none-eabi/include/c++/10.3.1/cmath ****   atan2(float __y, float __x)
 145:/opt/homebrew/Cellar/arm-none-eabi-gcc/10.3-2021.07/gcc/arm-none-eabi/include/c++/10.3.1/cmath ****   { return __builtin_atan2f(__y, __x); }
 146:/opt/homebrew/Cellar/arm-none-eabi-gcc/10.3-2021.07/gcc/arm-none-eabi/include/c++/10.3.1/cmath **** 
 147:/opt/homebrew/Cellar/arm-none-eabi-gcc/10.3-2021.07/gcc/arm-none-eabi/include/c++/10.3.1/cmath ****   inline _GLIBCXX_CONSTEXPR long double
 148:/opt/homebrew/Cellar/arm-none-eabi-gcc/10.3-2021.07/gcc/arm-none-eabi/include/c++/10.3.1/cmath ****   atan2(long double __y, long double __x)
 149:/opt/homebrew/Cellar/arm-none-eabi-gcc/10.3-2021.07/gcc/arm-none-eabi/include/c++/10.3.1/cmath ****   { return __builtin_atan2l(__y, __x); }
 150:/opt/homebrew/Cellar/arm-none-eabi-gcc/10.3-2021.07/gcc/arm-none-eabi/include/c++/10.3.1/cmath **** #endif
 151:/opt/homebrew/Cellar/arm-none-eabi-gcc/10.3-2021.07/gcc/arm-none-eabi/include/c++/10.3.1/cmath **** 
 152:/opt/homebrew/Cellar/arm-none-eabi-gcc/10.3-2021.07/gcc/arm-none-eabi/include/c++/10.3.1/cmath ****   template<typename _Tp, typename _Up>
 153:/opt/homebrew/Cellar/arm-none-eabi-gcc/10.3-2021.07/gcc/arm-none-eabi/include/c++/10.3.1/cmath ****     inline _GLIBCXX_CONSTEXPR
 154:/opt/homebrew/Cellar/arm-none-eabi-gcc/10.3-2021.07/gcc/arm-none-eabi/include/c++/10.3.1/cmath ****     typename __gnu_cxx::__promote_2<_Tp, _Up>::__type
 155:/opt/homebrew/Cellar/arm-none-eabi-gcc/10.3-2021.07/gcc/arm-none-eabi/include/c++/10.3.1/cmath ****     atan2(_Tp __y, _Up __x)
 156:/opt/homebrew/Cellar/arm-none-eabi-gcc/10.3-2021.07/gcc/arm-none-eabi/include/c++/10.3.1/cmath ****     {
 157:/opt/homebrew/Cellar/arm-none-eabi-gcc/10.3-2021.07/gcc/arm-none-eabi/include/c++/10.3.1/cmath ****       typedef typename __gnu_cxx::__promote_2<_Tp, _Up>::__type __type;
 158:/opt/homebrew/Cellar/arm-none-eabi-gcc/10.3-2021.07/gcc/arm-none-eabi/include/c++/10.3.1/cmath ****       return atan2(__type(__y), __type(__x));
 159:/opt/homebrew/Cellar/arm-none-eabi-gcc/10.3-2021.07/gcc/arm-none-eabi/include/c++/10.3.1/cmath ****     }
 160:/opt/homebrew/Cellar/arm-none-eabi-gcc/10.3-2021.07/gcc/arm-none-eabi/include/c++/10.3.1/cmath **** 
 161:/opt/homebrew/Cellar/arm-none-eabi-gcc/10.3-2021.07/gcc/arm-none-eabi/include/c++/10.3.1/cmath ****   using ::ceil;
 162:/opt/homebrew/Cellar/arm-none-eabi-gcc/10.3-2021.07/gcc/arm-none-eabi/include/c++/10.3.1/cmath **** 
 163:/opt/homebrew/Cellar/arm-none-eabi-gcc/10.3-2021.07/gcc/arm-none-eabi/include/c++/10.3.1/cmath **** #ifndef __CORRECT_ISO_CPP_MATH_H_PROTO
 164:/opt/homebrew/Cellar/arm-none-eabi-gcc/10.3-2021.07/gcc/arm-none-eabi/include/c++/10.3.1/cmath ****   inline _GLIBCXX_CONSTEXPR float
 165:/opt/homebrew/Cellar/arm-none-eabi-gcc/10.3-2021.07/gcc/arm-none-eabi/include/c++/10.3.1/cmath ****   ceil(float __x)
 166:/opt/homebrew/Cellar/arm-none-eabi-gcc/10.3-2021.07/gcc/arm-none-eabi/include/c++/10.3.1/cmath ****   { return __builtin_ceilf(__x); }
ARM GAS  /var/folders/hl/qgbwny5j0fd895c2c41bk3tw0000gp/T//cceIFtrC.s 			page 121


 167:/opt/homebrew/Cellar/arm-none-eabi-gcc/10.3-2021.07/gcc/arm-none-eabi/include/c++/10.3.1/cmath **** 
 168:/opt/homebrew/Cellar/arm-none-eabi-gcc/10.3-2021.07/gcc/arm-none-eabi/include/c++/10.3.1/cmath ****   inline _GLIBCXX_CONSTEXPR long double
 169:/opt/homebrew/Cellar/arm-none-eabi-gcc/10.3-2021.07/gcc/arm-none-eabi/include/c++/10.3.1/cmath ****   ceil(long double __x)
 170:/opt/homebrew/Cellar/arm-none-eabi-gcc/10.3-2021.07/gcc/arm-none-eabi/include/c++/10.3.1/cmath ****   { return __builtin_ceill(__x); }
 171:/opt/homebrew/Cellar/arm-none-eabi-gcc/10.3-2021.07/gcc/arm-none-eabi/include/c++/10.3.1/cmath **** #endif
 172:/opt/homebrew/Cellar/arm-none-eabi-gcc/10.3-2021.07/gcc/arm-none-eabi/include/c++/10.3.1/cmath **** 
 173:/opt/homebrew/Cellar/arm-none-eabi-gcc/10.3-2021.07/gcc/arm-none-eabi/include/c++/10.3.1/cmath ****   template<typename _Tp>
 174:/opt/homebrew/Cellar/arm-none-eabi-gcc/10.3-2021.07/gcc/arm-none-eabi/include/c++/10.3.1/cmath ****     inline _GLIBCXX_CONSTEXPR
 175:/opt/homebrew/Cellar/arm-none-eabi-gcc/10.3-2021.07/gcc/arm-none-eabi/include/c++/10.3.1/cmath ****     typename __gnu_cxx::__enable_if<__is_integer<_Tp>::__value, 
 176:/opt/homebrew/Cellar/arm-none-eabi-gcc/10.3-2021.07/gcc/arm-none-eabi/include/c++/10.3.1/cmath ****                                     double>::__type
 177:/opt/homebrew/Cellar/arm-none-eabi-gcc/10.3-2021.07/gcc/arm-none-eabi/include/c++/10.3.1/cmath ****     ceil(_Tp __x)
 178:/opt/homebrew/Cellar/arm-none-eabi-gcc/10.3-2021.07/gcc/arm-none-eabi/include/c++/10.3.1/cmath ****     { return __builtin_ceil(__x); }
 179:/opt/homebrew/Cellar/arm-none-eabi-gcc/10.3-2021.07/gcc/arm-none-eabi/include/c++/10.3.1/cmath **** 
 180:/opt/homebrew/Cellar/arm-none-eabi-gcc/10.3-2021.07/gcc/arm-none-eabi/include/c++/10.3.1/cmath ****   using ::cos;
 181:/opt/homebrew/Cellar/arm-none-eabi-gcc/10.3-2021.07/gcc/arm-none-eabi/include/c++/10.3.1/cmath **** 
 182:/opt/homebrew/Cellar/arm-none-eabi-gcc/10.3-2021.07/gcc/arm-none-eabi/include/c++/10.3.1/cmath **** #ifndef __CORRECT_ISO_CPP_MATH_H_PROTO
 183:/opt/homebrew/Cellar/arm-none-eabi-gcc/10.3-2021.07/gcc/arm-none-eabi/include/c++/10.3.1/cmath ****   inline _GLIBCXX_CONSTEXPR float
 184:/opt/homebrew/Cellar/arm-none-eabi-gcc/10.3-2021.07/gcc/arm-none-eabi/include/c++/10.3.1/cmath ****   cos(float __x)
 185:/opt/homebrew/Cellar/arm-none-eabi-gcc/10.3-2021.07/gcc/arm-none-eabi/include/c++/10.3.1/cmath ****   { return __builtin_cosf(__x); }
 3865              		.loc 19 185 26 view .LVU874
 3866 0050 B0EE680A 		vmov.f32	s0, s17
 3867 0054 FFF7FEFF 		bl	cosf
 3868              	.LVL252:
 3869              		.loc 19 185 26 view .LVU875
 3870              	.LBE1271:
 3871              	.LBE1270:
 315:../../libDaisy//src/hid/disp/display.h ****         start_y = -sin(start_angle_rad) * radius;
 3872              		.loc 9 315 17 view .LVU876
 3873 0058 07EE907A 		vmov	s15, r7	@ int
 313:../../libDaisy//src/hid/disp/display.h **** 
 3874              		.loc 9 313 25 view .LVU877
 3875 005c B7EECAAB 		vcvt.f32.f64	s20, d10
 3876              	.LVL253:
 3877              	.LBB1274:
 3878              	.LBI1270:
 184:/opt/homebrew/Cellar/arm-none-eabi-gcc/10.3-2021.07/gcc/arm-none-eabi/include/c++/10.3.1/cmath ****   { return __builtin_cosf(__x); }
 3879              		.loc 19 184 3 is_stmt 1 view .LVU878
 3880              	.LBB1272:
 3881              		.loc 19 185 5 view .LVU879
 3882              		.loc 19 185 5 is_stmt 0 view .LVU880
 3883              	.LBE1272:
 3884              	.LBE1274:
 315:../../libDaisy//src/hid/disp/display.h ****         start_y = -sin(start_angle_rad) * radius;
 3885              		.loc 9 315 17 view .LVU881
 3886 0060 F8EE679A 		vcvt.f32.u32	s19, s15
 3887              	.LBB1275:
 3888              	.LBB1273:
 3889              		.loc 19 185 26 view .LVU882
 3890 0064 B0EE408A 		vmov.f32	s16, s0
 3891              	.LBE1273:
 3892              	.LBE1275:
 3893              	.LBB1276:
 3894              	.LBB1277:
 186:/opt/homebrew/Cellar/arm-none-eabi-gcc/10.3-2021.07/gcc/arm-none-eabi/include/c++/10.3.1/cmath **** 
 187:/opt/homebrew/Cellar/arm-none-eabi-gcc/10.3-2021.07/gcc/arm-none-eabi/include/c++/10.3.1/cmath ****   inline _GLIBCXX_CONSTEXPR long double
 188:/opt/homebrew/Cellar/arm-none-eabi-gcc/10.3-2021.07/gcc/arm-none-eabi/include/c++/10.3.1/cmath ****   cos(long double __x)
 189:/opt/homebrew/Cellar/arm-none-eabi-gcc/10.3-2021.07/gcc/arm-none-eabi/include/c++/10.3.1/cmath ****   { return __builtin_cosl(__x); }
ARM GAS  /var/folders/hl/qgbwny5j0fd895c2c41bk3tw0000gp/T//cceIFtrC.s 			page 122


 190:/opt/homebrew/Cellar/arm-none-eabi-gcc/10.3-2021.07/gcc/arm-none-eabi/include/c++/10.3.1/cmath **** #endif
 191:/opt/homebrew/Cellar/arm-none-eabi-gcc/10.3-2021.07/gcc/arm-none-eabi/include/c++/10.3.1/cmath **** 
 192:/opt/homebrew/Cellar/arm-none-eabi-gcc/10.3-2021.07/gcc/arm-none-eabi/include/c++/10.3.1/cmath ****   template<typename _Tp>
 193:/opt/homebrew/Cellar/arm-none-eabi-gcc/10.3-2021.07/gcc/arm-none-eabi/include/c++/10.3.1/cmath ****     inline _GLIBCXX_CONSTEXPR
 194:/opt/homebrew/Cellar/arm-none-eabi-gcc/10.3-2021.07/gcc/arm-none-eabi/include/c++/10.3.1/cmath ****     typename __gnu_cxx::__enable_if<__is_integer<_Tp>::__value,
 195:/opt/homebrew/Cellar/arm-none-eabi-gcc/10.3-2021.07/gcc/arm-none-eabi/include/c++/10.3.1/cmath ****                                     double>::__type
 196:/opt/homebrew/Cellar/arm-none-eabi-gcc/10.3-2021.07/gcc/arm-none-eabi/include/c++/10.3.1/cmath ****     cos(_Tp __x)
 197:/opt/homebrew/Cellar/arm-none-eabi-gcc/10.3-2021.07/gcc/arm-none-eabi/include/c++/10.3.1/cmath ****     { return __builtin_cos(__x); }
 198:/opt/homebrew/Cellar/arm-none-eabi-gcc/10.3-2021.07/gcc/arm-none-eabi/include/c++/10.3.1/cmath **** 
 199:/opt/homebrew/Cellar/arm-none-eabi-gcc/10.3-2021.07/gcc/arm-none-eabi/include/c++/10.3.1/cmath ****   using ::cosh;
 200:/opt/homebrew/Cellar/arm-none-eabi-gcc/10.3-2021.07/gcc/arm-none-eabi/include/c++/10.3.1/cmath **** 
 201:/opt/homebrew/Cellar/arm-none-eabi-gcc/10.3-2021.07/gcc/arm-none-eabi/include/c++/10.3.1/cmath **** #ifndef __CORRECT_ISO_CPP_MATH_H_PROTO
 202:/opt/homebrew/Cellar/arm-none-eabi-gcc/10.3-2021.07/gcc/arm-none-eabi/include/c++/10.3.1/cmath ****   inline _GLIBCXX_CONSTEXPR float
 203:/opt/homebrew/Cellar/arm-none-eabi-gcc/10.3-2021.07/gcc/arm-none-eabi/include/c++/10.3.1/cmath ****   cosh(float __x)
 204:/opt/homebrew/Cellar/arm-none-eabi-gcc/10.3-2021.07/gcc/arm-none-eabi/include/c++/10.3.1/cmath ****   { return __builtin_coshf(__x); }
 205:/opt/homebrew/Cellar/arm-none-eabi-gcc/10.3-2021.07/gcc/arm-none-eabi/include/c++/10.3.1/cmath **** 
 206:/opt/homebrew/Cellar/arm-none-eabi-gcc/10.3-2021.07/gcc/arm-none-eabi/include/c++/10.3.1/cmath ****   inline _GLIBCXX_CONSTEXPR long double
 207:/opt/homebrew/Cellar/arm-none-eabi-gcc/10.3-2021.07/gcc/arm-none-eabi/include/c++/10.3.1/cmath ****   cosh(long double __x)
 208:/opt/homebrew/Cellar/arm-none-eabi-gcc/10.3-2021.07/gcc/arm-none-eabi/include/c++/10.3.1/cmath ****   { return __builtin_coshl(__x); }
 209:/opt/homebrew/Cellar/arm-none-eabi-gcc/10.3-2021.07/gcc/arm-none-eabi/include/c++/10.3.1/cmath **** #endif
 210:/opt/homebrew/Cellar/arm-none-eabi-gcc/10.3-2021.07/gcc/arm-none-eabi/include/c++/10.3.1/cmath **** 
 211:/opt/homebrew/Cellar/arm-none-eabi-gcc/10.3-2021.07/gcc/arm-none-eabi/include/c++/10.3.1/cmath ****   template<typename _Tp>
 212:/opt/homebrew/Cellar/arm-none-eabi-gcc/10.3-2021.07/gcc/arm-none-eabi/include/c++/10.3.1/cmath ****     inline _GLIBCXX_CONSTEXPR
 213:/opt/homebrew/Cellar/arm-none-eabi-gcc/10.3-2021.07/gcc/arm-none-eabi/include/c++/10.3.1/cmath ****     typename __gnu_cxx::__enable_if<__is_integer<_Tp>::__value,
 214:/opt/homebrew/Cellar/arm-none-eabi-gcc/10.3-2021.07/gcc/arm-none-eabi/include/c++/10.3.1/cmath ****                                     double>::__type
 215:/opt/homebrew/Cellar/arm-none-eabi-gcc/10.3-2021.07/gcc/arm-none-eabi/include/c++/10.3.1/cmath ****     cosh(_Tp __x)
 216:/opt/homebrew/Cellar/arm-none-eabi-gcc/10.3-2021.07/gcc/arm-none-eabi/include/c++/10.3.1/cmath ****     { return __builtin_cosh(__x); }
 217:/opt/homebrew/Cellar/arm-none-eabi-gcc/10.3-2021.07/gcc/arm-none-eabi/include/c++/10.3.1/cmath **** 
 218:/opt/homebrew/Cellar/arm-none-eabi-gcc/10.3-2021.07/gcc/arm-none-eabi/include/c++/10.3.1/cmath ****   using ::exp;
 219:/opt/homebrew/Cellar/arm-none-eabi-gcc/10.3-2021.07/gcc/arm-none-eabi/include/c++/10.3.1/cmath **** 
 220:/opt/homebrew/Cellar/arm-none-eabi-gcc/10.3-2021.07/gcc/arm-none-eabi/include/c++/10.3.1/cmath **** #ifndef __CORRECT_ISO_CPP_MATH_H_PROTO
 221:/opt/homebrew/Cellar/arm-none-eabi-gcc/10.3-2021.07/gcc/arm-none-eabi/include/c++/10.3.1/cmath ****   inline _GLIBCXX_CONSTEXPR float
 222:/opt/homebrew/Cellar/arm-none-eabi-gcc/10.3-2021.07/gcc/arm-none-eabi/include/c++/10.3.1/cmath ****   exp(float __x)
 223:/opt/homebrew/Cellar/arm-none-eabi-gcc/10.3-2021.07/gcc/arm-none-eabi/include/c++/10.3.1/cmath ****   { return __builtin_expf(__x); }
 224:/opt/homebrew/Cellar/arm-none-eabi-gcc/10.3-2021.07/gcc/arm-none-eabi/include/c++/10.3.1/cmath **** 
 225:/opt/homebrew/Cellar/arm-none-eabi-gcc/10.3-2021.07/gcc/arm-none-eabi/include/c++/10.3.1/cmath ****   inline _GLIBCXX_CONSTEXPR long double
 226:/opt/homebrew/Cellar/arm-none-eabi-gcc/10.3-2021.07/gcc/arm-none-eabi/include/c++/10.3.1/cmath ****   exp(long double __x)
 227:/opt/homebrew/Cellar/arm-none-eabi-gcc/10.3-2021.07/gcc/arm-none-eabi/include/c++/10.3.1/cmath ****   { return __builtin_expl(__x); }
 228:/opt/homebrew/Cellar/arm-none-eabi-gcc/10.3-2021.07/gcc/arm-none-eabi/include/c++/10.3.1/cmath **** #endif
 229:/opt/homebrew/Cellar/arm-none-eabi-gcc/10.3-2021.07/gcc/arm-none-eabi/include/c++/10.3.1/cmath **** 
 230:/opt/homebrew/Cellar/arm-none-eabi-gcc/10.3-2021.07/gcc/arm-none-eabi/include/c++/10.3.1/cmath ****   template<typename _Tp>
 231:/opt/homebrew/Cellar/arm-none-eabi-gcc/10.3-2021.07/gcc/arm-none-eabi/include/c++/10.3.1/cmath ****     inline _GLIBCXX_CONSTEXPR
 232:/opt/homebrew/Cellar/arm-none-eabi-gcc/10.3-2021.07/gcc/arm-none-eabi/include/c++/10.3.1/cmath ****     typename __gnu_cxx::__enable_if<__is_integer<_Tp>::__value,
 233:/opt/homebrew/Cellar/arm-none-eabi-gcc/10.3-2021.07/gcc/arm-none-eabi/include/c++/10.3.1/cmath ****                                     double>::__type
 234:/opt/homebrew/Cellar/arm-none-eabi-gcc/10.3-2021.07/gcc/arm-none-eabi/include/c++/10.3.1/cmath ****     exp(_Tp __x)
 235:/opt/homebrew/Cellar/arm-none-eabi-gcc/10.3-2021.07/gcc/arm-none-eabi/include/c++/10.3.1/cmath ****     { return __builtin_exp(__x); }
 236:/opt/homebrew/Cellar/arm-none-eabi-gcc/10.3-2021.07/gcc/arm-none-eabi/include/c++/10.3.1/cmath **** 
 237:/opt/homebrew/Cellar/arm-none-eabi-gcc/10.3-2021.07/gcc/arm-none-eabi/include/c++/10.3.1/cmath ****   using ::fabs;
 238:/opt/homebrew/Cellar/arm-none-eabi-gcc/10.3-2021.07/gcc/arm-none-eabi/include/c++/10.3.1/cmath **** 
 239:/opt/homebrew/Cellar/arm-none-eabi-gcc/10.3-2021.07/gcc/arm-none-eabi/include/c++/10.3.1/cmath **** #ifndef __CORRECT_ISO_CPP_MATH_H_PROTO
 240:/opt/homebrew/Cellar/arm-none-eabi-gcc/10.3-2021.07/gcc/arm-none-eabi/include/c++/10.3.1/cmath ****   inline _GLIBCXX_CONSTEXPR float
 241:/opt/homebrew/Cellar/arm-none-eabi-gcc/10.3-2021.07/gcc/arm-none-eabi/include/c++/10.3.1/cmath ****   fabs(float __x)
 242:/opt/homebrew/Cellar/arm-none-eabi-gcc/10.3-2021.07/gcc/arm-none-eabi/include/c++/10.3.1/cmath ****   { return __builtin_fabsf(__x); }
 243:/opt/homebrew/Cellar/arm-none-eabi-gcc/10.3-2021.07/gcc/arm-none-eabi/include/c++/10.3.1/cmath **** 
 244:/opt/homebrew/Cellar/arm-none-eabi-gcc/10.3-2021.07/gcc/arm-none-eabi/include/c++/10.3.1/cmath ****   inline _GLIBCXX_CONSTEXPR long double
 245:/opt/homebrew/Cellar/arm-none-eabi-gcc/10.3-2021.07/gcc/arm-none-eabi/include/c++/10.3.1/cmath ****   fabs(long double __x)
 246:/opt/homebrew/Cellar/arm-none-eabi-gcc/10.3-2021.07/gcc/arm-none-eabi/include/c++/10.3.1/cmath ****   { return __builtin_fabsl(__x); }
ARM GAS  /var/folders/hl/qgbwny5j0fd895c2c41bk3tw0000gp/T//cceIFtrC.s 			page 123


 247:/opt/homebrew/Cellar/arm-none-eabi-gcc/10.3-2021.07/gcc/arm-none-eabi/include/c++/10.3.1/cmath **** #endif
 248:/opt/homebrew/Cellar/arm-none-eabi-gcc/10.3-2021.07/gcc/arm-none-eabi/include/c++/10.3.1/cmath **** 
 249:/opt/homebrew/Cellar/arm-none-eabi-gcc/10.3-2021.07/gcc/arm-none-eabi/include/c++/10.3.1/cmath ****   template<typename _Tp>
 250:/opt/homebrew/Cellar/arm-none-eabi-gcc/10.3-2021.07/gcc/arm-none-eabi/include/c++/10.3.1/cmath ****     inline _GLIBCXX_CONSTEXPR
 251:/opt/homebrew/Cellar/arm-none-eabi-gcc/10.3-2021.07/gcc/arm-none-eabi/include/c++/10.3.1/cmath ****     typename __gnu_cxx::__enable_if<__is_integer<_Tp>::__value,
 252:/opt/homebrew/Cellar/arm-none-eabi-gcc/10.3-2021.07/gcc/arm-none-eabi/include/c++/10.3.1/cmath ****                                     double>::__type
 253:/opt/homebrew/Cellar/arm-none-eabi-gcc/10.3-2021.07/gcc/arm-none-eabi/include/c++/10.3.1/cmath ****     fabs(_Tp __x)
 254:/opt/homebrew/Cellar/arm-none-eabi-gcc/10.3-2021.07/gcc/arm-none-eabi/include/c++/10.3.1/cmath ****     { return __builtin_fabs(__x); }
 255:/opt/homebrew/Cellar/arm-none-eabi-gcc/10.3-2021.07/gcc/arm-none-eabi/include/c++/10.3.1/cmath **** 
 256:/opt/homebrew/Cellar/arm-none-eabi-gcc/10.3-2021.07/gcc/arm-none-eabi/include/c++/10.3.1/cmath ****   using ::floor;
 257:/opt/homebrew/Cellar/arm-none-eabi-gcc/10.3-2021.07/gcc/arm-none-eabi/include/c++/10.3.1/cmath **** 
 258:/opt/homebrew/Cellar/arm-none-eabi-gcc/10.3-2021.07/gcc/arm-none-eabi/include/c++/10.3.1/cmath **** #ifndef __CORRECT_ISO_CPP_MATH_H_PROTO
 259:/opt/homebrew/Cellar/arm-none-eabi-gcc/10.3-2021.07/gcc/arm-none-eabi/include/c++/10.3.1/cmath ****   inline _GLIBCXX_CONSTEXPR float
 260:/opt/homebrew/Cellar/arm-none-eabi-gcc/10.3-2021.07/gcc/arm-none-eabi/include/c++/10.3.1/cmath ****   floor(float __x)
 261:/opt/homebrew/Cellar/arm-none-eabi-gcc/10.3-2021.07/gcc/arm-none-eabi/include/c++/10.3.1/cmath ****   { return __builtin_floorf(__x); }
 262:/opt/homebrew/Cellar/arm-none-eabi-gcc/10.3-2021.07/gcc/arm-none-eabi/include/c++/10.3.1/cmath **** 
 263:/opt/homebrew/Cellar/arm-none-eabi-gcc/10.3-2021.07/gcc/arm-none-eabi/include/c++/10.3.1/cmath ****   inline _GLIBCXX_CONSTEXPR long double
 264:/opt/homebrew/Cellar/arm-none-eabi-gcc/10.3-2021.07/gcc/arm-none-eabi/include/c++/10.3.1/cmath ****   floor(long double __x)
 265:/opt/homebrew/Cellar/arm-none-eabi-gcc/10.3-2021.07/gcc/arm-none-eabi/include/c++/10.3.1/cmath ****   { return __builtin_floorl(__x); }
 266:/opt/homebrew/Cellar/arm-none-eabi-gcc/10.3-2021.07/gcc/arm-none-eabi/include/c++/10.3.1/cmath **** #endif
 267:/opt/homebrew/Cellar/arm-none-eabi-gcc/10.3-2021.07/gcc/arm-none-eabi/include/c++/10.3.1/cmath **** 
 268:/opt/homebrew/Cellar/arm-none-eabi-gcc/10.3-2021.07/gcc/arm-none-eabi/include/c++/10.3.1/cmath ****   template<typename _Tp>
 269:/opt/homebrew/Cellar/arm-none-eabi-gcc/10.3-2021.07/gcc/arm-none-eabi/include/c++/10.3.1/cmath ****     inline _GLIBCXX_CONSTEXPR
 270:/opt/homebrew/Cellar/arm-none-eabi-gcc/10.3-2021.07/gcc/arm-none-eabi/include/c++/10.3.1/cmath ****     typename __gnu_cxx::__enable_if<__is_integer<_Tp>::__value,
 271:/opt/homebrew/Cellar/arm-none-eabi-gcc/10.3-2021.07/gcc/arm-none-eabi/include/c++/10.3.1/cmath ****                                     double>::__type
 272:/opt/homebrew/Cellar/arm-none-eabi-gcc/10.3-2021.07/gcc/arm-none-eabi/include/c++/10.3.1/cmath ****     floor(_Tp __x)
 273:/opt/homebrew/Cellar/arm-none-eabi-gcc/10.3-2021.07/gcc/arm-none-eabi/include/c++/10.3.1/cmath ****     { return __builtin_floor(__x); }
 274:/opt/homebrew/Cellar/arm-none-eabi-gcc/10.3-2021.07/gcc/arm-none-eabi/include/c++/10.3.1/cmath **** 
 275:/opt/homebrew/Cellar/arm-none-eabi-gcc/10.3-2021.07/gcc/arm-none-eabi/include/c++/10.3.1/cmath ****   using ::fmod;
 276:/opt/homebrew/Cellar/arm-none-eabi-gcc/10.3-2021.07/gcc/arm-none-eabi/include/c++/10.3.1/cmath **** 
 277:/opt/homebrew/Cellar/arm-none-eabi-gcc/10.3-2021.07/gcc/arm-none-eabi/include/c++/10.3.1/cmath **** #ifndef __CORRECT_ISO_CPP_MATH_H_PROTO
 278:/opt/homebrew/Cellar/arm-none-eabi-gcc/10.3-2021.07/gcc/arm-none-eabi/include/c++/10.3.1/cmath ****   inline _GLIBCXX_CONSTEXPR float
 279:/opt/homebrew/Cellar/arm-none-eabi-gcc/10.3-2021.07/gcc/arm-none-eabi/include/c++/10.3.1/cmath ****   fmod(float __x, float __y)
 280:/opt/homebrew/Cellar/arm-none-eabi-gcc/10.3-2021.07/gcc/arm-none-eabi/include/c++/10.3.1/cmath ****   { return __builtin_fmodf(__x, __y); }
 281:/opt/homebrew/Cellar/arm-none-eabi-gcc/10.3-2021.07/gcc/arm-none-eabi/include/c++/10.3.1/cmath **** 
 282:/opt/homebrew/Cellar/arm-none-eabi-gcc/10.3-2021.07/gcc/arm-none-eabi/include/c++/10.3.1/cmath ****   inline _GLIBCXX_CONSTEXPR long double
 283:/opt/homebrew/Cellar/arm-none-eabi-gcc/10.3-2021.07/gcc/arm-none-eabi/include/c++/10.3.1/cmath ****   fmod(long double __x, long double __y)
 284:/opt/homebrew/Cellar/arm-none-eabi-gcc/10.3-2021.07/gcc/arm-none-eabi/include/c++/10.3.1/cmath ****   { return __builtin_fmodl(__x, __y); }
 285:/opt/homebrew/Cellar/arm-none-eabi-gcc/10.3-2021.07/gcc/arm-none-eabi/include/c++/10.3.1/cmath **** #endif
 286:/opt/homebrew/Cellar/arm-none-eabi-gcc/10.3-2021.07/gcc/arm-none-eabi/include/c++/10.3.1/cmath **** 
 287:/opt/homebrew/Cellar/arm-none-eabi-gcc/10.3-2021.07/gcc/arm-none-eabi/include/c++/10.3.1/cmath ****   template<typename _Tp, typename _Up>
 288:/opt/homebrew/Cellar/arm-none-eabi-gcc/10.3-2021.07/gcc/arm-none-eabi/include/c++/10.3.1/cmath ****     inline _GLIBCXX_CONSTEXPR
 289:/opt/homebrew/Cellar/arm-none-eabi-gcc/10.3-2021.07/gcc/arm-none-eabi/include/c++/10.3.1/cmath ****     typename __gnu_cxx::__promote_2<_Tp, _Up>::__type
 290:/opt/homebrew/Cellar/arm-none-eabi-gcc/10.3-2021.07/gcc/arm-none-eabi/include/c++/10.3.1/cmath ****     fmod(_Tp __x, _Up __y)
 291:/opt/homebrew/Cellar/arm-none-eabi-gcc/10.3-2021.07/gcc/arm-none-eabi/include/c++/10.3.1/cmath ****     {
 292:/opt/homebrew/Cellar/arm-none-eabi-gcc/10.3-2021.07/gcc/arm-none-eabi/include/c++/10.3.1/cmath ****       typedef typename __gnu_cxx::__promote_2<_Tp, _Up>::__type __type;
 293:/opt/homebrew/Cellar/arm-none-eabi-gcc/10.3-2021.07/gcc/arm-none-eabi/include/c++/10.3.1/cmath ****       return fmod(__type(__x), __type(__y));
 294:/opt/homebrew/Cellar/arm-none-eabi-gcc/10.3-2021.07/gcc/arm-none-eabi/include/c++/10.3.1/cmath ****     }
 295:/opt/homebrew/Cellar/arm-none-eabi-gcc/10.3-2021.07/gcc/arm-none-eabi/include/c++/10.3.1/cmath **** 
 296:/opt/homebrew/Cellar/arm-none-eabi-gcc/10.3-2021.07/gcc/arm-none-eabi/include/c++/10.3.1/cmath ****   using ::frexp;
 297:/opt/homebrew/Cellar/arm-none-eabi-gcc/10.3-2021.07/gcc/arm-none-eabi/include/c++/10.3.1/cmath **** 
 298:/opt/homebrew/Cellar/arm-none-eabi-gcc/10.3-2021.07/gcc/arm-none-eabi/include/c++/10.3.1/cmath **** #ifndef __CORRECT_ISO_CPP_MATH_H_PROTO
 299:/opt/homebrew/Cellar/arm-none-eabi-gcc/10.3-2021.07/gcc/arm-none-eabi/include/c++/10.3.1/cmath ****   inline float
 300:/opt/homebrew/Cellar/arm-none-eabi-gcc/10.3-2021.07/gcc/arm-none-eabi/include/c++/10.3.1/cmath ****   frexp(float __x, int* __exp)
 301:/opt/homebrew/Cellar/arm-none-eabi-gcc/10.3-2021.07/gcc/arm-none-eabi/include/c++/10.3.1/cmath ****   { return __builtin_frexpf(__x, __exp); }
 302:/opt/homebrew/Cellar/arm-none-eabi-gcc/10.3-2021.07/gcc/arm-none-eabi/include/c++/10.3.1/cmath **** 
 303:/opt/homebrew/Cellar/arm-none-eabi-gcc/10.3-2021.07/gcc/arm-none-eabi/include/c++/10.3.1/cmath ****   inline long double
ARM GAS  /var/folders/hl/qgbwny5j0fd895c2c41bk3tw0000gp/T//cceIFtrC.s 			page 124


 304:/opt/homebrew/Cellar/arm-none-eabi-gcc/10.3-2021.07/gcc/arm-none-eabi/include/c++/10.3.1/cmath ****   frexp(long double __x, int* __exp)
 305:/opt/homebrew/Cellar/arm-none-eabi-gcc/10.3-2021.07/gcc/arm-none-eabi/include/c++/10.3.1/cmath ****   { return __builtin_frexpl(__x, __exp); }
 306:/opt/homebrew/Cellar/arm-none-eabi-gcc/10.3-2021.07/gcc/arm-none-eabi/include/c++/10.3.1/cmath **** #endif
 307:/opt/homebrew/Cellar/arm-none-eabi-gcc/10.3-2021.07/gcc/arm-none-eabi/include/c++/10.3.1/cmath **** 
 308:/opt/homebrew/Cellar/arm-none-eabi-gcc/10.3-2021.07/gcc/arm-none-eabi/include/c++/10.3.1/cmath ****   template<typename _Tp>
 309:/opt/homebrew/Cellar/arm-none-eabi-gcc/10.3-2021.07/gcc/arm-none-eabi/include/c++/10.3.1/cmath ****     inline _GLIBCXX_CONSTEXPR
 310:/opt/homebrew/Cellar/arm-none-eabi-gcc/10.3-2021.07/gcc/arm-none-eabi/include/c++/10.3.1/cmath ****     typename __gnu_cxx::__enable_if<__is_integer<_Tp>::__value, 
 311:/opt/homebrew/Cellar/arm-none-eabi-gcc/10.3-2021.07/gcc/arm-none-eabi/include/c++/10.3.1/cmath ****                                     double>::__type
 312:/opt/homebrew/Cellar/arm-none-eabi-gcc/10.3-2021.07/gcc/arm-none-eabi/include/c++/10.3.1/cmath ****     frexp(_Tp __x, int* __exp)
 313:/opt/homebrew/Cellar/arm-none-eabi-gcc/10.3-2021.07/gcc/arm-none-eabi/include/c++/10.3.1/cmath ****     { return __builtin_frexp(__x, __exp); }
 314:/opt/homebrew/Cellar/arm-none-eabi-gcc/10.3-2021.07/gcc/arm-none-eabi/include/c++/10.3.1/cmath **** 
 315:/opt/homebrew/Cellar/arm-none-eabi-gcc/10.3-2021.07/gcc/arm-none-eabi/include/c++/10.3.1/cmath ****   using ::ldexp;
 316:/opt/homebrew/Cellar/arm-none-eabi-gcc/10.3-2021.07/gcc/arm-none-eabi/include/c++/10.3.1/cmath **** 
 317:/opt/homebrew/Cellar/arm-none-eabi-gcc/10.3-2021.07/gcc/arm-none-eabi/include/c++/10.3.1/cmath **** #ifndef __CORRECT_ISO_CPP_MATH_H_PROTO
 318:/opt/homebrew/Cellar/arm-none-eabi-gcc/10.3-2021.07/gcc/arm-none-eabi/include/c++/10.3.1/cmath ****   inline _GLIBCXX_CONSTEXPR float
 319:/opt/homebrew/Cellar/arm-none-eabi-gcc/10.3-2021.07/gcc/arm-none-eabi/include/c++/10.3.1/cmath ****   ldexp(float __x, int __exp)
 320:/opt/homebrew/Cellar/arm-none-eabi-gcc/10.3-2021.07/gcc/arm-none-eabi/include/c++/10.3.1/cmath ****   { return __builtin_ldexpf(__x, __exp); }
 321:/opt/homebrew/Cellar/arm-none-eabi-gcc/10.3-2021.07/gcc/arm-none-eabi/include/c++/10.3.1/cmath **** 
 322:/opt/homebrew/Cellar/arm-none-eabi-gcc/10.3-2021.07/gcc/arm-none-eabi/include/c++/10.3.1/cmath ****   inline _GLIBCXX_CONSTEXPR long double
 323:/opt/homebrew/Cellar/arm-none-eabi-gcc/10.3-2021.07/gcc/arm-none-eabi/include/c++/10.3.1/cmath ****   ldexp(long double __x, int __exp)
 324:/opt/homebrew/Cellar/arm-none-eabi-gcc/10.3-2021.07/gcc/arm-none-eabi/include/c++/10.3.1/cmath ****   { return __builtin_ldexpl(__x, __exp); }
 325:/opt/homebrew/Cellar/arm-none-eabi-gcc/10.3-2021.07/gcc/arm-none-eabi/include/c++/10.3.1/cmath **** #endif
 326:/opt/homebrew/Cellar/arm-none-eabi-gcc/10.3-2021.07/gcc/arm-none-eabi/include/c++/10.3.1/cmath **** 
 327:/opt/homebrew/Cellar/arm-none-eabi-gcc/10.3-2021.07/gcc/arm-none-eabi/include/c++/10.3.1/cmath ****   template<typename _Tp>
 328:/opt/homebrew/Cellar/arm-none-eabi-gcc/10.3-2021.07/gcc/arm-none-eabi/include/c++/10.3.1/cmath ****     inline _GLIBCXX_CONSTEXPR
 329:/opt/homebrew/Cellar/arm-none-eabi-gcc/10.3-2021.07/gcc/arm-none-eabi/include/c++/10.3.1/cmath ****     typename __gnu_cxx::__enable_if<__is_integer<_Tp>::__value, 
 330:/opt/homebrew/Cellar/arm-none-eabi-gcc/10.3-2021.07/gcc/arm-none-eabi/include/c++/10.3.1/cmath ****                                     double>::__type
 331:/opt/homebrew/Cellar/arm-none-eabi-gcc/10.3-2021.07/gcc/arm-none-eabi/include/c++/10.3.1/cmath ****     ldexp(_Tp __x, int __exp)
 332:/opt/homebrew/Cellar/arm-none-eabi-gcc/10.3-2021.07/gcc/arm-none-eabi/include/c++/10.3.1/cmath ****     { return __builtin_ldexp(__x, __exp); }
 333:/opt/homebrew/Cellar/arm-none-eabi-gcc/10.3-2021.07/gcc/arm-none-eabi/include/c++/10.3.1/cmath **** 
 334:/opt/homebrew/Cellar/arm-none-eabi-gcc/10.3-2021.07/gcc/arm-none-eabi/include/c++/10.3.1/cmath ****   using ::log;
 335:/opt/homebrew/Cellar/arm-none-eabi-gcc/10.3-2021.07/gcc/arm-none-eabi/include/c++/10.3.1/cmath **** 
 336:/opt/homebrew/Cellar/arm-none-eabi-gcc/10.3-2021.07/gcc/arm-none-eabi/include/c++/10.3.1/cmath **** #ifndef __CORRECT_ISO_CPP_MATH_H_PROTO
 337:/opt/homebrew/Cellar/arm-none-eabi-gcc/10.3-2021.07/gcc/arm-none-eabi/include/c++/10.3.1/cmath ****   inline _GLIBCXX_CONSTEXPR float
 338:/opt/homebrew/Cellar/arm-none-eabi-gcc/10.3-2021.07/gcc/arm-none-eabi/include/c++/10.3.1/cmath ****   log(float __x)
 339:/opt/homebrew/Cellar/arm-none-eabi-gcc/10.3-2021.07/gcc/arm-none-eabi/include/c++/10.3.1/cmath ****   { return __builtin_logf(__x); }
 340:/opt/homebrew/Cellar/arm-none-eabi-gcc/10.3-2021.07/gcc/arm-none-eabi/include/c++/10.3.1/cmath **** 
 341:/opt/homebrew/Cellar/arm-none-eabi-gcc/10.3-2021.07/gcc/arm-none-eabi/include/c++/10.3.1/cmath ****   inline _GLIBCXX_CONSTEXPR long double
 342:/opt/homebrew/Cellar/arm-none-eabi-gcc/10.3-2021.07/gcc/arm-none-eabi/include/c++/10.3.1/cmath ****   log(long double __x)
 343:/opt/homebrew/Cellar/arm-none-eabi-gcc/10.3-2021.07/gcc/arm-none-eabi/include/c++/10.3.1/cmath ****   { return __builtin_logl(__x); }
 344:/opt/homebrew/Cellar/arm-none-eabi-gcc/10.3-2021.07/gcc/arm-none-eabi/include/c++/10.3.1/cmath **** #endif
 345:/opt/homebrew/Cellar/arm-none-eabi-gcc/10.3-2021.07/gcc/arm-none-eabi/include/c++/10.3.1/cmath **** 
 346:/opt/homebrew/Cellar/arm-none-eabi-gcc/10.3-2021.07/gcc/arm-none-eabi/include/c++/10.3.1/cmath ****   template<typename _Tp>
 347:/opt/homebrew/Cellar/arm-none-eabi-gcc/10.3-2021.07/gcc/arm-none-eabi/include/c++/10.3.1/cmath ****     inline _GLIBCXX_CONSTEXPR
 348:/opt/homebrew/Cellar/arm-none-eabi-gcc/10.3-2021.07/gcc/arm-none-eabi/include/c++/10.3.1/cmath ****     typename __gnu_cxx::__enable_if<__is_integer<_Tp>::__value, 
 349:/opt/homebrew/Cellar/arm-none-eabi-gcc/10.3-2021.07/gcc/arm-none-eabi/include/c++/10.3.1/cmath ****                                     double>::__type
 350:/opt/homebrew/Cellar/arm-none-eabi-gcc/10.3-2021.07/gcc/arm-none-eabi/include/c++/10.3.1/cmath ****     log(_Tp __x)
 351:/opt/homebrew/Cellar/arm-none-eabi-gcc/10.3-2021.07/gcc/arm-none-eabi/include/c++/10.3.1/cmath ****     { return __builtin_log(__x); }
 352:/opt/homebrew/Cellar/arm-none-eabi-gcc/10.3-2021.07/gcc/arm-none-eabi/include/c++/10.3.1/cmath **** 
 353:/opt/homebrew/Cellar/arm-none-eabi-gcc/10.3-2021.07/gcc/arm-none-eabi/include/c++/10.3.1/cmath ****   using ::log10;
 354:/opt/homebrew/Cellar/arm-none-eabi-gcc/10.3-2021.07/gcc/arm-none-eabi/include/c++/10.3.1/cmath **** 
 355:/opt/homebrew/Cellar/arm-none-eabi-gcc/10.3-2021.07/gcc/arm-none-eabi/include/c++/10.3.1/cmath **** #ifndef __CORRECT_ISO_CPP_MATH_H_PROTO
 356:/opt/homebrew/Cellar/arm-none-eabi-gcc/10.3-2021.07/gcc/arm-none-eabi/include/c++/10.3.1/cmath ****   inline _GLIBCXX_CONSTEXPR float
 357:/opt/homebrew/Cellar/arm-none-eabi-gcc/10.3-2021.07/gcc/arm-none-eabi/include/c++/10.3.1/cmath ****   log10(float __x)
 358:/opt/homebrew/Cellar/arm-none-eabi-gcc/10.3-2021.07/gcc/arm-none-eabi/include/c++/10.3.1/cmath ****   { return __builtin_log10f(__x); }
 359:/opt/homebrew/Cellar/arm-none-eabi-gcc/10.3-2021.07/gcc/arm-none-eabi/include/c++/10.3.1/cmath **** 
 360:/opt/homebrew/Cellar/arm-none-eabi-gcc/10.3-2021.07/gcc/arm-none-eabi/include/c++/10.3.1/cmath ****   inline _GLIBCXX_CONSTEXPR long double
ARM GAS  /var/folders/hl/qgbwny5j0fd895c2c41bk3tw0000gp/T//cceIFtrC.s 			page 125


 361:/opt/homebrew/Cellar/arm-none-eabi-gcc/10.3-2021.07/gcc/arm-none-eabi/include/c++/10.3.1/cmath ****   log10(long double __x)
 362:/opt/homebrew/Cellar/arm-none-eabi-gcc/10.3-2021.07/gcc/arm-none-eabi/include/c++/10.3.1/cmath ****   { return __builtin_log10l(__x); }
 363:/opt/homebrew/Cellar/arm-none-eabi-gcc/10.3-2021.07/gcc/arm-none-eabi/include/c++/10.3.1/cmath **** #endif
 364:/opt/homebrew/Cellar/arm-none-eabi-gcc/10.3-2021.07/gcc/arm-none-eabi/include/c++/10.3.1/cmath **** 
 365:/opt/homebrew/Cellar/arm-none-eabi-gcc/10.3-2021.07/gcc/arm-none-eabi/include/c++/10.3.1/cmath ****   template<typename _Tp>
 366:/opt/homebrew/Cellar/arm-none-eabi-gcc/10.3-2021.07/gcc/arm-none-eabi/include/c++/10.3.1/cmath ****     inline _GLIBCXX_CONSTEXPR
 367:/opt/homebrew/Cellar/arm-none-eabi-gcc/10.3-2021.07/gcc/arm-none-eabi/include/c++/10.3.1/cmath ****     typename __gnu_cxx::__enable_if<__is_integer<_Tp>::__value,
 368:/opt/homebrew/Cellar/arm-none-eabi-gcc/10.3-2021.07/gcc/arm-none-eabi/include/c++/10.3.1/cmath ****                                     double>::__type
 369:/opt/homebrew/Cellar/arm-none-eabi-gcc/10.3-2021.07/gcc/arm-none-eabi/include/c++/10.3.1/cmath ****     log10(_Tp __x)
 370:/opt/homebrew/Cellar/arm-none-eabi-gcc/10.3-2021.07/gcc/arm-none-eabi/include/c++/10.3.1/cmath ****     { return __builtin_log10(__x); }
 371:/opt/homebrew/Cellar/arm-none-eabi-gcc/10.3-2021.07/gcc/arm-none-eabi/include/c++/10.3.1/cmath **** 
 372:/opt/homebrew/Cellar/arm-none-eabi-gcc/10.3-2021.07/gcc/arm-none-eabi/include/c++/10.3.1/cmath ****   using ::modf;
 373:/opt/homebrew/Cellar/arm-none-eabi-gcc/10.3-2021.07/gcc/arm-none-eabi/include/c++/10.3.1/cmath **** 
 374:/opt/homebrew/Cellar/arm-none-eabi-gcc/10.3-2021.07/gcc/arm-none-eabi/include/c++/10.3.1/cmath **** #ifndef __CORRECT_ISO_CPP_MATH_H_PROTO
 375:/opt/homebrew/Cellar/arm-none-eabi-gcc/10.3-2021.07/gcc/arm-none-eabi/include/c++/10.3.1/cmath ****   inline float
 376:/opt/homebrew/Cellar/arm-none-eabi-gcc/10.3-2021.07/gcc/arm-none-eabi/include/c++/10.3.1/cmath ****   modf(float __x, float* __iptr)
 377:/opt/homebrew/Cellar/arm-none-eabi-gcc/10.3-2021.07/gcc/arm-none-eabi/include/c++/10.3.1/cmath ****   { return __builtin_modff(__x, __iptr); }
 378:/opt/homebrew/Cellar/arm-none-eabi-gcc/10.3-2021.07/gcc/arm-none-eabi/include/c++/10.3.1/cmath **** 
 379:/opt/homebrew/Cellar/arm-none-eabi-gcc/10.3-2021.07/gcc/arm-none-eabi/include/c++/10.3.1/cmath ****   inline long double
 380:/opt/homebrew/Cellar/arm-none-eabi-gcc/10.3-2021.07/gcc/arm-none-eabi/include/c++/10.3.1/cmath ****   modf(long double __x, long double* __iptr)
 381:/opt/homebrew/Cellar/arm-none-eabi-gcc/10.3-2021.07/gcc/arm-none-eabi/include/c++/10.3.1/cmath ****   { return __builtin_modfl(__x, __iptr); }
 382:/opt/homebrew/Cellar/arm-none-eabi-gcc/10.3-2021.07/gcc/arm-none-eabi/include/c++/10.3.1/cmath **** #endif
 383:/opt/homebrew/Cellar/arm-none-eabi-gcc/10.3-2021.07/gcc/arm-none-eabi/include/c++/10.3.1/cmath **** 
 384:/opt/homebrew/Cellar/arm-none-eabi-gcc/10.3-2021.07/gcc/arm-none-eabi/include/c++/10.3.1/cmath ****   using ::pow;
 385:/opt/homebrew/Cellar/arm-none-eabi-gcc/10.3-2021.07/gcc/arm-none-eabi/include/c++/10.3.1/cmath **** 
 386:/opt/homebrew/Cellar/arm-none-eabi-gcc/10.3-2021.07/gcc/arm-none-eabi/include/c++/10.3.1/cmath **** #ifndef __CORRECT_ISO_CPP_MATH_H_PROTO
 387:/opt/homebrew/Cellar/arm-none-eabi-gcc/10.3-2021.07/gcc/arm-none-eabi/include/c++/10.3.1/cmath ****   inline _GLIBCXX_CONSTEXPR float
 388:/opt/homebrew/Cellar/arm-none-eabi-gcc/10.3-2021.07/gcc/arm-none-eabi/include/c++/10.3.1/cmath ****   pow(float __x, float __y)
 389:/opt/homebrew/Cellar/arm-none-eabi-gcc/10.3-2021.07/gcc/arm-none-eabi/include/c++/10.3.1/cmath ****   { return __builtin_powf(__x, __y); }
 390:/opt/homebrew/Cellar/arm-none-eabi-gcc/10.3-2021.07/gcc/arm-none-eabi/include/c++/10.3.1/cmath **** 
 391:/opt/homebrew/Cellar/arm-none-eabi-gcc/10.3-2021.07/gcc/arm-none-eabi/include/c++/10.3.1/cmath ****   inline _GLIBCXX_CONSTEXPR long double
 392:/opt/homebrew/Cellar/arm-none-eabi-gcc/10.3-2021.07/gcc/arm-none-eabi/include/c++/10.3.1/cmath ****   pow(long double __x, long double __y)
 393:/opt/homebrew/Cellar/arm-none-eabi-gcc/10.3-2021.07/gcc/arm-none-eabi/include/c++/10.3.1/cmath ****   { return __builtin_powl(__x, __y); }
 394:/opt/homebrew/Cellar/arm-none-eabi-gcc/10.3-2021.07/gcc/arm-none-eabi/include/c++/10.3.1/cmath **** 
 395:/opt/homebrew/Cellar/arm-none-eabi-gcc/10.3-2021.07/gcc/arm-none-eabi/include/c++/10.3.1/cmath **** #if __cplusplus < 201103L
 396:/opt/homebrew/Cellar/arm-none-eabi-gcc/10.3-2021.07/gcc/arm-none-eabi/include/c++/10.3.1/cmath ****   // _GLIBCXX_RESOLVE_LIB_DEFECTS
 397:/opt/homebrew/Cellar/arm-none-eabi-gcc/10.3-2021.07/gcc/arm-none-eabi/include/c++/10.3.1/cmath ****   // DR 550. What should the return type of pow(float,int) be?
 398:/opt/homebrew/Cellar/arm-none-eabi-gcc/10.3-2021.07/gcc/arm-none-eabi/include/c++/10.3.1/cmath ****   inline double
 399:/opt/homebrew/Cellar/arm-none-eabi-gcc/10.3-2021.07/gcc/arm-none-eabi/include/c++/10.3.1/cmath ****   pow(double __x, int __i)
 400:/opt/homebrew/Cellar/arm-none-eabi-gcc/10.3-2021.07/gcc/arm-none-eabi/include/c++/10.3.1/cmath ****   { return __builtin_powi(__x, __i); }
 401:/opt/homebrew/Cellar/arm-none-eabi-gcc/10.3-2021.07/gcc/arm-none-eabi/include/c++/10.3.1/cmath **** 
 402:/opt/homebrew/Cellar/arm-none-eabi-gcc/10.3-2021.07/gcc/arm-none-eabi/include/c++/10.3.1/cmath ****   inline float
 403:/opt/homebrew/Cellar/arm-none-eabi-gcc/10.3-2021.07/gcc/arm-none-eabi/include/c++/10.3.1/cmath ****   pow(float __x, int __n)
 404:/opt/homebrew/Cellar/arm-none-eabi-gcc/10.3-2021.07/gcc/arm-none-eabi/include/c++/10.3.1/cmath ****   { return __builtin_powif(__x, __n); }
 405:/opt/homebrew/Cellar/arm-none-eabi-gcc/10.3-2021.07/gcc/arm-none-eabi/include/c++/10.3.1/cmath **** 
 406:/opt/homebrew/Cellar/arm-none-eabi-gcc/10.3-2021.07/gcc/arm-none-eabi/include/c++/10.3.1/cmath ****   inline long double
 407:/opt/homebrew/Cellar/arm-none-eabi-gcc/10.3-2021.07/gcc/arm-none-eabi/include/c++/10.3.1/cmath ****   pow(long double __x, int __n)
 408:/opt/homebrew/Cellar/arm-none-eabi-gcc/10.3-2021.07/gcc/arm-none-eabi/include/c++/10.3.1/cmath ****   { return __builtin_powil(__x, __n); }
 409:/opt/homebrew/Cellar/arm-none-eabi-gcc/10.3-2021.07/gcc/arm-none-eabi/include/c++/10.3.1/cmath **** #endif
 410:/opt/homebrew/Cellar/arm-none-eabi-gcc/10.3-2021.07/gcc/arm-none-eabi/include/c++/10.3.1/cmath **** #endif
 411:/opt/homebrew/Cellar/arm-none-eabi-gcc/10.3-2021.07/gcc/arm-none-eabi/include/c++/10.3.1/cmath **** 
 412:/opt/homebrew/Cellar/arm-none-eabi-gcc/10.3-2021.07/gcc/arm-none-eabi/include/c++/10.3.1/cmath ****   template<typename _Tp, typename _Up>
 413:/opt/homebrew/Cellar/arm-none-eabi-gcc/10.3-2021.07/gcc/arm-none-eabi/include/c++/10.3.1/cmath ****     inline _GLIBCXX_CONSTEXPR
 414:/opt/homebrew/Cellar/arm-none-eabi-gcc/10.3-2021.07/gcc/arm-none-eabi/include/c++/10.3.1/cmath ****     typename __gnu_cxx::__promote_2<_Tp, _Up>::__type
 415:/opt/homebrew/Cellar/arm-none-eabi-gcc/10.3-2021.07/gcc/arm-none-eabi/include/c++/10.3.1/cmath ****     pow(_Tp __x, _Up __y)
 416:/opt/homebrew/Cellar/arm-none-eabi-gcc/10.3-2021.07/gcc/arm-none-eabi/include/c++/10.3.1/cmath ****     {
 417:/opt/homebrew/Cellar/arm-none-eabi-gcc/10.3-2021.07/gcc/arm-none-eabi/include/c++/10.3.1/cmath ****       typedef typename __gnu_cxx::__promote_2<_Tp, _Up>::__type __type;
ARM GAS  /var/folders/hl/qgbwny5j0fd895c2c41bk3tw0000gp/T//cceIFtrC.s 			page 126


 418:/opt/homebrew/Cellar/arm-none-eabi-gcc/10.3-2021.07/gcc/arm-none-eabi/include/c++/10.3.1/cmath ****       return pow(__type(__x), __type(__y));
 419:/opt/homebrew/Cellar/arm-none-eabi-gcc/10.3-2021.07/gcc/arm-none-eabi/include/c++/10.3.1/cmath ****     }
 420:/opt/homebrew/Cellar/arm-none-eabi-gcc/10.3-2021.07/gcc/arm-none-eabi/include/c++/10.3.1/cmath **** 
 421:/opt/homebrew/Cellar/arm-none-eabi-gcc/10.3-2021.07/gcc/arm-none-eabi/include/c++/10.3.1/cmath ****   using ::sin;
 422:/opt/homebrew/Cellar/arm-none-eabi-gcc/10.3-2021.07/gcc/arm-none-eabi/include/c++/10.3.1/cmath **** 
 423:/opt/homebrew/Cellar/arm-none-eabi-gcc/10.3-2021.07/gcc/arm-none-eabi/include/c++/10.3.1/cmath **** #ifndef __CORRECT_ISO_CPP_MATH_H_PROTO
 424:/opt/homebrew/Cellar/arm-none-eabi-gcc/10.3-2021.07/gcc/arm-none-eabi/include/c++/10.3.1/cmath ****   inline _GLIBCXX_CONSTEXPR float
 425:/opt/homebrew/Cellar/arm-none-eabi-gcc/10.3-2021.07/gcc/arm-none-eabi/include/c++/10.3.1/cmath ****   sin(float __x)
 426:/opt/homebrew/Cellar/arm-none-eabi-gcc/10.3-2021.07/gcc/arm-none-eabi/include/c++/10.3.1/cmath ****   { return __builtin_sinf(__x); }
 3895              		.loc 19 426 26 view .LVU883
 3896 0068 B0EE680A 		vmov.f32	s0, s17
 3897 006c FFF7FEFF 		bl	sinf
 3898              	.LVL254:
 3899              	.LBE1277:
 3900              	.LBE1276:
 316:../../libDaisy//src/hid/disp/display.h ****         end_x   = cos(end_angle_rad) * radius;
 3901              		.loc 9 316 17 view .LVU884
 3902 0070 60EE698A 		vnmul.f32	s17, s0, s19
 3903              	.LVL255:
 3904              	.LBB1279:
 3905              	.LBB1280:
 185:/opt/homebrew/Cellar/arm-none-eabi-gcc/10.3-2021.07/gcc/arm-none-eabi/include/c++/10.3.1/cmath **** 
 3906              		.loc 19 185 26 view .LVU885
 3907 0074 B0EE4A0A 		vmov.f32	s0, s20
 3908 0078 FFF7FEFF 		bl	cosf
 3909              	.LVL256:
 3910 007c B0EE409A 		vmov.f32	s18, s0
 3911              	.LBE1280:
 3912              	.LBE1279:
 3913              	.LBB1282:
 3914              	.LBB1283:
 3915              		.loc 19 426 26 view .LVU886
 3916 0080 B0EE4A0A 		vmov.f32	s0, s20
 3917 0084 FFF7FEFF 		bl	sinf
 3918              	.LVL257:
 3919              	.LBE1283:
 3920              	.LBE1282:
 318:../../libDaisy//src/hid/disp/display.h **** 
 3921              		.loc 9 318 17 view .LVU887
 3922 0088 20EE690A 		vnmul.f32	s0, s0, s19
 315:../../libDaisy//src/hid/disp/display.h ****         start_y = -sin(start_angle_rad) * radius;
 3923              		.loc 9 315 17 view .LVU888
 3924 008c 29EE888A 		vmul.f32	s16, s19, s16
 3925              	.LVL258:
 3926              	.LBB1285:
 3927              	.LBI1276:
 425:/opt/homebrew/Cellar/arm-none-eabi-gcc/10.3-2021.07/gcc/arm-none-eabi/include/c++/10.3.1/cmath ****   { return __builtin_sinf(__x); }
 3928              		.loc 19 425 3 is_stmt 1 view .LVU889
 3929              	.LBB1278:
 3930              		.loc 19 426 5 view .LVU890
 3931              		.loc 19 426 5 is_stmt 0 view .LVU891
 3932              	.LBE1278:
 3933              	.LBE1285:
 3934              	.LBB1286:
 3935              	.LBI1279:
 184:/opt/homebrew/Cellar/arm-none-eabi-gcc/10.3-2021.07/gcc/arm-none-eabi/include/c++/10.3.1/cmath ****   { return __builtin_cosf(__x); }
 3936              		.loc 19 184 3 is_stmt 1 view .LVU892
ARM GAS  /var/folders/hl/qgbwny5j0fd895c2c41bk3tw0000gp/T//cceIFtrC.s 			page 127


 3937              	.LBB1281:
 185:/opt/homebrew/Cellar/arm-none-eabi-gcc/10.3-2021.07/gcc/arm-none-eabi/include/c++/10.3.1/cmath **** 
 3938              		.loc 19 185 5 view .LVU893
 185:/opt/homebrew/Cellar/arm-none-eabi-gcc/10.3-2021.07/gcc/arm-none-eabi/include/c++/10.3.1/cmath **** 
 3939              		.loc 19 185 5 is_stmt 0 view .LVU894
 3940              	.LBE1281:
 3941              	.LBE1286:
 317:../../libDaisy//src/hid/disp/display.h ****         end_y   = -sin(end_angle_rad) * radius;
 3942              		.loc 9 317 17 view .LVU895
 3943 0090 29EE899A 		vmul.f32	s18, s19, s18
 3944              	.LVL259:
 3945              	.LBB1287:
 3946              	.LBI1282:
 425:/opt/homebrew/Cellar/arm-none-eabi-gcc/10.3-2021.07/gcc/arm-none-eabi/include/c++/10.3.1/cmath ****   { return __builtin_sinf(__x); }
 3947              		.loc 19 425 3 is_stmt 1 view .LVU896
 3948              	.LBB1284:
 3949              		.loc 19 426 5 view .LVU897
 3950              		.loc 19 426 5 is_stmt 0 view .LVU898
 3951              	.LBE1284:
 3952              	.LBE1287:
 322:../../libDaisy//src/hid/disp/display.h ****            < 2.0f)
 3953              		.loc 9 322 25 view .LVU899
 3954 0094 70EE687A 		vsub.f32	s15, s0, s17
 321:../../libDaisy//src/hid/disp/display.h ****                + (end_y - start_y) * (end_y - start_y)
 3955              		.loc 9 321 9 view .LVU900
 3956 0098 F0EE006A 		vmov.f32	s13, #2.0e+0
 321:../../libDaisy//src/hid/disp/display.h ****                + (end_y - start_y) * (end_y - start_y)
 3957              		.loc 9 321 19 view .LVU901
 3958 009c 39EE487A 		vsub.f32	s14, s18, s16
 322:../../libDaisy//src/hid/disp/display.h ****            < 2.0f)
 3959              		.loc 9 322 36 view .LVU902
 3960 00a0 67EEA77A 		vmul.f32	s15, s15, s15
 322:../../libDaisy//src/hid/disp/display.h ****            < 2.0f)
 3961              		.loc 9 322 16 view .LVU903
 3962 00a4 E7EE077A 		vfma.f32	s15, s14, s14
 321:../../libDaisy//src/hid/disp/display.h ****                + (end_y - start_y) * (end_y - start_y)
 3963              		.loc 9 321 9 view .LVU904
 3964 00a8 F4EEE67A 		vcmpe.f32	s15, s13
 3965 00ac F1EE10FA 		vmrs	APSR_nzcv, FPSCR
 3966 00b0 06D5     		bpl	.L305
 325:../../libDaisy//src/hid/disp/display.h ****                 circle = true;
 3967              		.loc 9 325 13 view .LVU905
 3968 00b2 139B     		ldr	r3, [sp, #76]
 3969 00b4 B42B     		cmp	r3, #180
 3970 00b6 40F39680 		ble	.L246
 326:../../libDaisy//src/hid/disp/display.h ****             else
 3971              		.loc 9 326 24 view .LVU906
 3972 00ba 4FF00109 		mov	r9, #1
 3973 00be 01E0     		b	.L249
 3974              	.L305:
 304:../../libDaisy//src/hid/disp/display.h **** 
 3975              		.loc 9 304 14 view .LVU907
 3976 00c0 4FF00009 		mov	r9, #0
 3977              	.L249:
 3978              	.LVL260:
 302:../../libDaisy//src/hid/disp/display.h **** 
 3979              		.loc 9 302 27 view .LVU908
ARM GAS  /var/folders/hl/qgbwny5j0fd895c2c41bk3tw0000gp/T//cceIFtrC.s 			page 128


 3980 00c4 0124     		movs	r4, #1
 332:../../libDaisy//src/hid/disp/display.h ****         t_y = 0;
 3981              		.loc 9 332 13 view .LVU909
 3982 00c6 7842     		rsbs	r0, r7, #0
 3983              	.LVL261:
 333:../../libDaisy//src/hid/disp/display.h ****         err = 2 - 2 * radius;
 3984              		.loc 9 333 13 view .LVU910
 3985 00c8 4FF0000C 		mov	ip, #0
 3986 00cc 0095     		str	r5, [sp]
 334:../../libDaisy//src/hid/disp/display.h **** 
 3987              		.loc 9 334 17 view .LVU911
 3988 00ce E31B     		subs	r3, r4, r7
 302:../../libDaisy//src/hid/disp/display.h **** 
 3989              		.loc 9 302 17 view .LVU912
 3990 00d0 2146     		mov	r1, r4
 302:../../libDaisy//src/hid/disp/display.h **** 
 3991              		.loc 9 302 22 view .LVU913
 3992 00d2 2746     		mov	r7, r4
 3993              	.LVL262:
 302:../../libDaisy//src/hid/disp/display.h **** 
 3994              		.loc 9 302 12 view .LVU914
 3995 00d4 2246     		mov	r2, r4
 334:../../libDaisy//src/hid/disp/display.h **** 
 3996              		.loc 9 334 17 view .LVU915
 3997 00d6 A340     		lsls	r3, r3, r4
 3998              	.LVL263:
 3999              	.L275:
 338:../../libDaisy//src/hid/disp/display.h ****             {
 4000              		.loc 9 338 13 view .LVU916
 4001 00d8 B9F1000F 		cmp	r9, #0
 4002 00dc 6AD1     		bne	.L251
 343:../../libDaisy//src/hid/disp/display.h ****                 t_exy  = end_x * t_y;
 4003              		.loc 9 343 34 view .LVU917
 4004 00de 4242     		rsbs	r2, r0, #0
 4005              	.LVL264:
 340:../../libDaisy//src/hid/disp/display.h ****                 t_syx  = start_y * t_x;
 4006              		.loc 9 340 24 view .LVU918
 4007 00e0 06EE90CA 		vmov	s13, ip	@ int
 342:../../libDaisy//src/hid/disp/display.h ****                 t_synx = start_y * -t_x;
 4008              		.loc 9 342 34 view .LVU919
 4009 00e4 CCF10001 		rsb	r1, ip, #0
 4010              	.LVL265:
 343:../../libDaisy//src/hid/disp/display.h ****                 t_exy  = end_x * t_y;
 4011              		.loc 9 343 34 view .LVU920
 4012 00e8 07EE102A 		vmov	s14, r2	@ int
 340:../../libDaisy//src/hid/disp/display.h ****                 t_syx  = start_y * t_x;
 4013              		.loc 9 340 24 view .LVU921
 4014 00ec B8EEE66A 		vcvt.f32.s32	s12, s13
 342:../../libDaisy//src/hid/disp/display.h ****                 t_synx = start_y * -t_x;
 4015              		.loc 9 342 34 view .LVU922
 4016 00f0 07EE901A 		vmov	s15, r1	@ int
 341:../../libDaisy//src/hid/disp/display.h ****                 t_sxny = start_x * -t_y;
 4017              		.loc 9 341 24 view .LVU923
 4018 00f4 06EE900A 		vmov	s13, r0	@ int
 343:../../libDaisy//src/hid/disp/display.h ****                 t_exy  = end_x * t_y;
 4019              		.loc 9 343 34 view .LVU924
 4020 00f8 B8EEC77A 		vcvt.f32.s32	s14, s14
ARM GAS  /var/folders/hl/qgbwny5j0fd895c2c41bk3tw0000gp/T//cceIFtrC.s 			page 129


 349:../../libDaisy//src/hid/disp/display.h ****                 {
 4021              		.loc 9 349 17 view .LVU925
 4022 00fc 139A     		ldr	r2, [sp, #76]
 340:../../libDaisy//src/hid/disp/display.h ****                 t_syx  = start_y * t_x;
 4023              		.loc 9 340 24 view .LVU926
 4024 00fe 66EE084A 		vmul.f32	s9, s12, s16
 4025              	.LVL266:
 342:../../libDaisy//src/hid/disp/display.h ****                 t_synx = start_y * -t_x;
 4026              		.loc 9 342 34 view .LVU927
 4027 0102 F8EEE77A 		vcvt.f32.s32	s15, s15
 349:../../libDaisy//src/hid/disp/display.h ****                 {
 4028              		.loc 9 349 17 view .LVU928
 4029 0106 B42A     		cmp	r2, #180
 343:../../libDaisy//src/hid/disp/display.h ****                 t_exy  = end_x * t_y;
 4030              		.loc 9 343 24 view .LVU929
 4031 0108 27EE284A 		vmul.f32	s8, s14, s17
 341:../../libDaisy//src/hid/disp/display.h ****                 t_sxny = start_x * -t_y;
 4032              		.loc 9 341 24 view .LVU930
 4033 010c F8EEE66A 		vcvt.f32.s32	s13, s13
 342:../../libDaisy//src/hid/disp/display.h ****                 t_synx = start_y * -t_x;
 4034              		.loc 9 342 24 view .LVU931
 4035 0110 67EE885A 		vmul.f32	s11, s15, s16
 351:../../libDaisy//src/hid/disp/display.h ****                     d2 = (t_sxy - t_syx < 0 || t_exy - t_eyx > 0);
 4036              		.loc 9 351 33 view .LVU932
 4037 0114 74EEC43A 		vsub.f32	s7, s9, s8
 341:../../libDaisy//src/hid/disp/display.h ****                 t_sxny = start_x * -t_y;
 4038              		.loc 9 341 24 view .LVU933
 4039 0118 26EEA85A 		vmul.f32	s10, s13, s17
 4040              	.LVL267:
 344:../../libDaisy//src/hid/disp/display.h ****                 t_eyx  = end_y * t_x;
 4041              		.loc 9 344 24 view .LVU934
 4042 011c 26EE096A 		vmul.f32	s12, s12, s18
 4043              	.LVL268:
 345:../../libDaisy//src/hid/disp/display.h ****                 t_exny = end_x * -t_y;
 4044              		.loc 9 345 24 view .LVU935
 4045 0120 66EE806A 		vmul.f32	s13, s13, s0
 4046              	.LVL269:
 346:../../libDaisy//src/hid/disp/display.h ****                 t_eynx = end_y * -t_x;
 4047              		.loc 9 346 24 view .LVU936
 4048 0124 67EE897A 		vmul.f32	s15, s15, s18
 4049              	.LVL270:
 347:../../libDaisy//src/hid/disp/display.h **** 
 4050              		.loc 9 347 24 view .LVU937
 4051 0128 27EE007A 		vmul.f32	s14, s14, s0
 4052              	.LVL271:
 351:../../libDaisy//src/hid/disp/display.h ****                     d2 = (t_sxy - t_syx < 0 || t_exy - t_eyx > 0);
 4053              		.loc 9 351 46 view .LVU938
 4054 012c F5EEC03A 		vcmpe.f32	s7, #0
 349:../../libDaisy//src/hid/disp/display.h ****                 {
 4055              		.loc 9 349 17 view .LVU939
 4056 0130 40F3F280 		ble	.L252
 351:../../libDaisy//src/hid/disp/display.h ****                     d2 = (t_sxy - t_syx < 0 || t_exy - t_eyx > 0);
 4057              		.loc 9 351 46 view .LVU940
 4058 0134 F1EE10FA 		vmrs	APSR_nzcv, FPSCR
 4059 0138 00F17F81 		bmi	.L278
 351:../../libDaisy//src/hid/disp/display.h ****                     d2 = (t_sxy - t_syx < 0 || t_exy - t_eyx > 0);
 4060              		.loc 9 351 55 discriminator 2 view .LVU941
ARM GAS  /var/folders/hl/qgbwny5j0fd895c2c41bk3tw0000gp/T//cceIFtrC.s 			page 130


 4061 013c 76EE473A 		vsub.f32	s7, s12, s14
 352:../../libDaisy//src/hid/disp/display.h ****                     d3 = (t_sxny - t_syx < 0 || t_exny - t_eyx > 0);
 4062              		.loc 9 352 33 discriminator 2 view .LVU942
 4063 0140 74EEC54A 		vsub.f32	s9, s9, s10
 4064              	.LVL272:
 351:../../libDaisy//src/hid/disp/display.h ****                     d2 = (t_sxy - t_syx < 0 || t_exy - t_eyx > 0);
 4065              		.loc 9 351 46 discriminator 2 view .LVU943
 4066 0144 F5EEC03A 		vcmpe.f32	s7, #0
 4067 0148 F1EE10FA 		vmrs	APSR_nzcv, FPSCR
 352:../../libDaisy//src/hid/disp/display.h ****                     d3 = (t_sxny - t_syx < 0 || t_exny - t_eyx > 0);
 4068              		.loc 9 352 45 discriminator 2 view .LVU944
 4069 014c F5EEC04A 		vcmpe.f32	s9, #0
 351:../../libDaisy//src/hid/disp/display.h ****                     d2 = (t_sxy - t_syx < 0 || t_exy - t_eyx > 0);
 4070              		.loc 9 351 46 discriminator 2 view .LVU945
 4071 0150 CCBF     		ite	gt
 4072 0152 0122     		movgt	r2, #1
 4073 0154 0022     		movle	r2, #0
 4074              	.LVL273:
 352:../../libDaisy//src/hid/disp/display.h ****                     d3 = (t_sxny - t_syx < 0 || t_exny - t_eyx > 0);
 4075              		.loc 9 352 45 discriminator 2 view .LVU946
 4076 0156 F1EE10FA 		vmrs	APSR_nzcv, FPSCR
 4077 015a 00F17781 		bmi	.L279
 4078              	.L321:
 352:../../libDaisy//src/hid/disp/display.h ****                     d3 = (t_sxny - t_syx < 0 || t_exny - t_eyx > 0);
 4079              		.loc 9 352 54 discriminator 2 view .LVU947
 4080 015e 36EE666A 		vsub.f32	s12, s12, s13
 4081              	.LVL274:
 353:../../libDaisy//src/hid/disp/display.h ****                     d4 = (t_sxny - t_synx < 0 || t_exny - t_eynx > 0);
 4082              		.loc 9 353 34 discriminator 2 view .LVU948
 4083 0162 35EEC55A 		vsub.f32	s10, s11, s10
 4084              	.LVL275:
 352:../../libDaisy//src/hid/disp/display.h ****                     d3 = (t_sxny - t_syx < 0 || t_exny - t_eyx > 0);
 4085              		.loc 9 352 45 discriminator 2 view .LVU949
 4086 0166 B5EEC06A 		vcmpe.f32	s12, #0
 4087 016a F1EE10FA 		vmrs	APSR_nzcv, FPSCR
 353:../../libDaisy//src/hid/disp/display.h ****                     d4 = (t_sxny - t_synx < 0 || t_exny - t_eynx > 0);
 4088              		.loc 9 353 46 discriminator 2 view .LVU950
 4089 016e B5EEC05A 		vcmpe.f32	s10, #0
 352:../../libDaisy//src/hid/disp/display.h ****                     d3 = (t_sxny - t_syx < 0 || t_exny - t_eyx > 0);
 4090              		.loc 9 352 45 discriminator 2 view .LVU951
 4091 0172 CCBF     		ite	gt
 4092 0174 0121     		movgt	r1, #1
 4093 0176 0021     		movle	r1, #0
 4094              	.LVL276:
 353:../../libDaisy//src/hid/disp/display.h ****                     d4 = (t_sxny - t_synx < 0 || t_exny - t_eynx > 0);
 4095              		.loc 9 353 46 discriminator 2 view .LVU952
 4096 0178 F1EE10FA 		vmrs	APSR_nzcv, FPSCR
 4097 017c 00F16F81 		bmi	.L280
 4098              	.L322:
 353:../../libDaisy//src/hid/disp/display.h ****                     d4 = (t_sxny - t_synx < 0 || t_exny - t_eynx > 0);
 4099              		.loc 9 353 56 discriminator 2 view .LVU953
 4100 0180 77EEE66A 		vsub.f32	s13, s15, s13
 4101              	.LVL277:
 353:../../libDaisy//src/hid/disp/display.h ****                     d4 = (t_sxny - t_synx < 0 || t_exny - t_eynx > 0);
 4102              		.loc 9 353 46 discriminator 2 view .LVU954
 4103 0184 F5EEC06A 		vcmpe.f32	s13, #0
 4104 0188 F1EE10FA 		vmrs	APSR_nzcv, FPSCR
ARM GAS  /var/folders/hl/qgbwny5j0fd895c2c41bk3tw0000gp/T//cceIFtrC.s 			page 131


 4105 018c CCBF     		ite	gt
 4106 018e 0127     		movgt	r7, #1
 4107              	.LVL278:
 353:../../libDaisy//src/hid/disp/display.h ****                     d4 = (t_sxny - t_synx < 0 || t_exny - t_eynx > 0);
 4108              		.loc 9 353 46 discriminator 2 view .LVU955
 4109 0190 0027     		movle	r7, #0
 4110              	.L255:
 4111              	.LVL279:
 354:../../libDaisy//src/hid/disp/display.h ****                 }
 4112              		.loc 9 354 34 discriminator 6 view .LVU956
 4113 0192 75EEC45A 		vsub.f32	s11, s11, s8
 4114              	.LVL280:
 354:../../libDaisy//src/hid/disp/display.h ****                 }
 4115              		.loc 9 354 47 discriminator 6 view .LVU957
 4116 0196 F5EEC05A 		vcmpe.f32	s11, #0
 4117 019a F1EE10FA 		vmrs	APSR_nzcv, FPSCR
 4118 019e 00F14781 		bmi	.L281
 4119              	.L311:
 361:../../libDaisy//src/hid/disp/display.h ****                 }
 4120              		.loc 9 361 57 discriminator 1 view .LVU958
 4121 01a2 77EEC77A 		vsub.f32	s15, s15, s14
 4122              	.LVL281:
 361:../../libDaisy//src/hid/disp/display.h ****                 }
 4123              		.loc 9 361 47 discriminator 1 view .LVU959
 4124 01a6 F5EEC07A 		vcmpe.f32	s15, #0
 4125 01aa F1EE10FA 		vmrs	APSR_nzcv, FPSCR
 4126 01ae CCBF     		ite	gt
 4127 01b0 0124     		movgt	r4, #1
 4128              	.LVL282:
 361:../../libDaisy//src/hid/disp/display.h ****                 }
 4129              		.loc 9 361 47 discriminator 1 view .LVU960
 4130 01b2 0024     		movle	r4, #0
 4131              	.LVL283:
 4132              	.L251:
 365:../../libDaisy//src/hid/disp/display.h ****                 ((ChildType*)(this))
 4133              		.loc 9 365 13 view .LVU961
 4134 01b4 002A     		cmp	r2, #0
 4135 01b6 40F08A80 		bne	.L312
 4136              	.L263:
 368:../../libDaisy//src/hid/disp/display.h ****                 ((ChildType*)(this))
 4137              		.loc 9 368 13 view .LVU962
 4138 01ba 0029     		cmp	r1, #0
 4139 01bc 64D1     		bne	.L313
 4140              	.L265:
 371:../../libDaisy//src/hid/disp/display.h ****                 ((ChildType*)(this))
 4141              		.loc 9 371 13 view .LVU963
 4142 01be BFB9     		cbnz	r7, .L314
 4143              	.L267:
 374:../../libDaisy//src/hid/disp/display.h ****                 ((ChildType*)(this))
 4144              		.loc 9 374 13 view .LVU964
 4145 01c0 C4BB     		cbnz	r4, .L315
 4146              	.L269:
 4147              	.LVL284:
 379:../../libDaisy//src/hid/disp/display.h ****             {
 4148              		.loc 9 379 13 view .LVU965
 4149 01c2 9C45     		cmp	ip, r3
 4150 01c4 58DB     		blt	.L286
ARM GAS  /var/folders/hl/qgbwny5j0fd895c2c41bk3tw0000gp/T//cceIFtrC.s 			page 132


 4151              	.L317:
 381:../../libDaisy//src/hid/disp/display.h ****                 err = err + (t_y * 2 + 1);
 4152              		.loc 9 381 17 view .LVU966
 4153 01c6 0CF1010C 		add	ip, ip, #1
 4154              	.LVL285:
 382:../../libDaisy//src/hid/disp/display.h ****                 if(-t_x == t_y && e2 <= t_x)
 4155              		.loc 9 382 38 view .LVU967
 4156 01ca 03EB4C0E 		add	lr, r3, ip, lsl #1
 383:../../libDaisy//src/hid/disp/display.h ****                 {
 4157              		.loc 9 383 17 view .LVU968
 4158 01ce 1CEB000F 		cmn	ip, r0
 382:../../libDaisy//src/hid/disp/display.h ****                 if(-t_x == t_y && e2 <= t_x)
 4159              		.loc 9 382 21 view .LVU969
 4160 01d2 0EF1010E 		add	lr, lr, #1
 4161              	.LVL286:
 383:../../libDaisy//src/hid/disp/display.h ****                 {
 4162              		.loc 9 383 17 view .LVU970
 4163 01d6 00F0C080 		beq	.L316
 4164              	.LVL287:
 4165              	.L271:
 388:../../libDaisy//src/hid/disp/display.h ****             {
 4166              		.loc 9 388 13 view .LVU971
 4167 01da 9842     		cmp	r0, r3
 4168 01dc 4FDB     		blt	.L272
 4169              	.L287:
 388:../../libDaisy//src/hid/disp/display.h ****             {
 4170              		.loc 9 388 13 view .LVU972
 4171 01de 7346     		mov	r3, lr
 4172              	.LVL288:
 4173              	.L273:
 393:../../libDaisy//src/hid/disp/display.h ****     }
 4174              		.loc 9 393 21 is_stmt 1 view .LVU973
 4175 01e0 0028     		cmp	r0, #0
 4176 01e2 7FF779AF 		ble	.L275
 4177              	.LVL289:
 4178              	.L246:
 394:../../libDaisy//src/hid/disp/display.h **** 
 4179              		.loc 9 394 5 is_stmt 0 view .LVU974
 4180 01e6 03B0     		add	sp, sp, #12
 4181              		.cfi_remember_state
 4182              		.cfi_def_cfa_offset 60
 4183              		@ sp needed
 4184 01e8 BDEC068B 		vldm	sp!, {d8-d10}
 4185              		.cfi_restore 84
 4186              		.cfi_restore 85
 4187              		.cfi_restore 82
 4188              		.cfi_restore 83
 4189              		.cfi_restore 80
 4190              		.cfi_restore 81
 4191              		.cfi_def_cfa_offset 36
 4192              	.LVL290:
 394:../../libDaisy//src/hid/disp/display.h **** 
 4193              		.loc 9 394 5 view .LVU975
 4194 01ec BDE8F08F 		pop	{r4, r5, r6, r7, r8, r9, r10, fp, pc}
 4195              	.LVL291:
 4196              	.L314:
 4197              		.cfi_restore_state
ARM GAS  /var/folders/hl/qgbwny5j0fd895c2c41bk3tw0000gp/T//cceIFtrC.s 			page 133


 373:../../libDaisy//src/hid/disp/display.h ****             if(d4)
 4198              		.loc 9 373 43 view .LVU976
 4199 01f0 009D     		ldr	r5, [sp]
 4200 01f2 A6EB0C0E 		sub	lr, r6, ip
 4201 01f6 00EB050A 		add	r10, r0, r5
 4202              	.LVL292:
 4203              	.LBB1288:
 4204              	.LBI1288:
  42:../../libDaisy//src/hid/disp/oled_display.h ****     {
 4205              		.loc 8 42 10 is_stmt 1 view .LVU977
 4206              	.LBB1289:
 4207              	.LBI1289:
 352:../../libDaisy//src/dev/oled_ssd130x.h ****     {
 4208              		.loc 15 352 10 view .LVU978
 4209              	.LBB1290:
 354:../../libDaisy//src/dev/oled_ssd130x.h ****             return;
 4210              		.loc 15 354 9 is_stmt 0 view .LVU979
 4211 01fa BAF17F0F 		cmp	r10, #127
 4212 01fe DFD8     		bhi	.L267
 4213 0200 BEF13F0F 		cmp	lr, #63
 4214 0204 DCD8     		bhi	.L267
 357:../../libDaisy//src/dev/oled_ssd130x.h ****         else
 4215              		.loc 15 357 28 view .LVU980
 4216 0206 4FEADE0B 		lsr	fp, lr, #3
 356:../../libDaisy//src/dev/oled_ssd130x.h ****             buffer_[x + (y / 8) * width] |= (1 << (y % 8));
 4217              		.loc 15 356 9 view .LVU981
 4218 020a 019D     		ldr	r5, [sp, #4]
 357:../../libDaisy//src/dev/oled_ssd130x.h ****         else
 4219              		.loc 15 357 42 view .LVU982
 4220 020c 0AEBCB1A 		add	r10, r10, fp, lsl #7
 4221              	.LVL293:
 356:../../libDaisy//src/dev/oled_ssd130x.h ****             buffer_[x + (y / 8) * width] |= (1 << (y % 8));
 4222              		.loc 15 356 9 view .LVU983
 4223 0210 002D     		cmp	r5, #0
 4224 0212 00F0B180 		beq	.L268
 357:../../libDaisy//src/dev/oled_ssd130x.h ****         else
 4225              		.loc 15 357 54 view .LVU984
 4226 0216 0EF0070B 		and	fp, lr, #7
 357:../../libDaisy//src/dev/oled_ssd130x.h ****         else
 4227              		.loc 15 357 42 view .LVU985
 4228 021a C244     		add	r10, r10, r8
 357:../../libDaisy//src/dev/oled_ssd130x.h ****         else
 4229              		.loc 15 357 48 view .LVU986
 4230 021c 4FF0010E 		mov	lr, #1
 4231              	.LVL294:
 357:../../libDaisy//src/dev/oled_ssd130x.h ****         else
 4232              		.loc 15 357 48 view .LVU987
 4233 0220 0EFA0BFE 		lsl	lr, lr, fp
 357:../../libDaisy//src/dev/oled_ssd130x.h ****         else
 4234              		.loc 15 357 42 view .LVU988
 4235 0224 9AF810B0 		ldrb	fp, [r10, #16]	@ zero_extendqisi2
 4236 0228 4EEA0B0E 		orr	lr, lr, fp
 4237 022c 8AF810E0 		strb	lr, [r10, #16]
 4238              	.LVL295:
 357:../../libDaisy//src/dev/oled_ssd130x.h ****         else
 4239              		.loc 15 357 42 view .LVU989
 4240              	.LBE1290:
ARM GAS  /var/folders/hl/qgbwny5j0fd895c2c41bk3tw0000gp/T//cceIFtrC.s 			page 134


 4241              	.LBE1289:
 4242              	.LBE1288:
 374:../../libDaisy//src/hid/disp/display.h ****                 ((ChildType*)(this))
 4243              		.loc 9 374 13 view .LVU990
 4244 0230 002C     		cmp	r4, #0
 4245 0232 C6D0     		beq	.L269
 4246              	.L315:
 376:../../libDaisy//src/hid/disp/display.h **** 
 4247              		.loc 9 376 43 view .LVU991
 4248 0234 009D     		ldr	r5, [sp]
 4249 0236 A6EB0C0E 		sub	lr, r6, ip
 4250 023a A5EB000A 		sub	r10, r5, r0
 4251              	.LVL296:
 4252              	.LBB1295:
 4253              	.LBI1295:
  42:../../libDaisy//src/hid/disp/oled_display.h ****     {
 4254              		.loc 8 42 10 is_stmt 1 view .LVU992
 4255              	.LBB1296:
 4256              	.LBI1296:
 352:../../libDaisy//src/dev/oled_ssd130x.h ****     {
 4257              		.loc 15 352 10 view .LVU993
 4258              	.LBB1297:
 354:../../libDaisy//src/dev/oled_ssd130x.h ****             return;
 4259              		.loc 15 354 9 is_stmt 0 view .LVU994
 4260 023e BAF17F0F 		cmp	r10, #127
 4261 0242 BED8     		bhi	.L269
 4262 0244 BEF13F0F 		cmp	lr, #63
 4263 0248 BBD8     		bhi	.L269
 357:../../libDaisy//src/dev/oled_ssd130x.h ****         else
 4264              		.loc 15 357 28 view .LVU995
 4265 024a 4FEADE0B 		lsr	fp, lr, #3
 356:../../libDaisy//src/dev/oled_ssd130x.h ****             buffer_[x + (y / 8) * width] |= (1 << (y % 8));
 4266              		.loc 15 356 9 view .LVU996
 4267 024e 019D     		ldr	r5, [sp, #4]
 357:../../libDaisy//src/dev/oled_ssd130x.h ****         else
 4268              		.loc 15 357 42 view .LVU997
 4269 0250 0AEBCB1A 		add	r10, r10, fp, lsl #7
 4270              	.LVL297:
 356:../../libDaisy//src/dev/oled_ssd130x.h ****             buffer_[x + (y / 8) * width] |= (1 << (y % 8));
 4271              		.loc 15 356 9 view .LVU998
 4272 0254 002D     		cmp	r5, #0
 4273 0256 00F0AE80 		beq	.L270
 357:../../libDaisy//src/dev/oled_ssd130x.h ****         else
 4274              		.loc 15 357 54 view .LVU999
 4275 025a 0EF0070B 		and	fp, lr, #7
 357:../../libDaisy//src/dev/oled_ssd130x.h ****         else
 4276              		.loc 15 357 42 view .LVU1000
 4277 025e C244     		add	r10, r10, r8
 357:../../libDaisy//src/dev/oled_ssd130x.h ****         else
 4278              		.loc 15 357 48 view .LVU1001
 4279 0260 4FF0010E 		mov	lr, #1
 4280              	.LVL298:
 357:../../libDaisy//src/dev/oled_ssd130x.h ****         else
 4281              		.loc 15 357 48 view .LVU1002
 4282              	.LBE1297:
 4283              	.LBE1296:
 4284              	.LBE1295:
ARM GAS  /var/folders/hl/qgbwny5j0fd895c2c41bk3tw0000gp/T//cceIFtrC.s 			page 135


 379:../../libDaisy//src/hid/disp/display.h ****             {
 4285              		.loc 9 379 13 view .LVU1003
 4286 0264 9C45     		cmp	ip, r3
 4287              	.LBB1304:
 4288              	.LBB1302:
 4289              	.LBB1300:
 357:../../libDaisy//src/dev/oled_ssd130x.h ****         else
 4290              		.loc 15 357 48 view .LVU1004
 4291 0266 0EFA0BFE 		lsl	lr, lr, fp
 357:../../libDaisy//src/dev/oled_ssd130x.h ****         else
 4292              		.loc 15 357 42 view .LVU1005
 4293 026a 9AF810B0 		ldrb	fp, [r10, #16]	@ zero_extendqisi2
 4294 026e 4EEA0B0E 		orr	lr, lr, fp
 4295 0272 8AF810E0 		strb	lr, [r10, #16]
 4296              	.LVL299:
 357:../../libDaisy//src/dev/oled_ssd130x.h ****         else
 4297              		.loc 15 357 42 view .LVU1006
 4298              	.LBE1300:
 4299              	.LBE1302:
 4300              	.LBE1304:
 379:../../libDaisy//src/hid/disp/display.h ****             {
 4301              		.loc 9 379 13 view .LVU1007
 4302 0276 A6DA     		bge	.L317
 4303              	.L286:
 388:../../libDaisy//src/hid/disp/display.h ****             {
 4304              		.loc 9 388 13 view .LVU1008
 4305 0278 9842     		cmp	r0, r3
 4306 027a 9E46     		mov	lr, r3
 4307              	.LVL300:
 388:../../libDaisy//src/hid/disp/display.h ****             {
 4308              		.loc 9 388 13 view .LVU1009
 4309 027c AFDA     		bge	.L287
 4310              	.LVL301:
 4311              	.L272:
 390:../../libDaisy//src/hid/disp/display.h ****                 err = err + (t_x * 2 + 1);
 4312              		.loc 9 390 17 view .LVU1010
 4313 027e 0130     		adds	r0, r0, #1
 4314              	.LVL302:
 391:../../libDaisy//src/hid/disp/display.h ****             }
 4315              		.loc 9 391 38 view .LVU1011
 4316 0280 0EEB4003 		add	r3, lr, r0, lsl #1
 391:../../libDaisy//src/hid/disp/display.h ****             }
 4317              		.loc 9 391 21 view .LVU1012
 4318 0284 0133     		adds	r3, r3, #1
 4319              	.LVL303:
 391:../../libDaisy//src/hid/disp/display.h ****             }
 4320              		.loc 9 391 21 view .LVU1013
 4321 0286 ABE7     		b	.L273
 4322              	.L313:
 370:../../libDaisy//src/hid/disp/display.h ****             if(d3)
 4323              		.loc 9 370 43 view .LVU1014
 4324 0288 009D     		ldr	r5, [sp]
 4325 028a 0CEB060E 		add	lr, ip, r6
 4326 028e 00EB050A 		add	r10, r0, r5
 4327              	.LVL304:
 4328              	.LBB1305:
 4329              	.LBI1305:
ARM GAS  /var/folders/hl/qgbwny5j0fd895c2c41bk3tw0000gp/T//cceIFtrC.s 			page 136


  42:../../libDaisy//src/hid/disp/oled_display.h ****     {
 4330              		.loc 8 42 10 is_stmt 1 view .LVU1015
 4331              	.LBB1306:
 4332              	.LBI1306:
 352:../../libDaisy//src/dev/oled_ssd130x.h ****     {
 4333              		.loc 15 352 10 view .LVU1016
 4334              	.LBB1307:
 354:../../libDaisy//src/dev/oled_ssd130x.h ****             return;
 4335              		.loc 15 354 9 is_stmt 0 view .LVU1017
 4336 0292 BAF17F0F 		cmp	r10, #127
 4337 0296 92D8     		bhi	.L265
 4338 0298 BEF13F0F 		cmp	lr, #63
 4339 029c 8FD8     		bhi	.L265
 357:../../libDaisy//src/dev/oled_ssd130x.h ****         else
 4340              		.loc 15 357 28 view .LVU1018
 4341 029e 4FEADE0B 		lsr	fp, lr, #3
 356:../../libDaisy//src/dev/oled_ssd130x.h ****             buffer_[x + (y / 8) * width] |= (1 << (y % 8));
 4342              		.loc 15 356 9 view .LVU1019
 4343 02a2 019D     		ldr	r5, [sp, #4]
 357:../../libDaisy//src/dev/oled_ssd130x.h ****         else
 4344              		.loc 15 357 42 view .LVU1020
 4345 02a4 0AEBCB1A 		add	r10, r10, fp, lsl #7
 4346              	.LVL305:
 356:../../libDaisy//src/dev/oled_ssd130x.h ****             buffer_[x + (y / 8) * width] |= (1 << (y % 8));
 4347              		.loc 15 356 9 view .LVU1021
 4348 02a8 002D     		cmp	r5, #0
 4349 02aa 73D0     		beq	.L266
 357:../../libDaisy//src/dev/oled_ssd130x.h ****         else
 4350              		.loc 15 357 54 view .LVU1022
 4351 02ac 0EF0070B 		and	fp, lr, #7
 357:../../libDaisy//src/dev/oled_ssd130x.h ****         else
 4352              		.loc 15 357 42 view .LVU1023
 4353 02b0 C244     		add	r10, r10, r8
 357:../../libDaisy//src/dev/oled_ssd130x.h ****         else
 4354              		.loc 15 357 48 view .LVU1024
 4355 02b2 4FF0010E 		mov	lr, #1
 4356              	.LVL306:
 357:../../libDaisy//src/dev/oled_ssd130x.h ****         else
 4357              		.loc 15 357 48 view .LVU1025
 4358 02b6 0EFA0BFE 		lsl	lr, lr, fp
 357:../../libDaisy//src/dev/oled_ssd130x.h ****         else
 4359              		.loc 15 357 42 view .LVU1026
 4360 02ba 9AF810B0 		ldrb	fp, [r10, #16]	@ zero_extendqisi2
 4361 02be 4EEA0B0E 		orr	lr, lr, fp
 4362 02c2 8AF810E0 		strb	lr, [r10, #16]
 4363              	.LVL307:
 357:../../libDaisy//src/dev/oled_ssd130x.h ****         else
 4364              		.loc 15 357 42 view .LVU1027
 4365              	.LBE1307:
 4366              	.LBE1306:
 4367              	.LBE1305:
 371:../../libDaisy//src/hid/disp/display.h ****                 ((ChildType*)(this))
 4368              		.loc 9 371 13 view .LVU1028
 4369 02c6 002F     		cmp	r7, #0
 4370 02c8 3FF47AAF 		beq	.L267
 4371 02cc 90E7     		b	.L314
 4372              	.L312:
ARM GAS  /var/folders/hl/qgbwny5j0fd895c2c41bk3tw0000gp/T//cceIFtrC.s 			page 137


 367:../../libDaisy//src/hid/disp/display.h ****             if(d2)
 4373              		.loc 9 367 43 view .LVU1029
 4374 02ce 009D     		ldr	r5, [sp]
 4375 02d0 0CEB060E 		add	lr, ip, r6
 4376 02d4 A5EB000A 		sub	r10, r5, r0
 4377              	.LVL308:
 4378              	.LBB1312:
 4379              	.LBI1312:
  42:../../libDaisy//src/hid/disp/oled_display.h ****     {
 4380              		.loc 8 42 10 is_stmt 1 view .LVU1030
 4381              	.LBB1313:
 4382              	.LBI1313:
 352:../../libDaisy//src/dev/oled_ssd130x.h ****     {
 4383              		.loc 15 352 10 view .LVU1031
 4384              	.LBB1314:
 354:../../libDaisy//src/dev/oled_ssd130x.h ****             return;
 4385              		.loc 15 354 9 is_stmt 0 view .LVU1032
 4386 02d8 BAF17F0F 		cmp	r10, #127
 4387 02dc 3FF66DAF 		bhi	.L263
 4388 02e0 BEF13F0F 		cmp	lr, #63
 4389 02e4 3FF669AF 		bhi	.L263
 357:../../libDaisy//src/dev/oled_ssd130x.h ****         else
 4390              		.loc 15 357 28 view .LVU1033
 4391 02e8 4FEADE0B 		lsr	fp, lr, #3
 356:../../libDaisy//src/dev/oled_ssd130x.h ****             buffer_[x + (y / 8) * width] |= (1 << (y % 8));
 4392              		.loc 15 356 9 view .LVU1034
 4393 02ec 019D     		ldr	r5, [sp, #4]
 357:../../libDaisy//src/dev/oled_ssd130x.h ****         else
 4394              		.loc 15 357 42 view .LVU1035
 4395 02ee 0AEBCB1A 		add	r10, r10, fp, lsl #7
 4396              	.LVL309:
 356:../../libDaisy//src/dev/oled_ssd130x.h ****             buffer_[x + (y / 8) * width] |= (1 << (y % 8));
 4397              		.loc 15 356 9 view .LVU1036
 4398 02f2 002D     		cmp	r5, #0
 4399 02f4 6DD0     		beq	.L264
 357:../../libDaisy//src/dev/oled_ssd130x.h ****         else
 4400              		.loc 15 357 54 view .LVU1037
 4401 02f6 0EF0070B 		and	fp, lr, #7
 357:../../libDaisy//src/dev/oled_ssd130x.h ****         else
 4402              		.loc 15 357 42 view .LVU1038
 4403 02fa C244     		add	r10, r10, r8
 357:../../libDaisy//src/dev/oled_ssd130x.h ****         else
 4404              		.loc 15 357 48 view .LVU1039
 4405 02fc 4FF0010E 		mov	lr, #1
 4406              	.LVL310:
 357:../../libDaisy//src/dev/oled_ssd130x.h ****         else
 4407              		.loc 15 357 48 view .LVU1040
 4408 0300 0EFA0BFE 		lsl	lr, lr, fp
 357:../../libDaisy//src/dev/oled_ssd130x.h ****         else
 4409              		.loc 15 357 42 view .LVU1041
 4410 0304 9AF810B0 		ldrb	fp, [r10, #16]	@ zero_extendqisi2
 4411 0308 4EEA0B0E 		orr	lr, lr, fp
 4412 030c 8AF810E0 		strb	lr, [r10, #16]
 4413              	.LVL311:
 357:../../libDaisy//src/dev/oled_ssd130x.h ****         else
 4414              		.loc 15 357 42 view .LVU1042
 4415              	.LBE1314:
ARM GAS  /var/folders/hl/qgbwny5j0fd895c2c41bk3tw0000gp/T//cceIFtrC.s 			page 138


 4416              	.LBE1313:
 4417              	.LBE1312:
 368:../../libDaisy//src/hid/disp/display.h ****                 ((ChildType*)(this))
 4418              		.loc 9 368 13 view .LVU1043
 4419 0310 0029     		cmp	r1, #0
 4420 0312 3FF454AF 		beq	.L265
 4421 0316 B7E7     		b	.L313
 4422              	.LVL312:
 4423              	.L252:
 358:../../libDaisy//src/hid/disp/display.h ****                     d2 = (t_sxy - t_syx < 0 && t_exy - t_eyx > 0);
 4424              		.loc 9 358 46 view .LVU1044
 4425 0318 F1EE10FA 		vmrs	APSR_nzcv, FPSCR
 4426 031c 7ED4     		bmi	.L318
 4427 031e 4A46     		mov	r2, r9
 4428              	.L256:
 4429              	.LVL313:
 359:../../libDaisy//src/hid/disp/display.h ****                     d3 = (t_sxny - t_syx < 0 && t_exny - t_eyx > 0);
 4430              		.loc 9 359 33 discriminator 6 view .LVU1045
 4431 0320 74EEC54A 		vsub.f32	s9, s9, s10
 4432              	.LVL314:
 359:../../libDaisy//src/hid/disp/display.h ****                     d3 = (t_sxny - t_syx < 0 && t_exny - t_eyx > 0);
 4433              		.loc 9 359 45 discriminator 6 view .LVU1046
 4434 0324 F5EEC04A 		vcmpe.f32	s9, #0
 4435 0328 F1EE10FA 		vmrs	APSR_nzcv, FPSCR
 4436 032c 6CD4     		bmi	.L319
 359:../../libDaisy//src/hid/disp/display.h ****                     d3 = (t_sxny - t_syx < 0 && t_exny - t_eyx > 0);
 4437              		.loc 9 359 45 view .LVU1047
 4438 032e 0021     		movs	r1, #0
 4439              	.LVL315:
 4440              	.L258:
 360:../../libDaisy//src/hid/disp/display.h ****                     d4 = (t_sxny - t_synx < 0 && t_exny - t_eynx > 0);
 4441              		.loc 9 360 34 discriminator 6 view .LVU1048
 4442 0330 35EEC55A 		vsub.f32	s10, s11, s10
 4443              	.LVL316:
 360:../../libDaisy//src/hid/disp/display.h ****                     d4 = (t_sxny - t_synx < 0 && t_exny - t_eynx > 0);
 4444              		.loc 9 360 46 discriminator 6 view .LVU1049
 4445 0334 B5EEC05A 		vcmpe.f32	s10, #0
 4446 0338 F1EE10FA 		vmrs	APSR_nzcv, FPSCR
 4447 033c 5AD4     		bmi	.L320
 360:../../libDaisy//src/hid/disp/display.h ****                     d4 = (t_sxny - t_synx < 0 && t_exny - t_eynx > 0);
 4448              		.loc 9 360 46 view .LVU1050
 4449 033e 0027     		movs	r7, #0
 4450              	.LVL317:
 4451              	.L260:
 361:../../libDaisy//src/hid/disp/display.h ****                 }
 4452              		.loc 9 361 34 discriminator 6 view .LVU1051
 4453 0340 75EEC45A 		vsub.f32	s11, s11, s8
 4454              	.LVL318:
 361:../../libDaisy//src/hid/disp/display.h ****                 }
 4455              		.loc 9 361 47 discriminator 6 view .LVU1052
 4456 0344 F5EEC05A 		vcmpe.f32	s11, #0
 4457 0348 F1EE10FA 		vmrs	APSR_nzcv, FPSCR
 4458 034c 3FF529AF 		bmi	.L311
 361:../../libDaisy//src/hid/disp/display.h ****                 }
 4459              		.loc 9 361 47 view .LVU1053
 4460 0350 0024     		movs	r4, #0
 4461              	.LVL319:
ARM GAS  /var/folders/hl/qgbwny5j0fd895c2c41bk3tw0000gp/T//cceIFtrC.s 			page 139


 365:../../libDaisy//src/hid/disp/display.h ****                 ((ChildType*)(this))
 4462              		.loc 9 365 13 view .LVU1054
 4463 0352 002A     		cmp	r2, #0
 4464 0354 3FF431AF 		beq	.L263
 4465 0358 B9E7     		b	.L312
 4466              	.LVL320:
 4467              	.L316:
 383:../../libDaisy//src/hid/disp/display.h ****                 {
 4468              		.loc 9 383 32 discriminator 1 view .LVU1055
 4469 035a 9842     		cmp	r0, r3
 4470 035c 8FDB     		blt	.L272
 385:../../libDaisy//src/hid/disp/display.h ****                 }
 4471              		.loc 9 385 24 view .LVU1056
 4472 035e 0023     		movs	r3, #0
 4473              	.LVL321:
 385:../../libDaisy//src/hid/disp/display.h ****                 }
 4474              		.loc 9 385 24 view .LVU1057
 4475 0360 3BE7     		b	.L271
 4476              	.L324:
 4477 0362 00BFAFF3 		.align	3
 4477      0080
 4478              	.L323:
 4479 0368 7A008BFC 		.word	-57999238
 4480 036c FA210940 		.word	1074340346
 4481 0370 00000000 		.word	0
 4482 0374 00806640 		.word	1080459264
 4483              	.LVL322:
 4484              	.L268:
 4485              	.LBB1319:
 4486              	.LBB1294:
 4487              	.LBB1293:
 4488              	.LBB1291:
 4489              	.LBI1291:
 352:../../libDaisy//src/dev/oled_ssd130x.h ****     {
 4490              		.loc 15 352 10 is_stmt 1 view .LVU1058
 4491              	.LBB1292:
 359:../../libDaisy//src/dev/oled_ssd130x.h ****     }
 4492              		.loc 15 359 42 is_stmt 0 view .LVU1059
 4493 0378 C244     		add	r10, r10, r8
 4494              	.LVL323:
 359:../../libDaisy//src/dev/oled_ssd130x.h ****     }
 4495              		.loc 15 359 49 view .LVU1060
 4496 037a 4FF0010B 		mov	fp, #1
 4497              	.LVL324:
 359:../../libDaisy//src/dev/oled_ssd130x.h ****     }
 4498              		.loc 15 359 55 view .LVU1061
 4499 037e 0EF0070E 		and	lr, lr, #7
 4500              	.LVL325:
 359:../../libDaisy//src/dev/oled_ssd130x.h ****     }
 4501              		.loc 15 359 49 view .LVU1062
 4502 0382 0BFA0EFE 		lsl	lr, fp, lr
 359:../../libDaisy//src/dev/oled_ssd130x.h ****     }
 4503              		.loc 15 359 42 view .LVU1063
 4504 0386 9AF810B0 		ldrb	fp, [r10, #16]	@ zero_extendqisi2
 4505 038a 2BEA0E0E 		bic	lr, fp, lr
 4506 038e 8AF810E0 		strb	lr, [r10, #16]
 4507              	.LVL326:
ARM GAS  /var/folders/hl/qgbwny5j0fd895c2c41bk3tw0000gp/T//cceIFtrC.s 			page 140


 359:../../libDaisy//src/dev/oled_ssd130x.h ****     }
 4508              		.loc 15 359 42 view .LVU1064
 4509 0392 15E7     		b	.L267
 4510              	.LVL327:
 4511              	.L266:
 359:../../libDaisy//src/dev/oled_ssd130x.h ****     }
 4512              		.loc 15 359 42 view .LVU1065
 4513              	.LBE1292:
 4514              	.LBE1291:
 4515              	.LBE1293:
 4516              	.LBE1294:
 4517              	.LBE1319:
 4518              	.LBB1320:
 4519              	.LBB1311:
 4520              	.LBB1310:
 4521              	.LBB1308:
 4522              	.LBI1308:
 352:../../libDaisy//src/dev/oled_ssd130x.h ****     {
 4523              		.loc 15 352 10 is_stmt 1 view .LVU1066
 4524              	.LBB1309:
 359:../../libDaisy//src/dev/oled_ssd130x.h ****     }
 4525              		.loc 15 359 42 is_stmt 0 view .LVU1067
 4526 0394 C244     		add	r10, r10, r8
 4527              	.LVL328:
 359:../../libDaisy//src/dev/oled_ssd130x.h ****     }
 4528              		.loc 15 359 49 view .LVU1068
 4529 0396 4FF0010B 		mov	fp, #1
 4530              	.LVL329:
 359:../../libDaisy//src/dev/oled_ssd130x.h ****     }
 4531              		.loc 15 359 55 view .LVU1069
 4532 039a 0EF0070E 		and	lr, lr, #7
 4533              	.LVL330:
 359:../../libDaisy//src/dev/oled_ssd130x.h ****     }
 4534              		.loc 15 359 49 view .LVU1070
 4535 039e 0BFA0EFE 		lsl	lr, fp, lr
 359:../../libDaisy//src/dev/oled_ssd130x.h ****     }
 4536              		.loc 15 359 42 view .LVU1071
 4537 03a2 9AF810B0 		ldrb	fp, [r10, #16]	@ zero_extendqisi2
 4538 03a6 2BEA0E0E 		bic	lr, fp, lr
 4539 03aa 8AF810E0 		strb	lr, [r10, #16]
 4540              	.LVL331:
 359:../../libDaisy//src/dev/oled_ssd130x.h ****     }
 4541              		.loc 15 359 42 view .LVU1072
 4542              	.LBE1309:
 4543              	.LBE1308:
 4544              	.LBE1310:
 4545              	.LBE1311:
 4546              	.LBE1320:
 371:../../libDaisy//src/hid/disp/display.h ****                 ((ChildType*)(this))
 4547              		.loc 9 371 13 view .LVU1073
 4548 03ae 002F     		cmp	r7, #0
 4549 03b0 3FF406AF 		beq	.L267
 4550 03b4 1CE7     		b	.L314
 4551              	.LVL332:
 4552              	.L270:
 4553              	.LBB1321:
 4554              	.LBB1303:
ARM GAS  /var/folders/hl/qgbwny5j0fd895c2c41bk3tw0000gp/T//cceIFtrC.s 			page 141


 4555              	.LBB1301:
 4556              	.LBB1298:
 4557              	.LBI1298:
 352:../../libDaisy//src/dev/oled_ssd130x.h ****     {
 4558              		.loc 15 352 10 is_stmt 1 view .LVU1074
 4559              	.LBB1299:
 359:../../libDaisy//src/dev/oled_ssd130x.h ****     }
 4560              		.loc 15 359 42 is_stmt 0 view .LVU1075
 4561 03b6 C244     		add	r10, r10, r8
 4562              	.LVL333:
 359:../../libDaisy//src/dev/oled_ssd130x.h ****     }
 4563              		.loc 15 359 49 view .LVU1076
 4564 03b8 4FF0010B 		mov	fp, #1
 4565              	.LVL334:
 359:../../libDaisy//src/dev/oled_ssd130x.h ****     }
 4566              		.loc 15 359 55 view .LVU1077
 4567 03bc 0EF0070E 		and	lr, lr, #7
 4568              	.LVL335:
 359:../../libDaisy//src/dev/oled_ssd130x.h ****     }
 4569              		.loc 15 359 49 view .LVU1078
 4570 03c0 0BFA0EFE 		lsl	lr, fp, lr
 359:../../libDaisy//src/dev/oled_ssd130x.h ****     }
 4571              		.loc 15 359 42 view .LVU1079
 4572 03c4 9AF810B0 		ldrb	fp, [r10, #16]	@ zero_extendqisi2
 4573 03c8 2BEA0E0E 		bic	lr, fp, lr
 4574 03cc 8AF810E0 		strb	lr, [r10, #16]
 4575              	.LVL336:
 359:../../libDaisy//src/dev/oled_ssd130x.h ****     }
 4576              		.loc 15 359 42 view .LVU1080
 4577 03d0 F7E6     		b	.L269
 4578              	.LVL337:
 4579              	.L264:
 359:../../libDaisy//src/dev/oled_ssd130x.h ****     }
 4580              		.loc 15 359 42 view .LVU1081
 4581              	.LBE1299:
 4582              	.LBE1298:
 4583              	.LBE1301:
 4584              	.LBE1303:
 4585              	.LBE1321:
 4586              	.LBB1322:
 4587              	.LBB1318:
 4588              	.LBB1317:
 4589              	.LBB1315:
 4590              	.LBI1315:
 352:../../libDaisy//src/dev/oled_ssd130x.h ****     {
 4591              		.loc 15 352 10 is_stmt 1 view .LVU1082
 4592              	.LBB1316:
 359:../../libDaisy//src/dev/oled_ssd130x.h ****     }
 4593              		.loc 15 359 42 is_stmt 0 view .LVU1083
 4594 03d2 C244     		add	r10, r10, r8
 4595              	.LVL338:
 359:../../libDaisy//src/dev/oled_ssd130x.h ****     }
 4596              		.loc 15 359 49 view .LVU1084
 4597 03d4 4FF0010B 		mov	fp, #1
 4598              	.LVL339:
 359:../../libDaisy//src/dev/oled_ssd130x.h ****     }
 4599              		.loc 15 359 55 view .LVU1085
ARM GAS  /var/folders/hl/qgbwny5j0fd895c2c41bk3tw0000gp/T//cceIFtrC.s 			page 142


 4600 03d8 0EF0070E 		and	lr, lr, #7
 4601              	.LVL340:
 359:../../libDaisy//src/dev/oled_ssd130x.h ****     }
 4602              		.loc 15 359 49 view .LVU1086
 4603 03dc 0BFA0EFE 		lsl	lr, fp, lr
 359:../../libDaisy//src/dev/oled_ssd130x.h ****     }
 4604              		.loc 15 359 42 view .LVU1087
 4605 03e0 9AF810B0 		ldrb	fp, [r10, #16]	@ zero_extendqisi2
 4606 03e4 2BEA0E0E 		bic	lr, fp, lr
 4607 03e8 8AF810E0 		strb	lr, [r10, #16]
 4608              	.LVL341:
 359:../../libDaisy//src/dev/oled_ssd130x.h ****     }
 4609              		.loc 15 359 42 view .LVU1088
 4610              	.LBE1316:
 4611              	.LBE1315:
 4612              	.LBE1317:
 4613              	.LBE1318:
 4614              	.LBE1322:
 368:../../libDaisy//src/hid/disp/display.h ****                 ((ChildType*)(this))
 4615              		.loc 9 368 13 view .LVU1089
 4616 03ec 0029     		cmp	r1, #0
 4617 03ee 3FF4E6AE 		beq	.L265
 4618 03f2 49E7     		b	.L313
 4619              	.LVL342:
 4620              	.L320:
 360:../../libDaisy//src/hid/disp/display.h ****                     d4 = (t_sxny - t_synx < 0 && t_exny - t_eynx > 0);
 4621              		.loc 9 360 56 discriminator 1 view .LVU1090
 4622 03f4 77EEE66A 		vsub.f32	s13, s15, s13
 4623              	.LVL343:
 360:../../libDaisy//src/hid/disp/display.h ****                     d4 = (t_sxny - t_synx < 0 && t_exny - t_eynx > 0);
 4624              		.loc 9 360 46 discriminator 1 view .LVU1091
 4625 03f8 F5EEC06A 		vcmpe.f32	s13, #0
 4626 03fc F1EE10FA 		vmrs	APSR_nzcv, FPSCR
 4627 0400 CCBF     		ite	gt
 4628 0402 0127     		movgt	r7, #1
 4629              	.LVL344:
 360:../../libDaisy//src/hid/disp/display.h ****                     d4 = (t_sxny - t_synx < 0 && t_exny - t_eynx > 0);
 4630              		.loc 9 360 46 discriminator 1 view .LVU1092
 4631 0404 0027     		movle	r7, #0
 4632 0406 9BE7     		b	.L260
 4633              	.LVL345:
 4634              	.L319:
 359:../../libDaisy//src/hid/disp/display.h ****                     d3 = (t_sxny - t_syx < 0 && t_exny - t_eyx > 0);
 4635              		.loc 9 359 54 discriminator 1 view .LVU1093
 4636 0408 36EE666A 		vsub.f32	s12, s12, s13
 4637              	.LVL346:
 359:../../libDaisy//src/hid/disp/display.h ****                     d3 = (t_sxny - t_syx < 0 && t_exny - t_eyx > 0);
 4638              		.loc 9 359 45 discriminator 1 view .LVU1094
 4639 040c B5EEC06A 		vcmpe.f32	s12, #0
 4640 0410 F1EE10FA 		vmrs	APSR_nzcv, FPSCR
 4641 0414 CCBF     		ite	gt
 4642 0416 0121     		movgt	r1, #1
 4643 0418 0021     		movle	r1, #0
 4644 041a 89E7     		b	.L258
 4645              	.LVL347:
 4646              	.L318:
 358:../../libDaisy//src/hid/disp/display.h ****                     d2 = (t_sxy - t_syx < 0 && t_exy - t_eyx > 0);
ARM GAS  /var/folders/hl/qgbwny5j0fd895c2c41bk3tw0000gp/T//cceIFtrC.s 			page 143


 4647              		.loc 9 358 55 discriminator 1 view .LVU1095
 4648 041c 76EE473A 		vsub.f32	s7, s12, s14
 358:../../libDaisy//src/hid/disp/display.h ****                     d2 = (t_sxy - t_syx < 0 && t_exy - t_eyx > 0);
 4649              		.loc 9 358 46 discriminator 1 view .LVU1096
 4650 0420 F5EEC03A 		vcmpe.f32	s7, #0
 4651 0424 F1EE10FA 		vmrs	APSR_nzcv, FPSCR
 4652 0428 CCBF     		ite	gt
 4653 042a 0122     		movgt	r2, #1
 4654 042c 0022     		movle	r2, #0
 4655 042e 77E7     		b	.L256
 4656              	.LVL348:
 4657              	.L281:
 354:../../libDaisy//src/hid/disp/display.h ****                 }
 4658              		.loc 9 354 47 view .LVU1097
 4659 0430 0124     		movs	r4, #1
 4660              	.LVL349:
 365:../../libDaisy//src/hid/disp/display.h ****                 ((ChildType*)(this))
 4661              		.loc 9 365 13 view .LVU1098
 4662 0432 002A     		cmp	r2, #0
 4663 0434 3FF4C1AE 		beq	.L263
 365:../../libDaisy//src/hid/disp/display.h ****                 ((ChildType*)(this))
 4664              		.loc 9 365 13 view .LVU1099
 4665 0438 49E7     		b	.L312
 4666              	.LVL350:
 4667              	.L278:
 352:../../libDaisy//src/hid/disp/display.h ****                     d3 = (t_sxny - t_syx < 0 || t_exny - t_eyx > 0);
 4668              		.loc 9 352 33 view .LVU1100
 4669 043a 74EEC54A 		vsub.f32	s9, s9, s10
 4670              	.LVL351:
 351:../../libDaisy//src/hid/disp/display.h ****                     d2 = (t_sxy - t_syx < 0 || t_exy - t_eyx > 0);
 4671              		.loc 9 351 46 view .LVU1101
 4672 043e 0122     		movs	r2, #1
 4673              	.LVL352:
 352:../../libDaisy//src/hid/disp/display.h ****                     d3 = (t_sxny - t_syx < 0 || t_exny - t_eyx > 0);
 4674              		.loc 9 352 45 view .LVU1102
 4675 0440 F5EEC04A 		vcmpe.f32	s9, #0
 4676 0444 F1EE10FA 		vmrs	APSR_nzcv, FPSCR
 4677 0448 7FF589AE 		bpl	.L321
 4678              	.L279:
 353:../../libDaisy//src/hid/disp/display.h ****                     d4 = (t_sxny - t_synx < 0 || t_exny - t_eynx > 0);
 4679              		.loc 9 353 34 view .LVU1103
 4680 044c 35EEC55A 		vsub.f32	s10, s11, s10
 4681              	.LVL353:
 352:../../libDaisy//src/hid/disp/display.h ****                     d3 = (t_sxny - t_syx < 0 || t_exny - t_eyx > 0);
 4682              		.loc 9 352 45 view .LVU1104
 4683 0450 0121     		movs	r1, #1
 4684              	.LVL354:
 353:../../libDaisy//src/hid/disp/display.h ****                     d4 = (t_sxny - t_synx < 0 || t_exny - t_eynx > 0);
 4685              		.loc 9 353 46 view .LVU1105
 4686 0452 B5EEC05A 		vcmpe.f32	s10, #0
 4687 0456 F1EE10FA 		vmrs	APSR_nzcv, FPSCR
 4688 045a 7FF591AE 		bpl	.L322
 4689              	.LVL355:
 4690              	.L280:
 353:../../libDaisy//src/hid/disp/display.h ****                     d4 = (t_sxny - t_synx < 0 || t_exny - t_eynx > 0);
 4691              		.loc 9 353 46 view .LVU1106
 4692 045e 0127     		movs	r7, #1
ARM GAS  /var/folders/hl/qgbwny5j0fd895c2c41bk3tw0000gp/T//cceIFtrC.s 			page 144


 4693              	.LVL356:
 353:../../libDaisy//src/hid/disp/display.h ****                     d4 = (t_sxny - t_synx < 0 || t_exny - t_eynx > 0);
 4694              		.loc 9 353 46 view .LVU1107
 4695 0460 97E6     		b	.L255
 4696              	.LVL357:
 4697              	.L247:
 308:../../libDaisy//src/hid/disp/display.h ****             sweep = -sweep;
 4698              		.loc 9 308 25 view .LVU1108
 4699 0462 DDE91223 		ldrd	r2, r3, [sp, #72]
 4700              	.LVL358:
 308:../../libDaisy//src/hid/disp/display.h ****             sweep = -sweep;
 4701              		.loc 9 308 25 view .LVU1109
 4702 0466 1344     		add	r3, r3, r2
 4703              	.LVL359:
 308:../../libDaisy//src/hid/disp/display.h ****             sweep = -sweep;
 4704              		.loc 9 308 25 view .LVU1110
 4705 0468 06EE102A 		vmov	s12, r2	@ int
 4706 046c 1293     		str	r3, [sp, #72]
 4707 046e 139B     		ldr	r3, [sp, #76]
 4708              	.LVL360:
 308:../../libDaisy//src/hid/disp/display.h ****             sweep = -sweep;
 4709              		.loc 9 308 25 view .LVU1111
 4710 0470 5B42     		rsbs	r3, r3, #0
 4711 0472 1393     		str	r3, [sp, #76]
 4712              	.LVL361:
 308:../../libDaisy//src/hid/disp/display.h ****             sweep = -sweep;
 4713              		.loc 9 308 25 view .LVU1112
 4714 0474 D8E5     		b	.L248
 4715              		.cfi_endproc
 4716              	.LFE5450:
 4718 0476 00BF     		.section	.text._ZN5daisy25OneBitGraphicsDisplayImplINS_11OledDisplayINS_13SSD130xDriverILj128ELj64
 4719              		.align	1
 4720              		.p2align 2,,3
 4721              		.weak	_ZN5daisy25OneBitGraphicsDisplayImplINS_11OledDisplayINS_13SSD130xDriverILj128ELj64ENS_19SSD
 4722              		.syntax unified
 4723              		.thumb
 4724              		.thumb_func
 4725              		.fpu fpv5-d16
 4727              	_ZN5daisy25OneBitGraphicsDisplayImplINS_11OledDisplayINS_13SSD130xDriverILj128ELj64ENS_19SSD130xI2C
 4728              	.LVL362:
 4729              	.LFB5449:
 257:../../libDaisy//src/hid/disp/display.h ****                   uint_fast8_t y1,
 4730              		.loc 9 257 10 is_stmt 1 view -0
 4731              		.cfi_startproc
 4732              		@ args = 12, pretend = 0, frame = 24
 4733              		@ frame_needed = 0, uses_anonymous_args = 0
 257:../../libDaisy//src/hid/disp/display.h ****                   uint_fast8_t y1,
 4734              		.loc 9 257 10 is_stmt 0 view .LVU1114
 4735 0000 2DE9F04F 		push	{r4, r5, r6, r7, r8, r9, r10, fp, lr}
 4736              		.cfi_def_cfa_offset 36
 4737              		.cfi_offset 4, -36
 4738              		.cfi_offset 5, -32
 4739              		.cfi_offset 6, -28
 4740              		.cfi_offset 7, -24
 4741              		.cfi_offset 8, -20
 4742              		.cfi_offset 9, -16
 4743              		.cfi_offset 10, -12
ARM GAS  /var/folders/hl/qgbwny5j0fd895c2c41bk3tw0000gp/T//cceIFtrC.s 			page 145


 4744              		.cfi_offset 11, -8
 4745              		.cfi_offset 14, -4
 4746 0004 87B0     		sub	sp, sp, #28
 4747              		.cfi_def_cfa_offset 64
 257:../../libDaisy//src/hid/disp/display.h ****                   uint_fast8_t y1,
 4748              		.loc 9 257 10 view .LVU1115
 4749 0006 9DF84850 		ldrb	r5, [sp, #72]	@ zero_extendqisi2
 4750 000a 109C     		ldr	r4, [sp, #64]
 4751 000c 2E46     		mov	r6, r5
 4752 000e 0195     		str	r5, [sp, #4]
 4753 0010 9DF84450 		ldrb	r5, [sp, #68]	@ zero_extendqisi2
 4754              	.LBB1392:
 264:../../libDaisy//src/hid/disp/display.h ****         {
 4755              		.loc 9 264 9 view .LVU1116
 4756 0014 9EB3     		cbz	r6, .L326
 4757              	.LVL363:
 264:../../libDaisy//src/hid/disp/display.h ****         {
 4758              		.loc 9 264 9 view .LVU1117
 4759              	.LBE1392:
 4760              	.LBB1514:
 4761              	.LBB1515:
 266:../../libDaisy//src/hid/disp/display.h ****             {
 4762              		.loc 9 266 40 is_stmt 1 view .LVU1118
 4763 0016 9942     		cmp	r1, r3
 4764 0018 2ED8     		bhi	.L325
 4765 001a 9946     		mov	r9, r3
 4766              	.LVL364:
 4767              	.L329:
 4768              	.LBB1516:
 268:../../libDaisy//src/hid/disp/display.h ****                 {
 4769              		.loc 9 268 44 view .LVU1119
 4770 001c A242     		cmp	r2, r4
 4771 001e 28D8     		bhi	.L332
 4772              	.LBB1517:
 4773              	.LBB1518:
 4774              	.LBB1519:
 354:../../libDaisy//src/dev/oled_ssd130x.h ****             return;
 4775              		.loc 15 354 14 is_stmt 0 view .LVU1120
 4776 0020 7F29     		cmp	r1, #127
 4777 0022 1646     		mov	r6, r2
 4778 0024 94BF     		ite	ls
 4779 0026 0023     		movls	r3, #0
 4780 0028 0123     		movhi	r3, #1
 4781 002a 08E0     		b	.L333
 4782              	.LVL365:
 4783              	.L416:
 357:../../libDaisy//src/dev/oled_ssd130x.h ****         else
 4784              		.loc 15 357 42 view .LVU1121
 4785 002c 9CF81080 		ldrb	r8, [ip, #16]	@ zero_extendqisi2
 4786 0030 4EEA080E 		orr	lr, lr, r8
 4787 0034 8CF810E0 		strb	lr, [ip, #16]
 4788              	.LVL366:
 4789              	.L330:
 357:../../libDaisy//src/dev/oled_ssd130x.h ****         else
 4790              		.loc 15 357 42 view .LVU1122
 4791              	.LBE1519:
 4792              	.LBE1518:
ARM GAS  /var/folders/hl/qgbwny5j0fd895c2c41bk3tw0000gp/T//cceIFtrC.s 			page 146


 4793              	.LBE1517:
 268:../../libDaisy//src/hid/disp/display.h ****                 {
 4794              		.loc 9 268 17 is_stmt 1 view .LVU1123
 4795 0038 0136     		adds	r6, r6, #1
 4796              	.LVL367:
 268:../../libDaisy//src/hid/disp/display.h ****                 {
 4797              		.loc 9 268 44 view .LVU1124
 4798 003a B442     		cmp	r4, r6
 4799 003c 19D3     		bcc	.L332
 4800              	.L333:
 4801              	.LVL368:
 4802              	.LBB1533:
 4803              	.LBI1517:
  42:../../libDaisy//src/hid/disp/oled_display.h ****     {
 4804              		.loc 8 42 10 view .LVU1125
 4805              	.LBB1530:
 4806              	.LBI1518:
 352:../../libDaisy//src/dev/oled_ssd130x.h ****     {
 4807              		.loc 15 352 10 view .LVU1126
 4808              	.LBB1527:
 354:../../libDaisy//src/dev/oled_ssd130x.h ****             return;
 4809              		.loc 15 354 9 is_stmt 0 view .LVU1127
 4810 003e 3F2E     		cmp	r6, #63
 4811 0040 FAD8     		bhi	.L330
 354:../../libDaisy//src/dev/oled_ssd130x.h ****             return;
 4812              		.loc 15 354 9 view .LVU1128
 4813 0042 002B     		cmp	r3, #0
 4814 0044 F8D1     		bne	.L330
 4815              	.LVL369:
 4816              	.LBB1520:
 4817              	.LBI1520:
 352:../../libDaisy//src/dev/oled_ssd130x.h ****     {
 4818              		.loc 15 352 10 is_stmt 1 view .LVU1129
 352:../../libDaisy//src/dev/oled_ssd130x.h ****     {
 4819              		.loc 15 352 10 is_stmt 0 view .LVU1130
 4820              	.LBE1520:
 357:../../libDaisy//src/dev/oled_ssd130x.h ****         else
 4821              		.loc 15 357 28 view .LVU1131
 4822 0046 4FEAD60C 		lsr	ip, r6, #3
 357:../../libDaisy//src/dev/oled_ssd130x.h ****         else
 4823              		.loc 15 357 54 view .LVU1132
 4824 004a 06F0070E 		and	lr, r6, #7
 357:../../libDaisy//src/dev/oled_ssd130x.h ****         else
 4825              		.loc 15 357 48 view .LVU1133
 4826 004e 4FF00108 		mov	r8, #1
 357:../../libDaisy//src/dev/oled_ssd130x.h ****         else
 4827              		.loc 15 357 42 view .LVU1134
 4828 0052 01EBCC1C 		add	ip, r1, ip, lsl #7
 357:../../libDaisy//src/dev/oled_ssd130x.h ****         else
 4829              		.loc 15 357 48 view .LVU1135
 4830 0056 08FA0EFE 		lsl	lr, r8, lr
 357:../../libDaisy//src/dev/oled_ssd130x.h ****         else
 4831              		.loc 15 357 42 view .LVU1136
 4832 005a 8444     		add	ip, ip, r0
 356:../../libDaisy//src/dev/oled_ssd130x.h ****             buffer_[x + (y / 8) * width] |= (1 << (y % 8));
 4833              		.loc 15 356 9 view .LVU1137
 4834 005c 002D     		cmp	r5, #0
ARM GAS  /var/folders/hl/qgbwny5j0fd895c2c41bk3tw0000gp/T//cceIFtrC.s 			page 147


 4835 005e E5D1     		bne	.L416
 4836              	.LBB1524:
 4837              	.LBB1521:
 359:../../libDaisy//src/dev/oled_ssd130x.h ****     }
 4838              		.loc 15 359 42 view .LVU1138
 4839 0060 9CF810B0 		ldrb	fp, [ip, #16]	@ zero_extendqisi2
 4840              	.LBE1521:
 4841              	.LBE1524:
 4842              	.LBE1527:
 4843              	.LBE1530:
 4844              	.LBE1533:
 268:../../libDaisy//src/hid/disp/display.h ****                 {
 4845              		.loc 9 268 17 view .LVU1139
 4846 0064 0136     		adds	r6, r6, #1
 4847              	.LVL370:
 4848              	.LBB1534:
 4849              	.LBB1531:
 4850              	.LBB1528:
 4851              	.LBB1525:
 4852              	.LBB1522:
 359:../../libDaisy//src/dev/oled_ssd130x.h ****     }
 4853              		.loc 15 359 42 view .LVU1140
 4854 0066 2BEA0E0A 		bic	r10, fp, lr
 4855              	.LBE1522:
 4856              	.LBE1525:
 4857              	.LBE1528:
 4858              	.LBE1531:
 4859              	.LBE1534:
 268:../../libDaisy//src/hid/disp/display.h ****                 {
 4860              		.loc 9 268 44 view .LVU1141
 4861 006a B442     		cmp	r4, r6
 4862              	.LBB1535:
 4863              	.LBB1532:
 4864              	.LBB1529:
 4865              	.LBB1526:
 4866              	.LBB1523:
 359:../../libDaisy//src/dev/oled_ssd130x.h ****     }
 4867              		.loc 15 359 42 view .LVU1142
 4868 006c 8CF810A0 		strb	r10, [ip, #16]
 4869              	.LVL371:
 359:../../libDaisy//src/dev/oled_ssd130x.h ****     }
 4870              		.loc 15 359 42 view .LVU1143
 4871              	.LBE1523:
 4872              	.LBE1526:
 4873              	.LBE1529:
 4874              	.LBE1532:
 4875              	.LBE1535:
 268:../../libDaisy//src/hid/disp/display.h ****                 {
 4876              		.loc 9 268 17 is_stmt 1 view .LVU1144
 268:../../libDaisy//src/hid/disp/display.h ****                 {
 4877              		.loc 9 268 44 view .LVU1145
 4878 0070 E5D2     		bcs	.L333
 4879              	.LVL372:
 4880              	.L332:
 268:../../libDaisy//src/hid/disp/display.h ****                 {
 4881              		.loc 9 268 44 is_stmt 0 view .LVU1146
 4882              	.LBE1516:
ARM GAS  /var/folders/hl/qgbwny5j0fd895c2c41bk3tw0000gp/T//cceIFtrC.s 			page 148


 266:../../libDaisy//src/hid/disp/display.h ****             {
 4883              		.loc 9 266 13 is_stmt 1 view .LVU1147
 4884 0072 0131     		adds	r1, r1, #1
 4885              	.LVL373:
 266:../../libDaisy//src/hid/disp/display.h ****             {
 4886              		.loc 9 266 40 view .LVU1148
 4887 0074 8945     		cmp	r9, r1
 4888 0076 D1D2     		bcs	.L329
 4889              	.LVL374:
 4890              	.L325:
 266:../../libDaisy//src/hid/disp/display.h ****             {
 4891              		.loc 9 266 40 is_stmt 0 view .LVU1149
 4892              	.LBE1515:
 4893              	.LBE1514:
 281:../../libDaisy//src/hid/disp/display.h **** 
 4894              		.loc 9 281 5 view .LVU1150
 4895 0078 07B0     		add	sp, sp, #28
 4896              		.cfi_remember_state
 4897              		.cfi_def_cfa_offset 36
 4898              		@ sp needed
 4899 007a BDE8F08F 		pop	{r4, r5, r6, r7, r8, r9, r10, fp, pc}
 4900              	.LVL375:
 4901              	.L326:
 4902              		.cfi_restore_state
 4903              	.LBB1536:
 4904              	.LBB1393:
 4905              	.LBI1393:
 221:../../libDaisy//src/hid/disp/display.h ****                   uint_fast8_t y1,
 4906              		.loc 9 221 10 is_stmt 1 view .LVU1151
 4907              	.LBB1394:
 227:../../libDaisy//src/hid/disp/display.h ****         int_fast16_t deltaY = abs((int_fast16_t)y2 - (int_fast16_t)y1);
 4908              		.loc 9 227 52 is_stmt 0 view .LVU1152
 4909 007e A3EB0108 		sub	r8, r3, r1
 227:../../libDaisy//src/hid/disp/display.h ****         int_fast16_t deltaY = abs((int_fast16_t)y2 - (int_fast16_t)y1);
 4910              		.loc 9 227 22 view .LVU1153
 4911 0082 B8F1000F 		cmp	r8, #0
 4912 0086 B8BF     		it	lt
 4913 0088 C8F10008 		rsblt	r8, r8, #0
 4914              	.LVL376:
 229:../../libDaisy//src/hid/disp/display.h ****         int_fast16_t signY  = ((y1 < y2) ? 1 : -1);
 4915              		.loc 9 229 42 view .LVU1154
 4916 008c 9942     		cmp	r1, r3
 4917 008e C0F04E81 		bcc	.L334
 4918              	.LVL377:
 4919              	.LBB1395:
 4920              	.LBI1395:
  42:../../libDaisy//src/hid/disp/oled_display.h ****     {
 4921              		.loc 8 42 10 is_stmt 1 view .LVU1155
 4922              	.LBB1396:
 4923              	.LBI1396:
 352:../../libDaisy//src/dev/oled_ssd130x.h ****     {
 4924              		.loc 15 352 10 view .LVU1156
 4925              	.LBB1397:
 354:../../libDaisy//src/dev/oled_ssd130x.h ****             return;
 4926              		.loc 15 354 14 is_stmt 0 view .LVU1157
 4927 0092 7F2B     		cmp	r3, #127
 4928              	.LBE1397:
ARM GAS  /var/folders/hl/qgbwny5j0fd895c2c41bk3tw0000gp/T//cceIFtrC.s 			page 149


 4929              	.LBE1396:
 4930              	.LBE1395:
 229:../../libDaisy//src/hid/disp/display.h ****         int_fast16_t signY  = ((y1 < y2) ? 1 : -1);
 4931              		.loc 9 229 42 view .LVU1158
 4932 0094 4FF0FF3A 		mov	r10, #-1
 4933              	.LBB1408:
 4934              	.LBB1404:
 4935              	.LBB1400:
 354:../../libDaisy//src/dev/oled_ssd130x.h ****             return;
 4936              		.loc 15 354 14 view .LVU1159
 4937 0098 94BF     		ite	ls
 4938 009a 0026     		movls	r6, #0
 4939 009c 0126     		movhi	r6, #1
 354:../../libDaisy//src/dev/oled_ssd130x.h ****             return;
 4940              		.loc 15 354 28 view .LVU1160
 4941 009e 3F2A     		cmp	r2, #63
 354:../../libDaisy//src/dev/oled_ssd130x.h ****             return;
 4942              		.loc 15 354 14 view .LVU1161
 4943 00a0 0096     		str	r6, [sp]
 354:../../libDaisy//src/dev/oled_ssd130x.h ****             return;
 4944              		.loc 15 354 28 view .LVU1162
 4945 00a2 94BF     		ite	ls
 4946 00a4 0027     		movls	r7, #0
 4947 00a6 0127     		movhi	r7, #1
 4948 00a8 0297     		str	r7, [sp, #8]
 354:../../libDaisy//src/dev/oled_ssd130x.h ****             return;
 4949              		.loc 15 354 9 view .LVU1163
 4950 00aa A6B9     		cbnz	r6, .L335
 4951 00ac 9FB9     		cbnz	r7, .L335
 4952              	.LVL378:
 4953              	.L376:
 357:../../libDaisy//src/dev/oled_ssd130x.h ****         else
 4954              		.loc 15 357 28 view .LVU1164
 4955 00ae D608     		lsrs	r6, r2, #3
 357:../../libDaisy//src/dev/oled_ssd130x.h ****         else
 4956              		.loc 15 357 54 view .LVU1165
 4957 00b0 02F0070C 		and	ip, r2, #7
 357:../../libDaisy//src/dev/oled_ssd130x.h ****         else
 4958              		.loc 15 357 48 view .LVU1166
 4959 00b4 0127     		movs	r7, #1
 357:../../libDaisy//src/dev/oled_ssd130x.h ****         else
 4960              		.loc 15 357 42 view .LVU1167
 4961 00b6 03EBC616 		add	r6, r3, r6, lsl #7
 4962 00ba 0644     		add	r6, r6, r0
 356:../../libDaisy//src/dev/oled_ssd130x.h ****             buffer_[x + (y / 8) * width] |= (1 << (y % 8));
 4963              		.loc 15 356 9 view .LVU1168
 4964 00bc 002D     		cmp	r5, #0
 4965 00be 00F09481 		beq	.L336
 357:../../libDaisy//src/dev/oled_ssd130x.h ****         else
 4966              		.loc 15 357 48 view .LVU1169
 4967 00c2 07FA0CF7 		lsl	r7, r7, ip
 357:../../libDaisy//src/dev/oled_ssd130x.h ****         else
 4968              		.loc 15 357 42 view .LVU1170
 4969 00c6 96F810C0 		ldrb	ip, [r6, #16]	@ zero_extendqisi2
 4970 00ca 47EA0C07 		orr	r7, r7, ip
 4971 00ce 3774     		strb	r7, [r6, #16]
 4972 00d0 0026     		movs	r6, #0
ARM GAS  /var/folders/hl/qgbwny5j0fd895c2c41bk3tw0000gp/T//cceIFtrC.s 			page 150


 4973 00d2 0296     		str	r6, [sp, #8]
 4974 00d4 0096     		str	r6, [sp]
 4975              	.L335:
 4976              	.LVL379:
 357:../../libDaisy//src/dev/oled_ssd130x.h ****         else
 4977              		.loc 15 357 42 view .LVU1171
 4978              	.LBE1400:
 4979              	.LBE1404:
 4980              	.LBE1408:
 239:../../libDaisy//src/hid/disp/display.h ****         {
 4981              		.loc 9 239 26 is_stmt 1 view .LVU1172
 4982 00d6 9942     		cmp	r1, r3
 4983 00d8 00F09781 		beq	.L417
 4984              	.L338:
 4985              	.LVL380:
 227:../../libDaisy//src/hid/disp/display.h ****         int_fast16_t deltaY = abs((int_fast16_t)y2 - (int_fast16_t)y1);
 4986              		.loc 9 227 22 is_stmt 0 view .LVU1173
 4987 00dc 4646     		mov	r6, r8
 4988 00de 9446     		mov	ip, r2
 4989 00e0 8E46     		mov	lr, r1
 4990              	.LVL381:
 4991              	.L340:
 4992              	.LBB1409:
 4993              	.LBI1409:
  42:../../libDaisy//src/hid/disp/oled_display.h ****     {
 4994              		.loc 8 42 10 is_stmt 1 view .LVU1174
 4995              	.LBB1410:
 4996              	.LBI1410:
 352:../../libDaisy//src/dev/oled_ssd130x.h ****     {
 4997              		.loc 15 352 10 view .LVU1175
 4998              	.LBB1411:
 354:../../libDaisy//src/dev/oled_ssd130x.h ****             return;
 4999              		.loc 15 354 9 is_stmt 0 view .LVU1176
 5000 00e2 BEF17F0F 		cmp	lr, #127
 5001 00e6 16D8     		bhi	.L341
 5002 00e8 BCF13F0F 		cmp	ip, #63
 5003 00ec 13D8     		bhi	.L341
 357:../../libDaisy//src/dev/oled_ssd130x.h ****         else
 5004              		.loc 15 357 28 view .LVU1177
 5005 00ee 4FEADC07 		lsr	r7, ip, #3
 357:../../libDaisy//src/dev/oled_ssd130x.h ****         else
 5006              		.loc 15 357 54 view .LVU1178
 5007 00f2 0CF0070B 		and	fp, ip, #7
 357:../../libDaisy//src/dev/oled_ssd130x.h ****         else
 5008              		.loc 15 357 48 view .LVU1179
 5009 00f6 4FF00109 		mov	r9, #1
 357:../../libDaisy//src/dev/oled_ssd130x.h ****         else
 5010              		.loc 15 357 42 view .LVU1180
 5011 00fa 0EEBC717 		add	r7, lr, r7, lsl #7
 5012 00fe 0744     		add	r7, r7, r0
 356:../../libDaisy//src/dev/oled_ssd130x.h ****             buffer_[x + (y / 8) * width] |= (1 << (y % 8));
 5013              		.loc 15 356 9 view .LVU1181
 5014 0100 002D     		cmp	r5, #0
 5015 0102 00F03981 		beq	.L342
 357:../../libDaisy//src/dev/oled_ssd130x.h ****         else
 5016              		.loc 15 357 48 view .LVU1182
 5017 0106 09FA0BF9 		lsl	r9, r9, fp
ARM GAS  /var/folders/hl/qgbwny5j0fd895c2c41bk3tw0000gp/T//cceIFtrC.s 			page 151


 357:../../libDaisy//src/dev/oled_ssd130x.h ****         else
 5018              		.loc 15 357 42 view .LVU1183
 5019 010a 97F810B0 		ldrb	fp, [r7, #16]	@ zero_extendqisi2
 5020 010e 49EA0B09 		orr	r9, r9, fp
 5021 0112 87F81090 		strb	r9, [r7, #16]
 5022              	.L341:
 5023              	.LVL382:
 357:../../libDaisy//src/dev/oled_ssd130x.h ****         else
 5024              		.loc 15 357 42 view .LVU1184
 5025              	.LBE1411:
 5026              	.LBE1410:
 5027              	.LBE1409:
 243:../../libDaisy//src/hid/disp/display.h ****             {
 5028              		.loc 9 243 13 view .LVU1185
 5029 0116 7700     		lsls	r7, r6, #1
 5030              	.LVL383:
 246:../../libDaisy//src/hid/disp/display.h ****             }
 5031              		.loc 9 246 20 view .LVU1186
 5032 0118 18BF     		it	ne
 5033 011a D644     		addne	lr, lr, r10
 5034              	.LVL384:
 249:../../libDaisy//src/hid/disp/display.h ****             {
 5035              		.loc 9 249 13 view .LVU1187
 5036 011c B845     		cmp	r8, r7
 5037 011e 02DD     		ble	.L344
 251:../../libDaisy//src/hid/disp/display.h ****                 y1 += signY;
 5038              		.loc 9 251 23 view .LVU1188
 5039 0120 4644     		add	r6, r6, r8
 5040              	.LVL385:
 252:../../libDaisy//src/hid/disp/display.h ****             }
 5041              		.loc 9 252 20 view .LVU1189
 5042 0122 0CF1FF3C 		add	ip, ip, #-1
 5043              	.LVL386:
 5044              	.L344:
 239:../../libDaisy//src/hid/disp/display.h ****         {
 5045              		.loc 9 239 26 is_stmt 1 view .LVU1190
 5046 0126 7345     		cmp	r3, lr
 5047 0128 DBD1     		bne	.L340
 239:../../libDaisy//src/hid/disp/display.h ****         {
 5048              		.loc 9 239 26 is_stmt 0 view .LVU1191
 5049 012a 6245     		cmp	r2, ip
 5050 012c D9D1     		bne	.L340
 5051 012e 0026     		movs	r6, #0
 5052              	.LVL387:
 239:../../libDaisy//src/hid/disp/display.h ****         {
 5053              		.loc 9 239 26 view .LVU1192
 5054 0130 0496     		str	r6, [sp, #16]
 5055              	.LVL388:
 5056              	.L337:
 239:../../libDaisy//src/hid/disp/display.h ****         {
 5057              		.loc 9 239 26 view .LVU1193
 5058              	.LBE1394:
 5059              	.LBE1393:
 5060              	.LBB1424:
 5061              	.LBI1424:
 221:../../libDaisy//src/hid/disp/display.h ****                   uint_fast8_t y1,
 5062              		.loc 9 221 10 is_stmt 1 view .LVU1194
ARM GAS  /var/folders/hl/qgbwny5j0fd895c2c41bk3tw0000gp/T//cceIFtrC.s 			page 152


 5063              	.LBB1425:
 228:../../libDaisy//src/hid/disp/display.h ****         int_fast16_t signX  = ((x1 < x2) ? 1 : -1);
 5064              		.loc 9 228 52 is_stmt 0 view .LVU1195
 5065 0132 A4EB0209 		sub	r9, r4, r2
 5066              	.LBB1426:
 5067              	.LBB1427:
 5068              	.LBB1428:
 354:../../libDaisy//src/dev/oled_ssd130x.h ****             return;
 5069              		.loc 15 354 9 view .LVU1196
 5070 0136 009F     		ldr	r7, [sp]
 5071              	.LBE1428:
 5072              	.LBE1427:
 5073              	.LBE1426:
 228:../../libDaisy//src/hid/disp/display.h ****         int_fast16_t signX  = ((x1 < x2) ? 1 : -1);
 5074              		.loc 9 228 22 view .LVU1197
 5075 0138 B9F1000F 		cmp	r9, #0
 5076 013c B8BF     		it	lt
 5077 013e C9F10009 		rsblt	r9, r9, #0
 5078              	.LVL389:
 5079              	.LBB1443:
 5080              	.LBB1437:
 5081              	.LBB1431:
 354:../../libDaisy//src/dev/oled_ssd130x.h ****             return;
 5082              		.loc 15 354 28 view .LVU1198
 5083 0142 3F2C     		cmp	r4, #63
 5084 0144 94BF     		ite	ls
 5085 0146 0026     		movls	r6, #0
 5086 0148 0126     		movhi	r6, #1
 5087              	.LBE1431:
 5088              	.LBE1437:
 5089              	.LBE1443:
 230:../../libDaisy//src/hid/disp/display.h ****         int_fast16_t error  = deltaX - deltaY;
 5090              		.loc 9 230 42 view .LVU1199
 5091 014a A242     		cmp	r2, r4
 231:../../libDaisy//src/hid/disp/display.h ****         int_fast16_t error2;
 5092              		.loc 9 231 22 view .LVU1200
 5093 014c C9F10008 		rsb	r8, r9, #0
 5094              	.LVL390:
 5095              	.LBB1444:
 5096              	.LBI1426:
  42:../../libDaisy//src/hid/disp/oled_display.h ****     {
 5097              		.loc 8 42 10 is_stmt 1 view .LVU1201
 5098              	.LBB1438:
 5099              	.LBI1427:
 352:../../libDaisy//src/dev/oled_ssd130x.h ****     {
 5100              		.loc 15 352 10 view .LVU1202
 5101              	.LBB1432:
 354:../../libDaisy//src/dev/oled_ssd130x.h ****             return;
 5102              		.loc 15 354 28 is_stmt 0 view .LVU1203
 5103 0150 0396     		str	r6, [sp, #12]
 5104              	.LBE1432:
 5105              	.LBE1438:
 5106              	.LBE1444:
 230:../../libDaisy//src/hid/disp/display.h ****         int_fast16_t error  = deltaX - deltaY;
 5107              		.loc 9 230 42 view .LVU1204
 5108 0152 C0F02381 		bcc	.L345
 5109              	.LVL391:
ARM GAS  /var/folders/hl/qgbwny5j0fd895c2c41bk3tw0000gp/T//cceIFtrC.s 			page 153


 5110              	.LBB1445:
 5111              	.LBB1439:
 5112              	.LBB1433:
 354:../../libDaisy//src/dev/oled_ssd130x.h ****             return;
 5113              		.loc 15 354 9 view .LVU1205
 5114 0156 002F     		cmp	r7, #0
 5115 0158 40F05081 		bne	.L380
 5116 015c 002E     		cmp	r6, #0
 5117 015e 40F04D81 		bne	.L380
 5118              	.LBE1433:
 5119              	.LBE1439:
 5120              	.LBE1445:
 230:../../libDaisy//src/hid/disp/display.h ****         int_fast16_t error  = deltaX - deltaY;
 5121              		.loc 9 230 42 view .LVU1206
 5122 0162 4FF0FF36 		mov	r6, #-1
 5123 0166 0096     		str	r6, [sp]
 5124              	.LBB1446:
 5125              	.LBB1440:
 5126              	.LBB1434:
 357:../../libDaisy//src/dev/oled_ssd130x.h ****         else
 5127              		.loc 15 357 28 view .LVU1207
 5128 0168 E608     		lsrs	r6, r4, #3
 357:../../libDaisy//src/dev/oled_ssd130x.h ****         else
 5129              		.loc 15 357 42 view .LVU1208
 5130 016a 03EBC616 		add	r6, r3, r6, lsl #7
 5131 016e 0644     		add	r6, r6, r0
 356:../../libDaisy//src/dev/oled_ssd130x.h ****             buffer_[x + (y / 8) * width] |= (1 << (y % 8));
 5132              		.loc 15 356 9 view .LVU1209
 5133 0170 002D     		cmp	r5, #0
 5134 0172 00F01E81 		beq	.L347
 5135              	.LVL392:
 5136              	.L419:
 357:../../libDaisy//src/dev/oled_ssd130x.h ****         else
 5137              		.loc 15 357 48 view .LVU1210
 5138 0176 4FF0010C 		mov	ip, #1
 357:../../libDaisy//src/dev/oled_ssd130x.h ****         else
 5139              		.loc 15 357 54 view .LVU1211
 5140 017a 04F00707 		and	r7, r4, #7
 357:../../libDaisy//src/dev/oled_ssd130x.h ****         else
 5141              		.loc 15 357 48 view .LVU1212
 5142 017e 0CFA07F7 		lsl	r7, ip, r7
 357:../../libDaisy//src/dev/oled_ssd130x.h ****         else
 5143              		.loc 15 357 42 view .LVU1213
 5144 0182 96F810C0 		ldrb	ip, [r6, #16]	@ zero_extendqisi2
 5145 0186 47EA0C07 		orr	r7, r7, ip
 5146 018a 3774     		strb	r7, [r6, #16]
 5147 018c 0026     		movs	r6, #0
 5148 018e 0396     		str	r6, [sp, #12]
 5149              	.L346:
 5150              	.LVL393:
 357:../../libDaisy//src/dev/oled_ssd130x.h ****         else
 5151              		.loc 15 357 42 view .LVU1214
 5152              	.LBE1434:
 5153              	.LBE1440:
 5154              	.LBE1446:
 239:../../libDaisy//src/hid/disp/display.h ****         {
 5155              		.loc 9 239 26 is_stmt 1 view .LVU1215
ARM GAS  /var/folders/hl/qgbwny5j0fd895c2c41bk3tw0000gp/T//cceIFtrC.s 			page 154


 5156 0190 A242     		cmp	r2, r4
 5157 0192 00F03D81 		beq	.L418
 5158              	.L349:
 5159              	.LVL394:
 230:../../libDaisy//src/hid/disp/display.h ****         int_fast16_t error  = deltaX - deltaY;
 5160              		.loc 9 230 42 is_stmt 0 view .LVU1216
 5161 0196 C446     		mov	ip, r8
 5162 0198 1646     		mov	r6, r2
 5163 019a 1F46     		mov	r7, r3
 5164 019c 0592     		str	r2, [sp, #20]
 5165              	.LVL395:
 5166              	.L351:
 5167              	.LBB1447:
 5168              	.LBI1447:
  42:../../libDaisy//src/hid/disp/oled_display.h ****     {
 5169              		.loc 8 42 10 is_stmt 1 view .LVU1217
 5170              	.LBB1448:
 5171              	.LBI1448:
 352:../../libDaisy//src/dev/oled_ssd130x.h ****     {
 5172              		.loc 15 352 10 view .LVU1218
 5173              	.LBB1449:
 354:../../libDaisy//src/dev/oled_ssd130x.h ****             return;
 5174              		.loc 15 354 9 is_stmt 0 view .LVU1219
 5175 019e 7F2F     		cmp	r7, #127
 5176 01a0 15D8     		bhi	.L352
 5177 01a2 3F2E     		cmp	r6, #63
 5178 01a4 13D8     		bhi	.L352
 357:../../libDaisy//src/dev/oled_ssd130x.h ****         else
 5179              		.loc 15 357 28 view .LVU1220
 5180 01a6 4FEAD60E 		lsr	lr, r6, #3
 357:../../libDaisy//src/dev/oled_ssd130x.h ****         else
 5181              		.loc 15 357 54 view .LVU1221
 5182 01aa 06F0070B 		and	fp, r6, #7
 357:../../libDaisy//src/dev/oled_ssd130x.h ****         else
 5183              		.loc 15 357 48 view .LVU1222
 5184 01ae 4FF0010A 		mov	r10, #1
 357:../../libDaisy//src/dev/oled_ssd130x.h ****         else
 5185              		.loc 15 357 42 view .LVU1223
 5186 01b2 07EBCE1E 		add	lr, r7, lr, lsl #7
 5187 01b6 8644     		add	lr, lr, r0
 356:../../libDaisy//src/dev/oled_ssd130x.h ****             buffer_[x + (y / 8) * width] |= (1 << (y % 8));
 5188              		.loc 15 356 9 view .LVU1224
 5189 01b8 002D     		cmp	r5, #0
 5190 01ba 00F0E680 		beq	.L353
 357:../../libDaisy//src/dev/oled_ssd130x.h ****         else
 5191              		.loc 15 357 48 view .LVU1225
 5192 01be 0AFA0BFA 		lsl	r10, r10, fp
 357:../../libDaisy//src/dev/oled_ssd130x.h ****         else
 5193              		.loc 15 357 42 view .LVU1226
 5194 01c2 9EF810B0 		ldrb	fp, [lr, #16]	@ zero_extendqisi2
 5195 01c6 4AEA0B0A 		orr	r10, r10, fp
 5196 01ca 8EF810A0 		strb	r10, [lr, #16]
 5197              	.L352:
 5198              	.LVL396:
 357:../../libDaisy//src/dev/oled_ssd130x.h ****         else
 5199              		.loc 15 357 42 view .LVU1227
 5200              	.LBE1449:
ARM GAS  /var/folders/hl/qgbwny5j0fd895c2c41bk3tw0000gp/T//cceIFtrC.s 			page 155


 5201              	.LBE1448:
 5202              	.LBE1447:
 243:../../libDaisy//src/hid/disp/display.h ****             {
 5203              		.loc 9 243 13 view .LVU1228
 5204 01ce B8EB4C0F 		cmp	r8, ip, lsl #1
 242:../../libDaisy//src/hid/disp/display.h ****             if(error2 > -deltaY)
 5205              		.loc 9 242 20 view .LVU1229
 5206 01d2 4FEA4C0E 		lsl	lr, ip, #1
 5207              	.LVL397:
 243:../../libDaisy//src/hid/disp/display.h ****             {
 5208              		.loc 9 243 13 view .LVU1230
 5209 01d6 02DA     		bge	.L354
 245:../../libDaisy//src/hid/disp/display.h ****                 x1 += signX;
 5210              		.loc 9 245 23 view .LVU1231
 5211 01d8 ACEB090C 		sub	ip, ip, r9
 5212              	.LVL398:
 246:../../libDaisy//src/hid/disp/display.h ****             }
 5213              		.loc 9 246 20 view .LVU1232
 5214 01dc 013F     		subs	r7, r7, #1
 5215              	.LVL399:
 5216              	.L354:
 249:../../libDaisy//src/hid/disp/display.h ****             {
 5217              		.loc 9 249 13 view .LVU1233
 5218 01de BEF1000F 		cmp	lr, #0
 5219 01e2 01D0     		beq	.L355
 252:../../libDaisy//src/hid/disp/display.h ****             }
 5220              		.loc 9 252 20 view .LVU1234
 5221 01e4 009A     		ldr	r2, [sp]
 5222 01e6 1644     		add	r6, r6, r2
 5223              	.LVL400:
 5224              	.L355:
 239:../../libDaisy//src/hid/disp/display.h ****         {
 5225              		.loc 9 239 26 is_stmt 1 view .LVU1235
 5226 01e8 BB42     		cmp	r3, r7
 5227 01ea D8D1     		bne	.L351
 239:../../libDaisy//src/hid/disp/display.h ****         {
 5228              		.loc 9 239 26 is_stmt 0 view .LVU1236
 5229 01ec B442     		cmp	r4, r6
 5230 01ee D6D1     		bne	.L351
 5231 01f0 059A     		ldr	r2, [sp, #20]
 5232              	.LVL401:
 5233              	.L348:
 239:../../libDaisy//src/hid/disp/display.h ****         {
 5234              		.loc 9 239 26 view .LVU1237
 5235              	.LBE1425:
 5236              	.LBE1424:
 5237              	.LBB1460:
 5238              	.LBI1460:
 221:../../libDaisy//src/hid/disp/display.h ****                   uint_fast8_t y1,
 5239              		.loc 9 221 10 is_stmt 1 view .LVU1238
 5240              	.LBB1461:
 227:../../libDaisy//src/hid/disp/display.h ****         int_fast16_t deltaY = abs((int_fast16_t)y2 - (int_fast16_t)y1);
 5241              		.loc 9 227 52 is_stmt 0 view .LVU1239
 5242 01f2 A1EB030E 		sub	lr, r1, r3
 227:../../libDaisy//src/hid/disp/display.h ****         int_fast16_t deltaY = abs((int_fast16_t)y2 - (int_fast16_t)y1);
 5243              		.loc 9 227 22 view .LVU1240
 5244 01f6 BEF1000F 		cmp	lr, #0
ARM GAS  /var/folders/hl/qgbwny5j0fd895c2c41bk3tw0000gp/T//cceIFtrC.s 			page 156


 5245 01fa B8BF     		it	lt
 5246 01fc CEF1000E 		rsblt	lr, lr, #0
 5247              	.LVL402:
 5248              	.LBB1462:
 5249              	.LBB1463:
 5250              	.LBB1464:
 354:../../libDaisy//src/dev/oled_ssd130x.h ****             return;
 5251              		.loc 15 354 14 view .LVU1241
 5252 0200 7F29     		cmp	r1, #127
 5253 0202 94BF     		ite	ls
 5254 0204 4FF0000A 		movls	r10, #0
 5255 0208 4FF0010A 		movhi	r10, #1
 5256              	.LBE1464:
 5257              	.LBE1463:
 5258              	.LBE1462:
 229:../../libDaisy//src/hid/disp/display.h ****         int_fast16_t signY  = ((y1 < y2) ? 1 : -1);
 5259              		.loc 9 229 42 view .LVU1242
 5260 020c 9942     		cmp	r1, r3
 5261 020e 8CBF     		ite	hi
 5262 0210 4FF00109 		movhi	r9, #1
 5263 0214 4FF0FF39 		movls	r9, #-1
 5264              	.LVL403:
 5265              	.LBB1471:
 5266              	.LBI1462:
  42:../../libDaisy//src/hid/disp/oled_display.h ****     {
 5267              		.loc 8 42 10 is_stmt 1 view .LVU1243
 5268              	.LBB1469:
 5269              	.LBI1463:
 352:../../libDaisy//src/dev/oled_ssd130x.h ****     {
 5270              		.loc 15 352 10 view .LVU1244
 5271              	.LBB1467:
 354:../../libDaisy//src/dev/oled_ssd130x.h ****             return;
 5272              		.loc 15 354 9 is_stmt 0 view .LVU1245
 5273 0218 BAF1000F 		cmp	r10, #0
 5274 021c 13D1     		bne	.L357
 5275 021e 039E     		ldr	r6, [sp, #12]
 5276 0220 8EB9     		cbnz	r6, .L357
 357:../../libDaisy//src/dev/oled_ssd130x.h ****         else
 5277              		.loc 15 357 28 view .LVU1246
 5278 0222 E608     		lsrs	r6, r4, #3
 357:../../libDaisy//src/dev/oled_ssd130x.h ****         else
 5279              		.loc 15 357 42 view .LVU1247
 5280 0224 01EBC616 		add	r6, r1, r6, lsl #7
 5281 0228 0644     		add	r6, r6, r0
 356:../../libDaisy//src/dev/oled_ssd130x.h ****             buffer_[x + (y / 8) * width] |= (1 << (y % 8));
 5282              		.loc 15 356 9 view .LVU1248
 5283 022a 002D     		cmp	r5, #0
 5284 022c 00F0D380 		beq	.L358
 357:../../libDaisy//src/dev/oled_ssd130x.h ****         else
 5285              		.loc 15 357 48 view .LVU1249
 5286 0230 4FF0010C 		mov	ip, #1
 357:../../libDaisy//src/dev/oled_ssd130x.h ****         else
 5287              		.loc 15 357 54 view .LVU1250
 5288 0234 04F00707 		and	r7, r4, #7
 357:../../libDaisy//src/dev/oled_ssd130x.h ****         else
 5289              		.loc 15 357 48 view .LVU1251
 5290 0238 0CFA07F7 		lsl	r7, ip, r7
ARM GAS  /var/folders/hl/qgbwny5j0fd895c2c41bk3tw0000gp/T//cceIFtrC.s 			page 157


 357:../../libDaisy//src/dev/oled_ssd130x.h ****         else
 5291              		.loc 15 357 42 view .LVU1252
 5292 023c 96F810C0 		ldrb	ip, [r6, #16]	@ zero_extendqisi2
 5293 0240 47EA0C07 		orr	r7, r7, ip
 5294 0244 3774     		strb	r7, [r6, #16]
 5295              	.L357:
 5296              	.LVL404:
 357:../../libDaisy//src/dev/oled_ssd130x.h ****         else
 5297              		.loc 15 357 42 view .LVU1253
 5298              	.LBE1467:
 5299              	.LBE1469:
 5300              	.LBE1471:
 239:../../libDaisy//src/hid/disp/display.h ****         {
 5301              		.loc 9 239 26 is_stmt 1 view .LVU1254
 5302 0246 049E     		ldr	r6, [sp, #16]
 5303 0248 26BB     		cbnz	r6, .L359
 227:../../libDaisy//src/hid/disp/display.h ****         int_fast16_t deltaY = abs((int_fast16_t)y2 - (int_fast16_t)y1);
 5304              		.loc 9 227 22 is_stmt 0 view .LVU1255
 5305 024a 7746     		mov	r7, lr
 239:../../libDaisy//src/hid/disp/display.h ****         {
 5306              		.loc 9 239 26 view .LVU1256
 5307 024c 2646     		mov	r6, r4
 5308              	.LVL405:
 5309              	.L360:
 5310              	.LBB1472:
 5311              	.LBI1472:
  42:../../libDaisy//src/hid/disp/oled_display.h ****     {
 5312              		.loc 8 42 10 is_stmt 1 view .LVU1257
 5313              	.LBB1473:
 5314              	.LBI1473:
 352:../../libDaisy//src/dev/oled_ssd130x.h ****     {
 5315              		.loc 15 352 10 view .LVU1258
 5316              	.LBB1474:
 354:../../libDaisy//src/dev/oled_ssd130x.h ****             return;
 5317              		.loc 15 354 9 is_stmt 0 view .LVU1259
 5318 024e 7F2B     		cmp	r3, #127
 5319 0250 14D8     		bhi	.L362
 354:../../libDaisy//src/dev/oled_ssd130x.h ****             return;
 5320              		.loc 15 354 9 view .LVU1260
 5321 0252 3F2E     		cmp	r6, #63
 5322 0254 12D8     		bhi	.L362
 357:../../libDaisy//src/dev/oled_ssd130x.h ****         else
 5323              		.loc 15 357 28 view .LVU1261
 5324 0256 4FEAD60C 		lsr	ip, r6, #3
 357:../../libDaisy//src/dev/oled_ssd130x.h ****         else
 5325              		.loc 15 357 54 view .LVU1262
 5326 025a 06F0070B 		and	fp, r6, #7
 357:../../libDaisy//src/dev/oled_ssd130x.h ****         else
 5327              		.loc 15 357 48 view .LVU1263
 5328 025e 4FF00108 		mov	r8, #1
 357:../../libDaisy//src/dev/oled_ssd130x.h ****         else
 5329              		.loc 15 357 42 view .LVU1264
 5330 0262 03EBCC1C 		add	ip, r3, ip, lsl #7
 5331 0266 8444     		add	ip, ip, r0
 356:../../libDaisy//src/dev/oled_ssd130x.h ****             buffer_[x + (y / 8) * width] |= (1 << (y % 8));
 5332              		.loc 15 356 9 view .LVU1265
 5333 0268 002D     		cmp	r5, #0
ARM GAS  /var/folders/hl/qgbwny5j0fd895c2c41bk3tw0000gp/T//cceIFtrC.s 			page 158


 5334 026a 73D0     		beq	.L363
 357:../../libDaisy//src/dev/oled_ssd130x.h ****         else
 5335              		.loc 15 357 48 view .LVU1266
 5336 026c 08FA0BF8 		lsl	r8, r8, fp
 357:../../libDaisy//src/dev/oled_ssd130x.h ****         else
 5337              		.loc 15 357 42 view .LVU1267
 5338 0270 9CF810B0 		ldrb	fp, [ip, #16]	@ zero_extendqisi2
 5339 0274 48EA0B08 		orr	r8, r8, fp
 5340 0278 8CF81080 		strb	r8, [ip, #16]
 5341              	.L362:
 5342              	.LVL406:
 357:../../libDaisy//src/dev/oled_ssd130x.h ****         else
 5343              		.loc 15 357 42 view .LVU1268
 5344              	.LBE1474:
 5345              	.LBE1473:
 5346              	.LBE1472:
 243:../../libDaisy//src/hid/disp/display.h ****             {
 5347              		.loc 9 243 13 view .LVU1269
 5348 027c 5FEA470C 		lsls	ip, r7, #1
 5349              	.LVL407:
 246:../../libDaisy//src/hid/disp/display.h ****             }
 5350              		.loc 9 246 20 view .LVU1270
 5351 0280 18BF     		it	ne
 5352 0282 4B44     		addne	r3, r3, r9
 5353              	.LVL408:
 249:../../libDaisy//src/hid/disp/display.h ****             {
 5354              		.loc 9 249 13 view .LVU1271
 5355 0284 E645     		cmp	lr, ip
 5356 0286 01DD     		ble	.L365
 251:../../libDaisy//src/hid/disp/display.h ****                 y1 += signY;
 5357              		.loc 9 251 23 view .LVU1272
 5358 0288 7744     		add	r7, r7, lr
 5359              	.LVL409:
 252:../../libDaisy//src/hid/disp/display.h ****             }
 5360              		.loc 9 252 20 view .LVU1273
 5361 028a 013E     		subs	r6, r6, #1
 5362              	.LVL410:
 5363              	.L365:
 239:../../libDaisy//src/hid/disp/display.h ****         {
 5364              		.loc 9 239 26 is_stmt 1 view .LVU1274
 5365 028c 9942     		cmp	r1, r3
 5366 028e DED1     		bne	.L360
 239:../../libDaisy//src/hid/disp/display.h ****         {
 5367              		.loc 9 239 26 is_stmt 0 view .LVU1275
 5368 0290 B442     		cmp	r4, r6
 5369 0292 DCD1     		bne	.L360
 5370              	.LVL411:
 5371              	.L359:
 239:../../libDaisy//src/hid/disp/display.h ****         {
 5372              		.loc 9 239 26 view .LVU1276
 5373              	.LBE1461:
 5374              	.LBE1460:
 5375              	.LBB1483:
 5376              	.LBI1483:
 221:../../libDaisy//src/hid/disp/display.h ****                   uint_fast8_t y1,
 5377              		.loc 9 221 10 is_stmt 1 view .LVU1277
 5378              	.LBB1484:
ARM GAS  /var/folders/hl/qgbwny5j0fd895c2c41bk3tw0000gp/T//cceIFtrC.s 			page 159


 228:../../libDaisy//src/hid/disp/display.h ****         int_fast16_t signX  = ((x1 < x2) ? 1 : -1);
 5379              		.loc 9 228 52 is_stmt 0 view .LVU1278
 5380 0294 A2EB040E 		sub	lr, r2, r4
 228:../../libDaisy//src/hid/disp/display.h ****         int_fast16_t signX  = ((x1 < x2) ? 1 : -1);
 5381              		.loc 9 228 22 view .LVU1279
 5382 0298 BEF1000F 		cmp	lr, #0
 5383 029c B8BF     		it	lt
 5384 029e CEF1000E 		rsblt	lr, lr, #0
 5385              	.LVL412:
 230:../../libDaisy//src/hid/disp/display.h ****         int_fast16_t error  = deltaX - deltaY;
 5386              		.loc 9 230 42 view .LVU1280
 5387 02a2 A242     		cmp	r2, r4
 5388 02a4 8CBF     		ite	hi
 5389 02a6 4FF00108 		movhi	r8, #1
 5390 02aa 4FF0FF38 		movls	r8, #-1
 5391              	.LVL413:
 231:../../libDaisy//src/hid/disp/display.h ****         int_fast16_t error2;
 5392              		.loc 9 231 22 view .LVU1281
 5393 02ae CEF1000C 		rsb	ip, lr, #0
 5394              	.LVL414:
 5395              	.LBB1485:
 5396              	.LBI1485:
  42:../../libDaisy//src/hid/disp/oled_display.h ****     {
 5397              		.loc 8 42 10 is_stmt 1 view .LVU1282
 5398              	.LBB1486:
 5399              	.LBI1486:
 352:../../libDaisy//src/dev/oled_ssd130x.h ****     {
 5400              		.loc 15 352 10 view .LVU1283
 5401              	.LBB1487:
 354:../../libDaisy//src/dev/oled_ssd130x.h ****             return;
 5402              		.loc 15 354 9 is_stmt 0 view .LVU1284
 5403 02b2 BAF1000F 		cmp	r10, #0
 5404 02b6 0ED1     		bne	.L367
 5405 02b8 029B     		ldr	r3, [sp, #8]
 5406 02ba 63B9     		cbnz	r3, .L367
 357:../../libDaisy//src/dev/oled_ssd130x.h ****         else
 5407              		.loc 15 357 28 view .LVU1285
 5408 02bc D308     		lsrs	r3, r2, #3
 357:../../libDaisy//src/dev/oled_ssd130x.h ****         else
 5409              		.loc 15 357 54 view .LVU1286
 5410 02be 02F00707 		and	r7, r2, #7
 357:../../libDaisy//src/dev/oled_ssd130x.h ****         else
 5411              		.loc 15 357 48 view .LVU1287
 5412 02c2 0126     		movs	r6, #1
 357:../../libDaisy//src/dev/oled_ssd130x.h ****         else
 5413              		.loc 15 357 42 view .LVU1288
 5414 02c4 01EBC313 		add	r3, r1, r3, lsl #7
 5415 02c8 0344     		add	r3, r3, r0
 356:../../libDaisy//src/dev/oled_ssd130x.h ****             buffer_[x + (y / 8) * width] |= (1 << (y % 8));
 5416              		.loc 15 356 9 view .LVU1289
 5417 02ca 002D     		cmp	r5, #0
 5418 02cc 7CD0     		beq	.L368
 357:../../libDaisy//src/dev/oled_ssd130x.h ****         else
 5419              		.loc 15 357 48 view .LVU1290
 5420 02ce BE40     		lsls	r6, r6, r7
 357:../../libDaisy//src/dev/oled_ssd130x.h ****         else
 5421              		.loc 15 357 42 view .LVU1291
ARM GAS  /var/folders/hl/qgbwny5j0fd895c2c41bk3tw0000gp/T//cceIFtrC.s 			page 160


 5422 02d0 1F7C     		ldrb	r7, [r3, #16]	@ zero_extendqisi2
 5423 02d2 3E43     		orrs	r6, r6, r7
 5424 02d4 1E74     		strb	r6, [r3, #16]
 5425              	.L367:
 5426              	.LVL415:
 357:../../libDaisy//src/dev/oled_ssd130x.h ****         else
 5427              		.loc 15 357 42 view .LVU1292
 5428              	.LBE1487:
 5429              	.LBE1486:
 5430              	.LBE1485:
 239:../../libDaisy//src/hid/disp/display.h ****         {
 5431              		.loc 9 239 26 is_stmt 1 view .LVU1293
 5432 02d6 019B     		ldr	r3, [sp, #4]
 5433 02d8 002B     		cmp	r3, #0
 5434 02da 7FF4CDAE 		bne	.L325
 5435 02de 6646     		mov	r6, ip
 5436 02e0 0B46     		mov	r3, r1
 5437              	.LVL416:
 5438              	.L369:
 5439              	.LBB1492:
 5440              	.LBI1492:
  42:../../libDaisy//src/hid/disp/oled_display.h ****     {
 5441              		.loc 8 42 10 view .LVU1294
 5442              	.LBB1493:
 5443              	.LBI1493:
 352:../../libDaisy//src/dev/oled_ssd130x.h ****     {
 5444              		.loc 15 352 10 view .LVU1295
 5445              	.LBB1494:
 354:../../libDaisy//src/dev/oled_ssd130x.h ****             return;
 5446              		.loc 15 354 9 is_stmt 0 view .LVU1296
 5447 02e2 7F2B     		cmp	r3, #127
 5448 02e4 12D8     		bhi	.L371
 354:../../libDaisy//src/dev/oled_ssd130x.h ****             return;
 5449              		.loc 15 354 9 view .LVU1297
 5450 02e6 3F2C     		cmp	r4, #63
 5451 02e8 10D8     		bhi	.L371
 357:../../libDaisy//src/dev/oled_ssd130x.h ****         else
 5452              		.loc 15 357 28 view .LVU1298
 5453 02ea E708     		lsrs	r7, r4, #3
 357:../../libDaisy//src/dev/oled_ssd130x.h ****         else
 5454              		.loc 15 357 54 view .LVU1299
 5455 02ec 04F0070A 		and	r10, r4, #7
 357:../../libDaisy//src/dev/oled_ssd130x.h ****         else
 5456              		.loc 15 357 48 view .LVU1300
 5457 02f0 4FF00109 		mov	r9, #1
 357:../../libDaisy//src/dev/oled_ssd130x.h ****         else
 5458              		.loc 15 357 42 view .LVU1301
 5459 02f4 03EBC717 		add	r7, r3, r7, lsl #7
 5460 02f8 0744     		add	r7, r7, r0
 356:../../libDaisy//src/dev/oled_ssd130x.h ****             buffer_[x + (y / 8) * width] |= (1 << (y % 8));
 5461              		.loc 15 356 9 view .LVU1302
 5462 02fa A5B3     		cbz	r5, .L372
 357:../../libDaisy//src/dev/oled_ssd130x.h ****         else
 5463              		.loc 15 357 48 view .LVU1303
 5464 02fc 09FA0AF9 		lsl	r9, r9, r10
 357:../../libDaisy//src/dev/oled_ssd130x.h ****         else
 5465              		.loc 15 357 42 view .LVU1304
ARM GAS  /var/folders/hl/qgbwny5j0fd895c2c41bk3tw0000gp/T//cceIFtrC.s 			page 161


 5466 0300 97F810A0 		ldrb	r10, [r7, #16]	@ zero_extendqisi2
 5467 0304 49EA0A09 		orr	r9, r9, r10
 5468 0308 87F81090 		strb	r9, [r7, #16]
 5469              	.L371:
 5470              	.LVL417:
 357:../../libDaisy//src/dev/oled_ssd130x.h ****         else
 5471              		.loc 15 357 42 view .LVU1305
 5472              	.LBE1494:
 5473              	.LBE1493:
 5474              	.LBE1492:
 243:../../libDaisy//src/hid/disp/display.h ****             {
 5475              		.loc 9 243 13 view .LVU1306
 5476 030c BCEB460F 		cmp	ip, r6, lsl #1
 242:../../libDaisy//src/hid/disp/display.h ****             if(error2 > -deltaY)
 5477              		.loc 9 242 20 view .LVU1307
 5478 0310 4FEA4607 		lsl	r7, r6, #1
 5479              	.LVL418:
 243:../../libDaisy//src/hid/disp/display.h ****             {
 5480              		.loc 9 243 13 view .LVU1308
 5481 0314 02DA     		bge	.L373
 245:../../libDaisy//src/hid/disp/display.h ****                 x1 += signX;
 5482              		.loc 9 245 23 view .LVU1309
 5483 0316 A6EB0E06 		sub	r6, r6, lr
 5484              	.LVL419:
 246:../../libDaisy//src/hid/disp/display.h ****             }
 5485              		.loc 9 246 20 view .LVU1310
 5486 031a 013B     		subs	r3, r3, #1
 5487              	.LVL420:
 5488              	.L373:
 249:../../libDaisy//src/hid/disp/display.h ****             {
 5489              		.loc 9 249 13 view .LVU1311
 5490 031c 07B1     		cbz	r7, .L374
 252:../../libDaisy//src/hid/disp/display.h ****             }
 5491              		.loc 9 252 20 view .LVU1312
 5492 031e 4444     		add	r4, r4, r8
 5493              	.LVL421:
 5494              	.L374:
 239:../../libDaisy//src/hid/disp/display.h ****         {
 5495              		.loc 9 239 26 is_stmt 1 view .LVU1313
 5496 0320 9942     		cmp	r1, r3
 5497 0322 DED1     		bne	.L369
 239:../../libDaisy//src/hid/disp/display.h ****         {
 5498              		.loc 9 239 26 is_stmt 0 view .LVU1314
 5499 0324 A242     		cmp	r2, r4
 5500 0326 DCD1     		bne	.L369
 5501              	.LBE1484:
 5502              	.LBE1483:
 5503              	.LBE1536:
 281:../../libDaisy//src/hid/disp/display.h **** 
 5504              		.loc 9 281 5 view .LVU1315
 5505 0328 07B0     		add	sp, sp, #28
 5506              		.cfi_remember_state
 5507              		.cfi_def_cfa_offset 36
 5508              		@ sp needed
 5509 032a BDE8F08F 		pop	{r4, r5, r6, r7, r8, r9, r10, fp, pc}
 5510              	.LVL422:
 5511              	.L334:
ARM GAS  /var/folders/hl/qgbwny5j0fd895c2c41bk3tw0000gp/T//cceIFtrC.s 			page 162


 5512              		.cfi_restore_state
 5513              	.LBB1537:
 5514              	.LBB1503:
 5515              	.LBB1420:
 5516              	.LBB1416:
  42:../../libDaisy//src/hid/disp/oled_display.h ****     {
 5517              		.loc 8 42 10 is_stmt 1 view .LVU1316
 5518              	.LBB1405:
 352:../../libDaisy//src/dev/oled_ssd130x.h ****     {
 5519              		.loc 15 352 10 view .LVU1317
 5520              	.LBB1401:
 354:../../libDaisy//src/dev/oled_ssd130x.h ****             return;
 5521              		.loc 15 354 28 is_stmt 0 view .LVU1318
 5522 032e 3F2A     		cmp	r2, #63
 5523              	.LBE1401:
 5524              	.LBE1405:
 5525              	.LBE1416:
 229:../../libDaisy//src/hid/disp/display.h ****         int_fast16_t signY  = ((y1 < y2) ? 1 : -1);
 5526              		.loc 9 229 42 view .LVU1319
 5527 0330 4FF0010A 		mov	r10, #1
 5528              	.LBB1417:
 5529              	.LBB1406:
 5530              	.LBB1402:
 354:../../libDaisy//src/dev/oled_ssd130x.h ****             return;
 5531              		.loc 15 354 28 view .LVU1320
 5532 0334 94BF     		ite	ls
 5533 0336 0026     		movls	r6, #0
 5534 0338 0126     		movhi	r6, #1
 354:../../libDaisy//src/dev/oled_ssd130x.h ****             return;
 5535              		.loc 15 354 14 view .LVU1321
 5536 033a 7F2B     		cmp	r3, #127
 354:../../libDaisy//src/dev/oled_ssd130x.h ****             return;
 5537              		.loc 15 354 28 view .LVU1322
 5538 033c 0296     		str	r6, [sp, #8]
 354:../../libDaisy//src/dev/oled_ssd130x.h ****             return;
 5539              		.loc 15 354 14 view .LVU1323
 5540 033e 94BF     		ite	ls
 5541 0340 0027     		movls	r7, #0
 5542 0342 0127     		movhi	r7, #1
 5543 0344 0097     		str	r7, [sp]
 354:../../libDaisy//src/dev/oled_ssd130x.h ****             return;
 5544              		.loc 15 354 9 view .LVU1324
 5545 0346 002E     		cmp	r6, #0
 5546 0348 7FF4C8AE 		bne	.L338
 5547 034c 002F     		cmp	r7, #0
 5548 034e 3FF4AEAE 		beq	.L376
 5549 0352 C3E6     		b	.L338
 5550              	.LVL423:
 5551              	.L363:
 354:../../libDaisy//src/dev/oled_ssd130x.h ****             return;
 5552              		.loc 15 354 9 view .LVU1325
 5553              	.LBE1402:
 5554              	.LBE1406:
 5555              	.LBE1417:
 5556              	.LBE1420:
 5557              	.LBE1503:
 5558              	.LBB1504:
ARM GAS  /var/folders/hl/qgbwny5j0fd895c2c41bk3tw0000gp/T//cceIFtrC.s 			page 163


 5559              	.LBB1481:
 5560              	.LBB1479:
 5561              	.LBB1478:
 5562              	.LBB1477:
 5563              	.LBB1475:
 5564              	.LBI1475:
 352:../../libDaisy//src/dev/oled_ssd130x.h ****     {
 5565              		.loc 15 352 10 is_stmt 1 view .LVU1326
 5566              	.LBB1476:
 359:../../libDaisy//src/dev/oled_ssd130x.h ****     }
 5567              		.loc 15 359 49 is_stmt 0 view .LVU1327
 5568 0354 08FA0BFB 		lsl	fp, r8, fp
 359:../../libDaisy//src/dev/oled_ssd130x.h ****     }
 5569              		.loc 15 359 42 view .LVU1328
 5570 0358 9CF81080 		ldrb	r8, [ip, #16]	@ zero_extendqisi2
 5571 035c 28EA0B08 		bic	r8, r8, fp
 5572 0360 8CF81080 		strb	r8, [ip, #16]
 5573 0364 8AE7     		b	.L362
 5574              	.LVL424:
 5575              	.L372:
 359:../../libDaisy//src/dev/oled_ssd130x.h ****     }
 5576              		.loc 15 359 42 view .LVU1329
 5577              	.LBE1476:
 5578              	.LBE1475:
 5579              	.LBE1477:
 5580              	.LBE1478:
 5581              	.LBE1479:
 5582              	.LBE1481:
 5583              	.LBE1504:
 5584              	.LBB1505:
 5585              	.LBB1501:
 5586              	.LBB1499:
 5587              	.LBB1498:
 5588              	.LBB1497:
 5589              	.LBB1495:
 5590              	.LBI1495:
 352:../../libDaisy//src/dev/oled_ssd130x.h ****     {
 5591              		.loc 15 352 10 is_stmt 1 view .LVU1330
 5592              	.LBB1496:
 359:../../libDaisy//src/dev/oled_ssd130x.h ****     }
 5593              		.loc 15 359 49 is_stmt 0 view .LVU1331
 5594 0366 09FA0AFA 		lsl	r10, r9, r10
 359:../../libDaisy//src/dev/oled_ssd130x.h ****     }
 5595              		.loc 15 359 42 view .LVU1332
 5596 036a 97F81090 		ldrb	r9, [r7, #16]	@ zero_extendqisi2
 5597 036e 29EA0A09 		bic	r9, r9, r10
 5598 0372 87F81090 		strb	r9, [r7, #16]
 5599 0376 C9E7     		b	.L371
 5600              	.LVL425:
 5601              	.L342:
 359:../../libDaisy//src/dev/oled_ssd130x.h ****     }
 5602              		.loc 15 359 42 view .LVU1333
 5603              	.LBE1496:
 5604              	.LBE1495:
 5605              	.LBE1497:
 5606              	.LBE1498:
 5607              	.LBE1499:
ARM GAS  /var/folders/hl/qgbwny5j0fd895c2c41bk3tw0000gp/T//cceIFtrC.s 			page 164


 5608              	.LBE1501:
 5609              	.LBE1505:
 5610              	.LBB1506:
 5611              	.LBB1421:
 5612              	.LBB1418:
 5613              	.LBB1415:
 5614              	.LBB1414:
 5615              	.LBB1412:
 5616              	.LBI1412:
 352:../../libDaisy//src/dev/oled_ssd130x.h ****     {
 5617              		.loc 15 352 10 is_stmt 1 view .LVU1334
 5618              	.LBB1413:
 359:../../libDaisy//src/dev/oled_ssd130x.h ****     }
 5619              		.loc 15 359 49 is_stmt 0 view .LVU1335
 5620 0378 09FA0BFB 		lsl	fp, r9, fp
 359:../../libDaisy//src/dev/oled_ssd130x.h ****     }
 5621              		.loc 15 359 42 view .LVU1336
 5622 037c 97F81090 		ldrb	r9, [r7, #16]	@ zero_extendqisi2
 5623 0380 29EA0B09 		bic	r9, r9, fp
 5624 0384 87F81090 		strb	r9, [r7, #16]
 5625 0388 C5E6     		b	.L341
 5626              	.LVL426:
 5627              	.L353:
 359:../../libDaisy//src/dev/oled_ssd130x.h ****     }
 5628              		.loc 15 359 42 view .LVU1337
 5629              	.LBE1413:
 5630              	.LBE1412:
 5631              	.LBE1414:
 5632              	.LBE1415:
 5633              	.LBE1418:
 5634              	.LBE1421:
 5635              	.LBE1506:
 5636              	.LBB1507:
 5637              	.LBB1457:
 5638              	.LBB1454:
 5639              	.LBB1453:
 5640              	.LBB1452:
 5641              	.LBB1450:
 5642              	.LBI1450:
 352:../../libDaisy//src/dev/oled_ssd130x.h ****     {
 5643              		.loc 15 352 10 is_stmt 1 view .LVU1338
 5644              	.LBB1451:
 359:../../libDaisy//src/dev/oled_ssd130x.h ****     }
 5645              		.loc 15 359 49 is_stmt 0 view .LVU1339
 5646 038a 0AFA0BFB 		lsl	fp, r10, fp
 359:../../libDaisy//src/dev/oled_ssd130x.h ****     }
 5647              		.loc 15 359 42 view .LVU1340
 5648 038e 9EF810A0 		ldrb	r10, [lr, #16]	@ zero_extendqisi2
 5649 0392 2AEA0B0A 		bic	r10, r10, fp
 5650 0396 8EF810A0 		strb	r10, [lr, #16]
 5651 039a 18E7     		b	.L352
 5652              	.LVL427:
 5653              	.L345:
 359:../../libDaisy//src/dev/oled_ssd130x.h ****     }
 5654              		.loc 15 359 42 view .LVU1341
 5655              	.LBE1451:
 5656              	.LBE1450:
ARM GAS  /var/folders/hl/qgbwny5j0fd895c2c41bk3tw0000gp/T//cceIFtrC.s 			page 165


 5657              	.LBE1452:
 5658              	.LBE1453:
 5659              	.LBE1454:
 5660              	.LBB1455:
 5661              	.LBB1441:
 5662              	.LBB1435:
 354:../../libDaisy//src/dev/oled_ssd130x.h ****             return;
 5663              		.loc 15 354 9 view .LVU1342
 5664 039c 97BB     		cbnz	r7, .L384
 5665 039e 8EBB     		cbnz	r6, .L384
 5666              	.LBE1435:
 5667              	.LBE1441:
 5668              	.LBE1455:
 230:../../libDaisy//src/hid/disp/display.h ****         int_fast16_t error  = deltaX - deltaY;
 5669              		.loc 9 230 42 view .LVU1343
 5670 03a0 0126     		movs	r6, #1
 5671 03a2 0096     		str	r6, [sp]
 5672              	.LBB1456:
 5673              	.LBB1442:
 5674              	.LBB1436:
 357:../../libDaisy//src/dev/oled_ssd130x.h ****         else
 5675              		.loc 15 357 28 view .LVU1344
 5676 03a4 E608     		lsrs	r6, r4, #3
 357:../../libDaisy//src/dev/oled_ssd130x.h ****         else
 5677              		.loc 15 357 42 view .LVU1345
 5678 03a6 03EBC616 		add	r6, r3, r6, lsl #7
 5679 03aa 0644     		add	r6, r6, r0
 356:../../libDaisy//src/dev/oled_ssd130x.h ****             buffer_[x + (y / 8) * width] |= (1 << (y % 8));
 5680              		.loc 15 356 9 view .LVU1346
 5681 03ac 002D     		cmp	r5, #0
 5682 03ae 7FF4E2AE 		bne	.L419
 5683              	.LVL428:
 5684              	.L347:
 5685              	.LBB1429:
 5686              	.LBI1429:
 352:../../libDaisy//src/dev/oled_ssd130x.h ****     {
 5687              		.loc 15 352 10 is_stmt 1 view .LVU1347
 5688              	.LBB1430:
 359:../../libDaisy//src/dev/oled_ssd130x.h ****     }
 5689              		.loc 15 359 49 is_stmt 0 view .LVU1348
 5690 03b2 0127     		movs	r7, #1
 359:../../libDaisy//src/dev/oled_ssd130x.h ****     }
 5691              		.loc 15 359 55 view .LVU1349
 5692 03b4 04F0070C 		and	ip, r4, #7
 359:../../libDaisy//src/dev/oled_ssd130x.h ****     }
 5693              		.loc 15 359 42 view .LVU1350
 5694 03b8 0395     		str	r5, [sp, #12]
 359:../../libDaisy//src/dev/oled_ssd130x.h ****     }
 5695              		.loc 15 359 49 view .LVU1351
 5696 03ba 07FA0CFC 		lsl	ip, r7, ip
 359:../../libDaisy//src/dev/oled_ssd130x.h ****     }
 5697              		.loc 15 359 42 view .LVU1352
 5698 03be 377C     		ldrb	r7, [r6, #16]	@ zero_extendqisi2
 5699 03c0 27EA0C07 		bic	r7, r7, ip
 5700 03c4 3774     		strb	r7, [r6, #16]
 5701 03c6 E3E6     		b	.L346
 5702              	.LVL429:
ARM GAS  /var/folders/hl/qgbwny5j0fd895c2c41bk3tw0000gp/T//cceIFtrC.s 			page 166


 5703              	.L368:
 359:../../libDaisy//src/dev/oled_ssd130x.h ****     }
 5704              		.loc 15 359 42 view .LVU1353
 5705              	.LBE1430:
 5706              	.LBE1429:
 5707              	.LBE1436:
 5708              	.LBE1442:
 5709              	.LBE1456:
 5710              	.LBE1457:
 5711              	.LBE1507:
 5712              	.LBB1508:
 5713              	.LBB1502:
 5714              	.LBB1500:
 5715              	.LBB1491:
 5716              	.LBB1490:
 5717              	.LBB1488:
 5718              	.LBI1488:
 352:../../libDaisy//src/dev/oled_ssd130x.h ****     {
 5719              		.loc 15 352 10 is_stmt 1 view .LVU1354
 5720              	.LBB1489:
 359:../../libDaisy//src/dev/oled_ssd130x.h ****     }
 5721              		.loc 15 359 49 is_stmt 0 view .LVU1355
 5722 03c8 06FA07F7 		lsl	r7, r6, r7
 359:../../libDaisy//src/dev/oled_ssd130x.h ****     }
 5723              		.loc 15 359 42 view .LVU1356
 5724 03cc 1E7C     		ldrb	r6, [r3, #16]	@ zero_extendqisi2
 5725 03ce 26EA0706 		bic	r6, r6, r7
 5726 03d2 1E74     		strb	r6, [r3, #16]
 5727 03d4 7FE7     		b	.L367
 5728              	.LVL430:
 5729              	.L358:
 359:../../libDaisy//src/dev/oled_ssd130x.h ****     }
 5730              		.loc 15 359 42 view .LVU1357
 5731              	.LBE1489:
 5732              	.LBE1488:
 5733              	.LBE1490:
 5734              	.LBE1491:
 5735              	.LBE1500:
 5736              	.LBE1502:
 5737              	.LBE1508:
 5738              	.LBB1509:
 5739              	.LBB1482:
 5740              	.LBB1480:
 5741              	.LBB1470:
 5742              	.LBB1468:
 5743              	.LBB1465:
 5744              	.LBI1465:
 352:../../libDaisy//src/dev/oled_ssd130x.h ****     {
 5745              		.loc 15 352 10 is_stmt 1 view .LVU1358
 5746              	.LBB1466:
 359:../../libDaisy//src/dev/oled_ssd130x.h ****     }
 5747              		.loc 15 359 49 is_stmt 0 view .LVU1359
 5748 03d6 0127     		movs	r7, #1
 359:../../libDaisy//src/dev/oled_ssd130x.h ****     }
 5749              		.loc 15 359 55 view .LVU1360
 5750 03d8 04F0070C 		and	ip, r4, #7
 359:../../libDaisy//src/dev/oled_ssd130x.h ****     }
ARM GAS  /var/folders/hl/qgbwny5j0fd895c2c41bk3tw0000gp/T//cceIFtrC.s 			page 167


 5751              		.loc 15 359 49 view .LVU1361
 5752 03dc 07FA0CFC 		lsl	ip, r7, ip
 359:../../libDaisy//src/dev/oled_ssd130x.h ****     }
 5753              		.loc 15 359 42 view .LVU1362
 5754 03e0 377C     		ldrb	r7, [r6, #16]	@ zero_extendqisi2
 5755 03e2 27EA0C07 		bic	r7, r7, ip
 5756 03e6 3774     		strb	r7, [r6, #16]
 5757 03e8 2DE7     		b	.L357
 5758              	.LVL431:
 5759              	.L336:
 359:../../libDaisy//src/dev/oled_ssd130x.h ****     }
 5760              		.loc 15 359 42 view .LVU1363
 5761              	.LBE1466:
 5762              	.LBE1465:
 5763              	.LBE1468:
 5764              	.LBE1470:
 5765              	.LBE1480:
 5766              	.LBE1482:
 5767              	.LBE1509:
 5768              	.LBB1510:
 5769              	.LBB1422:
 5770              	.LBB1419:
 5771              	.LBB1407:
 5772              	.LBB1403:
 5773              	.LBB1398:
 5774              	.LBI1398:
 352:../../libDaisy//src/dev/oled_ssd130x.h ****     {
 5775              		.loc 15 352 10 is_stmt 1 view .LVU1364
 5776              	.LBB1399:
 359:../../libDaisy//src/dev/oled_ssd130x.h ****     }
 5777              		.loc 15 359 49 is_stmt 0 view .LVU1365
 5778 03ea 07FA0CFC 		lsl	ip, r7, ip
 359:../../libDaisy//src/dev/oled_ssd130x.h ****     }
 5779              		.loc 15 359 42 view .LVU1366
 5780 03ee 377C     		ldrb	r7, [r6, #16]	@ zero_extendqisi2
 5781 03f0 0295     		str	r5, [sp, #8]
 5782 03f2 27EA0C07 		bic	r7, r7, ip
 5783 03f6 0095     		str	r5, [sp]
 5784 03f8 3774     		strb	r7, [r6, #16]
 5785 03fa 6CE6     		b	.L335
 5786              	.LVL432:
 5787              	.L380:
 359:../../libDaisy//src/dev/oled_ssd130x.h ****     }
 5788              		.loc 15 359 42 view .LVU1367
 5789              	.LBE1399:
 5790              	.LBE1398:
 5791              	.LBE1403:
 5792              	.LBE1407:
 5793              	.LBE1419:
 5794              	.LBE1422:
 5795              	.LBE1510:
 5796              	.LBB1511:
 5797              	.LBB1458:
 230:../../libDaisy//src/hid/disp/display.h ****         int_fast16_t error  = deltaX - deltaY;
 5798              		.loc 9 230 42 view .LVU1368
 5799 03fc 4FF0FF36 		mov	r6, #-1
 5800 0400 0096     		str	r6, [sp]
ARM GAS  /var/folders/hl/qgbwny5j0fd895c2c41bk3tw0000gp/T//cceIFtrC.s 			page 168


 5801 0402 C5E6     		b	.L346
 5802              	.LVL433:
 5803              	.L384:
 230:../../libDaisy//src/hid/disp/display.h ****         int_fast16_t error  = deltaX - deltaY;
 5804              		.loc 9 230 42 view .LVU1369
 5805 0404 0126     		movs	r6, #1
 5806 0406 0096     		str	r6, [sp]
 5807 0408 C5E6     		b	.L349
 5808              	.LVL434:
 5809              	.L417:
 230:../../libDaisy//src/hid/disp/display.h ****         int_fast16_t error  = deltaX - deltaY;
 5810              		.loc 9 230 42 view .LVU1370
 5811              	.LBE1458:
 5812              	.LBE1511:
 5813              	.LBB1512:
 5814              	.LBB1423:
 239:../../libDaisy//src/hid/disp/display.h ****         {
 5815              		.loc 9 239 19 view .LVU1371
 5816 040a 0126     		movs	r6, #1
 5817 040c 0496     		str	r6, [sp, #16]
 5818 040e 90E6     		b	.L337
 5819              	.LVL435:
 5820              	.L418:
 239:../../libDaisy//src/hid/disp/display.h ****         {
 5821              		.loc 9 239 19 view .LVU1372
 5822              	.LBE1423:
 5823              	.LBE1512:
 5824              	.LBB1513:
 5825              	.LBB1459:
 239:../../libDaisy//src/hid/disp/display.h ****         {
 5826              		.loc 9 239 33 view .LVU1373
 5827 0410 0126     		movs	r6, #1
 5828 0412 0196     		str	r6, [sp, #4]
 5829 0414 EDE6     		b	.L348
 5830              	.LBE1459:
 5831              	.LBE1513:
 5832              	.LBE1537:
 5833              		.cfi_endproc
 5834              	.LFE5449:
 5836 0416 00BF     		.section	.text.startup.main,"ax",%progbits
 5837              		.align	1
 5838              		.p2align 2,,3
 5839              		.global	main
 5840              		.syntax unified
 5841              		.thumb
 5842              		.thumb_func
 5843              		.fpu fpv5-d16
 5845              	main:
 5846              	.LFB4858:
  57:ifft.cpp      **** 	hw.Init();
 5847              		.loc 16 57 1 is_stmt 1 view -0
 5848              		.cfi_startproc
 5849              		@ Volatile: function does not return.
 5850              		@ args = 0, pretend = 0, frame = 0
 5851              		@ frame_needed = 0, uses_anonymous_args = 0
  58:ifft.cpp      **** 	hw.SetAudioBlockSize(64); // number of samples handled per callback
 5852              		.loc 16 58 2 view .LVU1375
ARM GAS  /var/folders/hl/qgbwny5j0fd895c2c41bk3tw0000gp/T//cceIFtrC.s 			page 169


  57:ifft.cpp      **** 	hw.Init();
 5853              		.loc 16 57 1 is_stmt 0 view .LVU1376
 5854 0000 08B5     		push	{r3, lr}
 5855              		.cfi_def_cfa_offset 8
 5856              		.cfi_offset 3, -8
 5857              		.cfi_offset 14, -4
  58:ifft.cpp      **** 	hw.SetAudioBlockSize(64); // number of samples handled per callback
 5858              		.loc 16 58 9 view .LVU1377
 5859 0002 1848     		ldr	r0, .L427
 5860 0004 FFF7FEFF 		bl	_ZN5daisy8patch_sm12DaisyPatchSM4InitEv
 5861              	.LVL436:
  59:ifft.cpp      **** 
 5862              		.loc 16 59 2 is_stmt 1 view .LVU1378
  59:ifft.cpp      **** 
 5863              		.loc 16 59 22 is_stmt 0 view .LVU1379
 5864 0008 4021     		movs	r1, #64
 5865 000a 1648     		ldr	r0, .L427
 5866 000c FFF7FEFF 		bl	_ZN5daisy8patch_sm12DaisyPatchSM17SetAudioBlockSizeEj
 5867              	.LVL437:
  61:ifft.cpp      **** 
 5868              		.loc 16 61 2 is_stmt 1 view .LVU1380
  61:ifft.cpp      **** 
 5869              		.loc 16 61 9 is_stmt 0 view .LVU1381
 5870 0010 1548     		ldr	r0, .L427+4
 5871 0012 FFF7FEFF 		bl	_ZN5daisy9Patch_Bay4InitEv
 5872              	.LVL438:
  63:ifft.cpp      **** 	hw.StartAudio(AudioCallback);
 5873              		.loc 16 63 2 is_stmt 1 view .LVU1382
  63:ifft.cpp      **** 	hw.StartAudio(AudioCallback);
 5874              		.loc 16 63 23 is_stmt 0 view .LVU1383
 5875 0016 0321     		movs	r1, #3
 5876 0018 1248     		ldr	r0, .L427
 5877 001a FFF7FEFF 		bl	_ZN5daisy8patch_sm12DaisyPatchSM18SetAudioSampleRateENS_9SaiHandle6Config10SampleRateE
 5878              	.LVL439:
  64:ifft.cpp      **** 	while(1)
 5879              		.loc 16 64 2 is_stmt 1 view .LVU1384
  64:ifft.cpp      **** 	while(1)
 5880              		.loc 16 64 15 is_stmt 0 view .LVU1385
 5881 001e 1349     		ldr	r1, .L427+8
 5882 0020 1048     		ldr	r0, .L427
 5883 0022 134D     		ldr	r5, .L427+12
 5884 0024 134C     		ldr	r4, .L427+16
 5885 0026 FFF7FEFF 		bl	_ZN5daisy8patch_sm12DaisyPatchSM10StartAudioEPFvPKPKfPPfjE
 5886              	.LVL440:
 5887              	.L422:
  65:ifft.cpp      **** 	{
 5888              		.loc 16 65 2 is_stmt 1 discriminator 1 view .LVU1386
  67:ifft.cpp      **** 	}
 5889              		.loc 16 67 3 discriminator 1 view .LVU1387
 5890              	.LBB1542:
 5891              	.LBI1542:
  87:ifft.cpp      **** 	}
  88:ifft.cpp      **** }
  89:ifft.cpp      **** 
  90:ifft.cpp      **** void Buffers()
 5892              		.loc 16 90 6 discriminator 1 view .LVU1388
 5893              	.LBB1543:
ARM GAS  /var/folders/hl/qgbwny5j0fd895c2c41bk3tw0000gp/T//cceIFtrC.s 			page 170


  91:ifft.cpp      **** {
  92:ifft.cpp      **** 	if (fft_buf_index >= SAMPLE_BUFFER_LENGTH) 
 5894              		.loc 16 92 2 discriminator 1 view .LVU1389
 5895 002a 2B68     		ldr	r3, [r5]
 5896 002c B3F5806F 		cmp	r3, #1024
 5897 0030 09DA     		bge	.L426
 5898              	.L421:
  93:ifft.cpp      **** 	{ 
  94:ifft.cpp      **** 		fft_buf_index = 0; 
  95:ifft.cpp      **** 		fft_proc(); 
  96:ifft.cpp      **** 	}
  97:ifft.cpp      **** 	
  98:ifft.cpp      **** 	if (ifft_buf_index >= SAMPLE_BUFFER_LENGTH) 
 5899              		.loc 16 98 2 view .LVU1390
  99:ifft.cpp      **** 	{ 
 100:ifft.cpp      **** 		ifft_buf_index = 0; 
 5900              		.loc 16 100 3 view .LVU1391
  98:ifft.cpp      **** 	{ 
 5901              		.loc 16 98 2 is_stmt 0 view .LVU1392
 5902 0032 2368     		ldr	r3, [r4]
 5903              		.loc 16 100 18 view .LVU1393
 5904 0034 0022     		movs	r2, #0
  98:ifft.cpp      **** 	{ 
 5905              		.loc 16 98 2 view .LVU1394
 5906 0036 B3F5806F 		cmp	r3, #1024
 5907 003a F6DB     		blt	.L422
  92:ifft.cpp      **** 	{ 
 5908              		.loc 16 92 2 view .LVU1395
 5909 003c 2B68     		ldr	r3, [r5]
 5910              		.loc 16 100 18 view .LVU1396
 5911 003e 2260     		str	r2, [r4]
 5912              	.LBE1543:
 5913              	.LBE1542:
  65:ifft.cpp      **** 	{
 5914              		.loc 16 65 2 is_stmt 1 view .LVU1397
  67:ifft.cpp      **** 	}
 5915              		.loc 16 67 3 view .LVU1398
 5916              	.LBB1549:
  90:ifft.cpp      **** {
 5917              		.loc 16 90 6 view .LVU1399
 5918              	.LBB1548:
  92:ifft.cpp      **** 	{ 
 5919              		.loc 16 92 2 view .LVU1400
 5920 0040 B3F5806F 		cmp	r3, #1024
 5921 0044 F5DB     		blt	.L421
 5922              	.L426:
  94:ifft.cpp      **** 		fft_proc(); 
 5923              		.loc 16 94 3 view .LVU1401
  94:ifft.cpp      **** 		fft_proc(); 
 5924              		.loc 16 94 17 is_stmt 0 view .LVU1402
 5925 0046 0023     		movs	r3, #0
 5926              	.LBB1544:
 5927              	.LBB1545:
  73:ifft.cpp      **** 	arm_rfft_fast_f32(&fft,fftOutput, ifftOutput, 1);
 5928              		.loc 16 73 19 view .LVU1403
 5929 0048 0B4A     		ldr	r2, .L427+20
 5930 004a 0C49     		ldr	r1, .L427+24
ARM GAS  /var/folders/hl/qgbwny5j0fd895c2c41bk3tw0000gp/T//cceIFtrC.s 			page 171


 5931 004c 0C48     		ldr	r0, .L427+28
 5932              	.LBE1545:
 5933              	.LBE1544:
  94:ifft.cpp      **** 		fft_proc(); 
 5934              		.loc 16 94 17 view .LVU1404
 5935 004e 2B60     		str	r3, [r5]
  95:ifft.cpp      **** 	}
 5936              		.loc 16 95 3 is_stmt 1 view .LVU1405
 5937              	.LBB1547:
 5938              	.LBI1544:
  71:ifft.cpp      **** {
 5939              		.loc 16 71 6 view .LVU1406
 5940              	.LBB1546:
  73:ifft.cpp      **** 	arm_rfft_fast_f32(&fft,fftOutput, ifftOutput, 1);
 5941              		.loc 16 73 2 view .LVU1407
  73:ifft.cpp      **** 	arm_rfft_fast_f32(&fft,fftOutput, ifftOutput, 1);
 5942              		.loc 16 73 19 is_stmt 0 view .LVU1408
 5943 0050 FFF7FEFF 		bl	arm_rfft_fast_f32
 5944              	.LVL441:
  74:ifft.cpp      **** }
 5945              		.loc 16 74 2 is_stmt 1 view .LVU1409
  74:ifft.cpp      **** }
 5946              		.loc 16 74 19 is_stmt 0 view .LVU1410
 5947 0054 0123     		movs	r3, #1
 5948 0056 0B4A     		ldr	r2, .L427+32
 5949 0058 0749     		ldr	r1, .L427+20
 5950 005a 0948     		ldr	r0, .L427+28
 5951 005c FFF7FEFF 		bl	arm_rfft_fast_f32
 5952              	.LVL442:
  75:ifft.cpp      **** 
 5953              		.loc 16 75 1 view .LVU1411
 5954 0060 E7E7     		b	.L421
 5955              	.L428:
 5956 0062 00BF     		.align	2
 5957              	.L427:
 5958 0064 00000000 		.word	.LANCHOR0
 5959 0068 00000000 		.word	.LANCHOR5
 5960 006c 00000000 		.word	_Z13AudioCallbackPKPKfPPfj
 5961 0070 00000000 		.word	.LANCHOR2
 5962 0074 00000000 		.word	.LANCHOR3
 5963 0078 00000000 		.word	_ZL9fftOutput
 5964 007c 00000000 		.word	_ZL8fftInput
 5965 0080 00000000 		.word	.LANCHOR6
 5966 0084 00000000 		.word	_ZL10ifftOutput
 5967              	.LBE1546:
 5968              	.LBE1547:
 5969              	.LBE1548:
 5970              	.LBE1549:
 5971              		.cfi_endproc
 5972              	.LFE4858:
 5974              		.section	.text._Z8fft_procv,"ax",%progbits
 5975              		.align	1
 5976              		.p2align 2,,3
 5977              		.global	_Z8fft_procv
 5978              		.syntax unified
 5979              		.thumb
 5980              		.thumb_func
ARM GAS  /var/folders/hl/qgbwny5j0fd895c2c41bk3tw0000gp/T//cceIFtrC.s 			page 172


 5981              		.fpu fpv5-d16
 5983              	_Z8fft_procv:
 5984              	.LFB4859:
  72:ifft.cpp      **** 	arm_rfft_fast_f32(&fft,fftInput, fftOutput, 0);
 5985              		.loc 16 72 1 is_stmt 1 view -0
 5986              		.cfi_startproc
 5987              		@ args = 0, pretend = 0, frame = 0
 5988              		@ frame_needed = 0, uses_anonymous_args = 0
  73:ifft.cpp      **** 	arm_rfft_fast_f32(&fft,fftOutput, ifftOutput, 1);
 5989              		.loc 16 73 2 view .LVU1413
  72:ifft.cpp      **** 	arm_rfft_fast_f32(&fft,fftInput, fftOutput, 0);
 5990              		.loc 16 72 1 is_stmt 0 view .LVU1414
 5991 0000 10B5     		push	{r4, lr}
 5992              		.cfi_def_cfa_offset 8
 5993              		.cfi_offset 4, -8
 5994              		.cfi_offset 14, -4
  73:ifft.cpp      **** 	arm_rfft_fast_f32(&fft,fftOutput, ifftOutput, 1);
 5995              		.loc 16 73 19 view .LVU1415
 5996 0002 074C     		ldr	r4, .L431
 5997 0004 0023     		movs	r3, #0
 5998 0006 0748     		ldr	r0, .L431+4
 5999 0008 2246     		mov	r2, r4
 6000 000a 0749     		ldr	r1, .L431+8
 6001 000c FFF7FEFF 		bl	arm_rfft_fast_f32
 6002              	.LVL443:
  74:ifft.cpp      **** }
 6003              		.loc 16 74 2 is_stmt 1 view .LVU1416
  74:ifft.cpp      **** }
 6004              		.loc 16 74 19 is_stmt 0 view .LVU1417
 6005 0010 2146     		mov	r1, r4
 6006 0012 0123     		movs	r3, #1
 6007 0014 054A     		ldr	r2, .L431+12
 6008 0016 0348     		ldr	r0, .L431+4
  75:ifft.cpp      **** 
 6009              		.loc 16 75 1 view .LVU1418
 6010 0018 BDE81040 		pop	{r4, lr}
 6011              		.cfi_restore 14
 6012              		.cfi_restore 4
 6013              		.cfi_def_cfa_offset 0
  74:ifft.cpp      **** }
 6014              		.loc 16 74 19 view .LVU1419
 6015 001c FFF7FEBF 		b	arm_rfft_fast_f32
 6016              	.LVL444:
 6017              	.L432:
 6018              		.align	2
 6019              	.L431:
 6020 0020 00000000 		.word	_ZL9fftOutput
 6021 0024 00000000 		.word	.LANCHOR6
 6022 0028 00000000 		.word	_ZL8fftInput
 6023 002c 00000000 		.word	_ZL10ifftOutput
 6024              		.cfi_endproc
 6025              	.LFE4859:
 6027              		.section	.text._Z7Processf,"ax",%progbits
 6028              		.align	1
 6029              		.p2align 2,,3
 6030              		.global	_Z7Processf
 6031              		.syntax unified
ARM GAS  /var/folders/hl/qgbwny5j0fd895c2c41bk3tw0000gp/T//cceIFtrC.s 			page 173


 6032              		.thumb
 6033              		.thumb_func
 6034              		.fpu fpv5-d16
 6036              	_Z7Processf:
 6037              	.LVL445:
 6038              	.LFB4860:
  78:ifft.cpp      **** 	if (fft_buf_index < SAMPLE_BUFFER_LENGTH) 
 6039              		.loc 16 78 1 is_stmt 1 view -0
 6040              		.cfi_startproc
 6041              		@ args = 0, pretend = 0, frame = 0
 6042              		@ frame_needed = 0, uses_anonymous_args = 0
 6043              		@ link register save eliminated.
  79:ifft.cpp      **** 	{
 6044              		.loc 16 79 2 view .LVU1421
  79:ifft.cpp      **** 	{
 6045              		.loc 16 79 20 is_stmt 0 view .LVU1422
 6046 0000 0E4A     		ldr	r2, .L440
 6047 0002 1368     		ldr	r3, [r2]
  79:ifft.cpp      **** 	{
 6048              		.loc 16 79 2 view .LVU1423
 6049 0004 B3F5806F 		cmp	r3, #1024
 6050 0008 06DA     		bge	.L434
  81:ifft.cpp      **** 	}
 6051              		.loc 16 81 3 is_stmt 1 view .LVU1424
  81:ifft.cpp      **** 	}
 6052              		.loc 16 81 29 is_stmt 0 view .LVU1425
 6053 000a 0D49     		ldr	r1, .L440+4
  81:ifft.cpp      **** 	}
 6054              		.loc 16 81 25 view .LVU1426
 6055 000c 581C     		adds	r0, r3, #1
  81:ifft.cpp      **** 	}
 6056              		.loc 16 81 29 view .LVU1427
 6057 000e 01EB8303 		add	r3, r1, r3, lsl #2
  81:ifft.cpp      **** 	}
 6058              		.loc 16 81 25 view .LVU1428
 6059 0012 1060     		str	r0, [r2]
  81:ifft.cpp      **** 	}
 6060              		.loc 16 81 29 view .LVU1429
 6061 0014 83ED000A 		vstr.32	s0, [r3]
 6062              	.L434:
  84:ifft.cpp      **** 	{
 6063              		.loc 16 84 2 is_stmt 1 view .LVU1430
  84:ifft.cpp      **** 	{
 6064              		.loc 16 84 20 is_stmt 0 view .LVU1431
 6065 0018 0A4A     		ldr	r2, .L440+8
 6066 001a 1368     		ldr	r3, [r2]
  84:ifft.cpp      **** 	{
 6067              		.loc 16 84 2 view .LVU1432
 6068 001c B3F5806F 		cmp	r3, #1024
 6069 0020 0BDA     		bge	.L437
  86:ifft.cpp      **** 	}
 6070              		.loc 16 86 3 is_stmt 1 view .LVU1433
  86:ifft.cpp      **** 	}
 6071              		.loc 16 86 39 is_stmt 0 view .LVU1434
 6072 0022 0949     		ldr	r1, .L440+12
  86:ifft.cpp      **** 	}
 6073              		.loc 16 86 10 view .LVU1435
ARM GAS  /var/folders/hl/qgbwny5j0fd895c2c41bk3tw0000gp/T//cceIFtrC.s 			page 174


 6074 0024 0948     		ldr	r0, .L440+16
  78:ifft.cpp      **** 	if (fft_buf_index < SAMPLE_BUFFER_LENGTH) 
 6075              		.loc 16 78 1 view .LVU1436
 6076 0026 10B4     		push	{r4}
 6077              		.cfi_def_cfa_offset 4
 6078              		.cfi_offset 4, -4
  86:ifft.cpp      **** 	}
 6079              		.loc 16 86 37 view .LVU1437
 6080 0028 5C1C     		adds	r4, r3, #1
  86:ifft.cpp      **** 	}
 6081              		.loc 16 86 39 view .LVU1438
 6082 002a 01EB8303 		add	r3, r1, r3, lsl #2
  86:ifft.cpp      **** 	}
 6083              		.loc 16 86 10 view .LVU1439
 6084 002e 1B68     		ldr	r3, [r3]	@ float
  86:ifft.cpp      **** 	}
 6085              		.loc 16 86 37 view .LVU1440
 6086 0030 1460     		str	r4, [r2]
  86:ifft.cpp      **** 	}
 6087              		.loc 16 86 10 view .LVU1441
 6088 0032 0360     		str	r3, [r0]	@ float
  88:ifft.cpp      **** 
 6089              		.loc 16 88 1 view .LVU1442
 6090 0034 5DF8044B 		ldr	r4, [sp], #4
 6091              		.cfi_restore 4
 6092              		.cfi_def_cfa_offset 0
 6093 0038 7047     		bx	lr
 6094              	.L437:
 6095 003a 7047     		bx	lr
 6096              	.L441:
 6097              		.align	2
 6098              	.L440:
 6099 003c 00000000 		.word	.LANCHOR2
 6100 0040 00000000 		.word	_ZL8fftInput
 6101 0044 00000000 		.word	.LANCHOR3
 6102 0048 00000000 		.word	_ZL10ifftOutput
 6103 004c 00000000 		.word	.LANCHOR4
 6104              		.cfi_endproc
 6105              	.LFE4860:
 6107              		.section	.text._Z7Buffersv,"ax",%progbits
 6108              		.align	1
 6109              		.p2align 2,,3
 6110              		.global	_Z7Buffersv
 6111              		.syntax unified
 6112              		.thumb
 6113              		.thumb_func
 6114              		.fpu fpv5-d16
 6116              	_Z7Buffersv:
 6117              	.LFB4861:
  91:ifft.cpp      **** 	if (fft_buf_index >= SAMPLE_BUFFER_LENGTH) 
 6118              		.loc 16 91 1 is_stmt 1 view -0
 6119              		.cfi_startproc
 6120              		@ args = 0, pretend = 0, frame = 0
 6121              		@ frame_needed = 0, uses_anonymous_args = 0
  92:ifft.cpp      **** 	{ 
 6122              		.loc 16 92 2 view .LVU1444
  91:ifft.cpp      **** 	if (fft_buf_index >= SAMPLE_BUFFER_LENGTH) 
ARM GAS  /var/folders/hl/qgbwny5j0fd895c2c41bk3tw0000gp/T//cceIFtrC.s 			page 175


 6123              		.loc 16 91 1 is_stmt 0 view .LVU1445
 6124 0000 10B5     		push	{r4, lr}
 6125              		.cfi_def_cfa_offset 8
 6126              		.cfi_offset 4, -8
 6127              		.cfi_offset 14, -4
  92:ifft.cpp      **** 	{ 
 6128              		.loc 16 92 20 view .LVU1446
 6129 0002 0D4C     		ldr	r4, .L447
  92:ifft.cpp      **** 	{ 
 6130              		.loc 16 92 2 view .LVU1447
 6131 0004 2368     		ldr	r3, [r4]
 6132 0006 B3F5806F 		cmp	r3, #1024
 6133 000a 07DA     		bge	.L446
 6134              	.L443:
  98:ifft.cpp      **** 	{ 
 6135              		.loc 16 98 2 is_stmt 1 view .LVU1448
  98:ifft.cpp      **** 	{ 
 6136              		.loc 16 98 21 is_stmt 0 view .LVU1449
 6137 000c 0B4B     		ldr	r3, .L447+4
  98:ifft.cpp      **** 	{ 
 6138              		.loc 16 98 2 view .LVU1450
 6139 000e 1A68     		ldr	r2, [r3]
 6140 0010 B2F5806F 		cmp	r2, #1024
 6141 0014 01DB     		blt	.L442
 6142              		.loc 16 100 3 is_stmt 1 view .LVU1451
 6143              		.loc 16 100 18 is_stmt 0 view .LVU1452
 6144 0016 0022     		movs	r2, #0
 6145 0018 1A60     		str	r2, [r3]
 6146              	.L442:
 101:ifft.cpp      **** 	}
 102:ifft.cpp      **** }
 6147              		.loc 16 102 1 view .LVU1453
 6148 001a 10BD     		pop	{r4, pc}
 6149              	.L446:
  94:ifft.cpp      **** 		fft_proc(); 
 6150              		.loc 16 94 3 is_stmt 1 view .LVU1454
  94:ifft.cpp      **** 		fft_proc(); 
 6151              		.loc 16 94 17 is_stmt 0 view .LVU1455
 6152 001c 0023     		movs	r3, #0
 6153              	.LBB1552:
 6154              	.LBB1553:
  73:ifft.cpp      **** 	arm_rfft_fast_f32(&fft,fftOutput, ifftOutput, 1);
 6155              		.loc 16 73 19 view .LVU1456
 6156 001e 084A     		ldr	r2, .L447+8
 6157 0020 0849     		ldr	r1, .L447+12
 6158 0022 0948     		ldr	r0, .L447+16
 6159              	.LBE1553:
 6160              	.LBE1552:
  94:ifft.cpp      **** 		fft_proc(); 
 6161              		.loc 16 94 17 view .LVU1457
 6162 0024 2360     		str	r3, [r4]
  95:ifft.cpp      **** 	}
 6163              		.loc 16 95 3 is_stmt 1 view .LVU1458
 6164              	.LBB1555:
 6165              	.LBI1552:
  71:ifft.cpp      **** {
 6166              		.loc 16 71 6 view .LVU1459
ARM GAS  /var/folders/hl/qgbwny5j0fd895c2c41bk3tw0000gp/T//cceIFtrC.s 			page 176


 6167              	.LBB1554:
  73:ifft.cpp      **** 	arm_rfft_fast_f32(&fft,fftOutput, ifftOutput, 1);
 6168              		.loc 16 73 2 view .LVU1460
  73:ifft.cpp      **** 	arm_rfft_fast_f32(&fft,fftOutput, ifftOutput, 1);
 6169              		.loc 16 73 19 is_stmt 0 view .LVU1461
 6170 0026 FFF7FEFF 		bl	arm_rfft_fast_f32
 6171              	.LVL446:
  74:ifft.cpp      **** }
 6172              		.loc 16 74 2 is_stmt 1 view .LVU1462
  74:ifft.cpp      **** }
 6173              		.loc 16 74 19 is_stmt 0 view .LVU1463
 6174 002a 0123     		movs	r3, #1
 6175 002c 074A     		ldr	r2, .L447+20
 6176 002e 0449     		ldr	r1, .L447+8
 6177 0030 0548     		ldr	r0, .L447+16
 6178 0032 FFF7FEFF 		bl	arm_rfft_fast_f32
 6179              	.LVL447:
  75:ifft.cpp      **** 
 6180              		.loc 16 75 1 view .LVU1464
 6181 0036 E9E7     		b	.L443
 6182              	.L448:
 6183              		.align	2
 6184              	.L447:
 6185 0038 00000000 		.word	.LANCHOR2
 6186 003c 00000000 		.word	.LANCHOR3
 6187 0040 00000000 		.word	_ZL9fftOutput
 6188 0044 00000000 		.word	_ZL8fftInput
 6189 0048 00000000 		.word	.LANCHOR6
 6190 004c 00000000 		.word	_ZL10ifftOutput
 6191              	.LBE1554:
 6192              	.LBE1555:
 6193              		.cfi_endproc
 6194              	.LFE4861:
 6196              		.section	.text.startup._GLOBAL__sub_I_hw,"ax",%progbits
 6197              		.align	1
 6198              		.p2align 2,,3
 6199              		.syntax unified
 6200              		.thumb
 6201              		.thumb_func
 6202              		.fpu fpv5-d16
 6204              	_GLOBAL__sub_I_hw:
 6205              	.LFB5462:
 6206              		.loc 16 102 1 is_stmt 1 view -0
 6207              		.cfi_startproc
 6208              		@ args = 0, pretend = 0, frame = 0
 6209              		@ frame_needed = 0, uses_anonymous_args = 0
 6210              	.LBB1609:
 6211              	.LBI1609:
 6212              		.loc 16 102 1 view .LVU1466
 6213              	.LVL448:
 6214              	.LBB1610:
 6215              	.LBB1611:
 6216              	.LBI1611:
  64:../../libDaisy//src/daisy_patch_sm.h ****         ~DaisyPatchSM() {}
 6217              		.loc 1 64 9 view .LVU1467
 6218              	.LBB1612:
 6219              	.LBB1613:
ARM GAS  /var/folders/hl/qgbwny5j0fd895c2c41bk3tw0000gp/T//cceIFtrC.s 			page 177


 6220              	.LBI1613:
  77:../../libDaisy//src/sys/system.h ****     ~System() {}
 6221              		.loc 7 77 5 view .LVU1468
  77:../../libDaisy//src/sys/system.h ****     ~System() {}
 6222              		.loc 7 77 5 is_stmt 0 view .LVU1469
 6223              	.LBE1613:
 6224              	.LBB1614:
 6225              	.LBI1614:
 6226              		.file 20 "../../libDaisy//src/per/qspi.h"
   1:../../libDaisy//src/per/qspi.h **** #ifndef DSY_QSPI
   2:../../libDaisy//src/per/qspi.h **** #define DSY_QSPI /**< Macro */
   3:../../libDaisy//src/per/qspi.h **** 
   4:../../libDaisy//src/per/qspi.h **** #ifndef UNIT_TEST // for unit tests, a dummy implementation
   5:../../libDaisy//src/per/qspi.h **** 
   6:../../libDaisy//src/per/qspi.h **** #include <cstdint>
   7:../../libDaisy//src/per/qspi.h **** #include "daisy_core.h" // Added for dsy_gpio_pin typedef
   8:../../libDaisy//src/per/qspi.h **** 
   9:../../libDaisy//src/per/qspi.h **** #define DSY_QSPI_TEXT       \
  10:../../libDaisy//src/per/qspi.h ****     __attribute__((section( \
  11:../../libDaisy//src/per/qspi.h ****         ".qspiflash_text"))) /**< used for reading memory in memory_mapped mode. */
  12:../../libDaisy//src/per/qspi.h **** #define DSY_QSPI_DATA       \
  13:../../libDaisy//src/per/qspi.h ****     __attribute__((section( \
  14:../../libDaisy//src/per/qspi.h ****         ".qspiflash_data"))) /**< used for reading memory in memory_mapped mode. */
  15:../../libDaisy//src/per/qspi.h **** #define DSY_QSPI_BSS        \
  16:../../libDaisy//src/per/qspi.h ****     __attribute__((section( \
  17:../../libDaisy//src/per/qspi.h ****         ".qspiflash_bss"))) /**< used for reading memory in memory_mapped mode. */
  18:../../libDaisy//src/per/qspi.h **** 
  19:../../libDaisy//src/per/qspi.h **** namespace daisy
  20:../../libDaisy//src/per/qspi.h **** {
  21:../../libDaisy//src/per/qspi.h **** /** @addtogroup serial
  22:../../libDaisy//src/per/qspi.h **** @{
  23:../../libDaisy//src/per/qspi.h **** */
  24:../../libDaisy//src/per/qspi.h **** 
  25:../../libDaisy//src/per/qspi.h **** /** 
  26:../../libDaisy//src/per/qspi.h ****  Driver for QSPI peripheral to interface with external flash memory. \n 
  27:../../libDaisy//src/per/qspi.h ****     Currently supported QSPI Devices: \n 
  28:../../libDaisy//src/per/qspi.h ****     * IS25LP080D
  29:../../libDaisy//src/per/qspi.h **** */
  30:../../libDaisy//src/per/qspi.h **** class QSPIHandle
  31:../../libDaisy//src/per/qspi.h **** {
  32:../../libDaisy//src/per/qspi.h ****   public:
  33:../../libDaisy//src/per/qspi.h ****     enum Result
  34:../../libDaisy//src/per/qspi.h ****     {
  35:../../libDaisy//src/per/qspi.h ****         OK = 0,
  36:../../libDaisy//src/per/qspi.h ****         ERR
  37:../../libDaisy//src/per/qspi.h ****     };
  38:../../libDaisy//src/per/qspi.h **** 
  39:../../libDaisy//src/per/qspi.h ****     /** Indicates the current status of the module. 
  40:../../libDaisy//src/per/qspi.h ****          *  Warnings are indicated by a leading W.
  41:../../libDaisy//src/per/qspi.h ****          *  Errors are indicated by a leading E and cause an immediate exit.
  42:../../libDaisy//src/per/qspi.h ****          * 
  43:../../libDaisy//src/per/qspi.h ****          *  \param GOOD - No errors have been reported.
  44:../../libDaisy//src/per/qspi.h ****          *  \param E_HAL_ERROR - HAL code did not return HAL_OK.
  45:../../libDaisy//src/per/qspi.h ****          *  \param E_SWITCHING_MODES - An error was encountered while switching QSPI peripheral mod
  46:../../libDaisy//src/per/qspi.h ****          *  \param E_INVALID_MODE - QSPI should not be written to while the program is executing fr
  47:../../libDaisy//src/per/qspi.h ****          */
  48:../../libDaisy//src/per/qspi.h ****     enum Status
ARM GAS  /var/folders/hl/qgbwny5j0fd895c2c41bk3tw0000gp/T//cceIFtrC.s 			page 178


  49:../../libDaisy//src/per/qspi.h ****     {
  50:../../libDaisy//src/per/qspi.h ****         GOOD = 0,
  51:../../libDaisy//src/per/qspi.h ****         E_HAL_ERROR,
  52:../../libDaisy//src/per/qspi.h ****         E_SWITCHING_MODES,
  53:../../libDaisy//src/per/qspi.h ****         E_INVALID_MODE,
  54:../../libDaisy//src/per/qspi.h ****     };
  55:../../libDaisy//src/per/qspi.h **** 
  56:../../libDaisy//src/per/qspi.h ****     /** Configuration structure for interfacing with QSPI Driver */
  57:../../libDaisy//src/per/qspi.h ****     struct Config
  58:../../libDaisy//src/per/qspi.h ****     {
  59:../../libDaisy//src/per/qspi.h ****         /** Flash Devices supported. (Both of these are more-or-less the same, just different sizes
  60:../../libDaisy//src/per/qspi.h ****         enum Device
  61:../../libDaisy//src/per/qspi.h ****         {
  62:../../libDaisy//src/per/qspi.h ****             IS25LP080D,  /**< & */
  63:../../libDaisy//src/per/qspi.h ****             IS25LP064A,  /**< & */
  64:../../libDaisy//src/per/qspi.h ****             DEVICE_LAST, /**< & */
  65:../../libDaisy//src/per/qspi.h ****         };
  66:../../libDaisy//src/per/qspi.h **** 
  67:../../libDaisy//src/per/qspi.h ****         /** 
  68:../../libDaisy//src/per/qspi.h ****         Modes of operation.
  69:../../libDaisy//src/per/qspi.h ****         Memory Mapped mode: QSPI configured so that the QSPI can be
  70:../../libDaisy//src/per/qspi.h ****         read from starting address 0x90000000. Writing is not
  71:../../libDaisy//src/per/qspi.h ****         possible in this mode. \n 
  72:../../libDaisy//src/per/qspi.h ****         Indirect Polling mode: Device driver enabled. 
  73:../../libDaisy//src/per/qspi.h ****         */
  74:../../libDaisy//src/per/qspi.h ****         enum Mode
  75:../../libDaisy//src/per/qspi.h ****         {
  76:../../libDaisy//src/per/qspi.h ****             MEMORY_MAPPED,    /**< & */
  77:../../libDaisy//src/per/qspi.h ****             INDIRECT_POLLING, /**< & */
  78:../../libDaisy//src/per/qspi.h ****             MODE_LAST,
  79:../../libDaisy//src/per/qspi.h ****         };
  80:../../libDaisy//src/per/qspi.h **** 
  81:../../libDaisy//src/per/qspi.h ****         //SCK,  CE# (active low)
  82:../../libDaisy//src/per/qspi.h ****         struct
  83:../../libDaisy//src/per/qspi.h ****         {
  84:../../libDaisy//src/per/qspi.h ****             dsy_gpio_pin io0; /**< & */
  85:../../libDaisy//src/per/qspi.h ****             dsy_gpio_pin io1; /**< & */
  86:../../libDaisy//src/per/qspi.h ****             dsy_gpio_pin io2; /**< & */
  87:../../libDaisy//src/per/qspi.h ****             dsy_gpio_pin io3; /**< & */
  88:../../libDaisy//src/per/qspi.h ****             dsy_gpio_pin clk; /**< & */
  89:../../libDaisy//src/per/qspi.h ****             dsy_gpio_pin ncs; /**< & */
  90:../../libDaisy//src/per/qspi.h ****         } pin_config;
  91:../../libDaisy//src/per/qspi.h **** 
  92:../../libDaisy//src/per/qspi.h ****         Device device;
  93:../../libDaisy//src/per/qspi.h ****         Mode   mode;
  94:../../libDaisy//src/per/qspi.h ****     };
  95:../../libDaisy//src/per/qspi.h **** 
  96:../../libDaisy//src/per/qspi.h ****     /** 
  97:../../libDaisy//src/per/qspi.h ****         Initializes QSPI peripheral, and Resets, and prepares memory for access.
  98:../../libDaisy//src/per/qspi.h ****         \param config should be populated with the mode, device and pin_config before calling this 
  99:../../libDaisy//src/per/qspi.h ****         \return Result::OK or Result::ERR
 100:../../libDaisy//src/per/qspi.h ****         */
 101:../../libDaisy//src/per/qspi.h ****     Result Init(const Config& config);
 102:../../libDaisy//src/per/qspi.h **** 
 103:../../libDaisy//src/per/qspi.h ****     /** Returns the current config. */
 104:../../libDaisy//src/per/qspi.h ****     const Config& GetConfig() const;
 105:../../libDaisy//src/per/qspi.h **** 
ARM GAS  /var/folders/hl/qgbwny5j0fd895c2c41bk3tw0000gp/T//cceIFtrC.s 			page 179


 106:../../libDaisy//src/per/qspi.h ****     // Couldn't this just be called before anything else in init? That
 107:../../libDaisy//src/per/qspi.h ****     // would make manually calling it unnecessary.
 108:../../libDaisy//src/per/qspi.h ****     /** 
 109:../../libDaisy//src/per/qspi.h ****         Deinitializes the peripheral
 110:../../libDaisy//src/per/qspi.h ****         This should be called before reinitializing QSPI in a different mode.
 111:../../libDaisy//src/per/qspi.h ****         \return Result::OK or Result::ERR
 112:../../libDaisy//src/per/qspi.h ****         */
 113:../../libDaisy//src/per/qspi.h ****     Result DeInit();
 114:../../libDaisy//src/per/qspi.h **** 
 115:../../libDaisy//src/per/qspi.h ****     /** 
 116:../../libDaisy//src/per/qspi.h ****         Writes a single page to to the specified address on the QSPI chip.
 117:../../libDaisy//src/per/qspi.h ****         For IS25LP*, page size is 256 bytes.
 118:../../libDaisy//src/per/qspi.h ****         \param address Address to write to
 119:../../libDaisy//src/per/qspi.h ****         \param size Buffer size
 120:../../libDaisy//src/per/qspi.h ****         \param buffer Buffer to write
 121:../../libDaisy//src/per/qspi.h ****         \return Result::OK or Result::ERR
 122:../../libDaisy//src/per/qspi.h ****         */
 123:../../libDaisy//src/per/qspi.h ****     Result WritePage(uint32_t address, uint32_t size, uint8_t* buffer);
 124:../../libDaisy//src/per/qspi.h **** 
 125:../../libDaisy//src/per/qspi.h ****     /** 
 126:../../libDaisy//src/per/qspi.h ****         Writes data in buffer to to the QSPI. Starting at address to address+size 
 127:../../libDaisy//src/per/qspi.h ****         \param address Address to write to
 128:../../libDaisy//src/per/qspi.h ****         \param size Buffer size
 129:../../libDaisy//src/per/qspi.h ****         \param buffer Buffer to write
 130:../../libDaisy//src/per/qspi.h ****         \return Result::OK or Result::ERR
 131:../../libDaisy//src/per/qspi.h ****         */
 132:../../libDaisy//src/per/qspi.h ****     Result Write(uint32_t address, uint32_t size, uint8_t* buffer);
 133:../../libDaisy//src/per/qspi.h **** 
 134:../../libDaisy//src/per/qspi.h ****     /** 
 135:../../libDaisy//src/per/qspi.h ****         Erases the area specified on the chip.
 136:../../libDaisy//src/per/qspi.h ****         Erasures will happen by 4K, 32K or 64K increments.
 137:../../libDaisy//src/per/qspi.h ****         Smallest erase possible is 4kB at a time. (on IS25LP*)
 138:../../libDaisy//src/per/qspi.h ****         \param start_addr Address to begin erasing from
 139:../../libDaisy//src/per/qspi.h ****         \param end_addr  Address to stop erasing at
 140:../../libDaisy//src/per/qspi.h ****         \return Result::OK or Result::ERR
 141:../../libDaisy//src/per/qspi.h ****         */
 142:../../libDaisy//src/per/qspi.h ****     Result Erase(uint32_t start_addr, uint32_t end_addr);
 143:../../libDaisy//src/per/qspi.h **** 
 144:../../libDaisy//src/per/qspi.h ****     /**  
 145:../../libDaisy//src/per/qspi.h ****          Erases a single sector of the chip.  
 146:../../libDaisy//src/per/qspi.h ****         TODO: Document the size of this function. 
 147:../../libDaisy//src/per/qspi.h ****         \param address Address of sector to erase
 148:../../libDaisy//src/per/qspi.h ****         \return Result::OK or Result::ERR
 149:../../libDaisy//src/per/qspi.h ****         */
 150:../../libDaisy//src/per/qspi.h ****     Result EraseSector(uint32_t address);
 151:../../libDaisy//src/per/qspi.h **** 
 152:../../libDaisy//src/per/qspi.h ****     /** Returns the current class status. Useful for debugging.
 153:../../libDaisy//src/per/qspi.h ****      *  \returns Status
 154:../../libDaisy//src/per/qspi.h ****      */
 155:../../libDaisy//src/per/qspi.h ****     Status GetStatus();
 156:../../libDaisy//src/per/qspi.h **** 
 157:../../libDaisy//src/per/qspi.h ****     /** Returns a pointer to the actual memory used 
 158:../../libDaisy//src/per/qspi.h ****      *  The memory at this address is read-only
 159:../../libDaisy//src/per/qspi.h ****      *  to write to it use the Write function.
 160:../../libDaisy//src/per/qspi.h ****      * 
 161:../../libDaisy//src/per/qspi.h ****      *  \param offset returns the pointer starting this 
 162:../../libDaisy//src/per/qspi.h ****      *                many bytes into the memory
ARM GAS  /var/folders/hl/qgbwny5j0fd895c2c41bk3tw0000gp/T//cceIFtrC.s 			page 180


 163:../../libDaisy//src/per/qspi.h ****     */
 164:../../libDaisy//src/per/qspi.h ****     void* GetData(uint32_t offset = 0);
 165:../../libDaisy//src/per/qspi.h **** 
 166:../../libDaisy//src/per/qspi.h ****     QSPIHandle() : pimpl_(nullptr) {}
 6227              		.loc 20 166 5 is_stmt 1 view .LVU1470
 6228              	.LBE1614:
 6229              	.LBE1612:
 6230              	.LBE1611:
 6231              	.LBE1610:
 6232              	.LBE1609:
 6233              		.loc 16 102 1 is_stmt 0 view .LVU1471
 6234 0000 10B5     		push	{r4, lr}
 6235              		.cfi_def_cfa_offset 8
 6236              		.cfi_offset 4, -8
 6237              		.cfi_offset 14, -4
 6238              	.LBB1672:
 6239              	.LBB1669:
 6240              	.LBB1640:
 6241              	.LBB1637:
 6242              	.LBB1617:
 6243              	.LBB1615:
 6244              	.LBB1616:
 6245              		.loc 20 166 34 view .LVU1472
 6246 0002 0A48     		ldr	r0, .L451
 6247 0004 0024     		movs	r4, #0
 6248              	.LBE1616:
 6249              	.LBE1615:
 6250              	.LBE1617:
 6251              	.LBE1637:
 6252              	.LBE1640:
  11:ifft.cpp      **** Patch_Bay		pb;
 6253              		.loc 16 11 15 view .LVU1473
 6254 0006 0A4A     		ldr	r2, .L451+4
 6255 0008 0A49     		ldr	r1, .L451+8
 6256              	.LBB1641:
 6257              	.LBB1638:
 6258              	.LBB1618:
 6259              	.LBB1619:
 6260              	.LBB1620:
 6261              	.LBB1621:
 6262              	.LBB1622:
 6263              		.file 21 "../../libDaisy//src/per/i2c.h"
   1:../../libDaisy//src/per/i2c.h **** #pragma once
   2:../../libDaisy//src/per/i2c.h **** #include "daisy_core.h"
   3:../../libDaisy//src/per/i2c.h **** 
   4:../../libDaisy//src/per/i2c.h **** namespace daisy
   5:../../libDaisy//src/per/i2c.h **** {
   6:../../libDaisy//src/per/i2c.h **** /** A handle for interacting with an I2C peripheral. This is a dumb
   7:../../libDaisy//src/per/i2c.h ****  *  gateway that internally points to one of the four I2C peripherals
   8:../../libDaisy//src/per/i2c.h ****  *  after it was initialised. It can then be copied and passed around.
   9:../../libDaisy//src/per/i2c.h ****  *  Use an I2CHandle like this:
  10:../../libDaisy//src/per/i2c.h ****  *  
  11:../../libDaisy//src/per/i2c.h ****  *      // setup the configuration
  12:../../libDaisy//src/per/i2c.h ****  *      I2CHandle::Config i2c_conf;
  13:../../libDaisy//src/per/i2c.h ****  *      i2c_conf.periph = I2CHandle::Config::Peripheral::I2C_1;
  14:../../libDaisy//src/per/i2c.h ****  *      i2c_conf.speed  = I2CHandle::Config::Speed::I2C_400KHZ;
  15:../../libDaisy//src/per/i2c.h ****  *      i2c_conf.mode   = I2CHandle::Config::Mode::Master;
ARM GAS  /var/folders/hl/qgbwny5j0fd895c2c41bk3tw0000gp/T//cceIFtrC.s 			page 181


  16:../../libDaisy//src/per/i2c.h ****  *      i2c_conf.pin_config.scl  = {DSY_GPIOB, 8};
  17:../../libDaisy//src/per/i2c.h ****  *      i2c_conf.pin_config.sda  = {DSY_GPIOB, 9};
  18:../../libDaisy//src/per/i2c.h ****  *      // initialise the peripheral
  19:../../libDaisy//src/per/i2c.h ****  *      I2CHandle i2c;
  20:../../libDaisy//src/per/i2c.h ****  *      i2c.Init(i2c_conf);
  21:../../libDaisy//src/per/i2c.h ****  *      // now i2c points to the corresponding peripheral and can be used.
  22:../../libDaisy//src/per/i2c.h ****  *      i2c.TransmitBlocking( ... );
  23:../../libDaisy//src/per/i2c.h ****  */
  24:../../libDaisy//src/per/i2c.h **** class I2CHandle
  25:../../libDaisy//src/per/i2c.h **** {
  26:../../libDaisy//src/per/i2c.h ****   public:
  27:../../libDaisy//src/per/i2c.h ****     /** Contains settings for initialising an I2C interface. */
  28:../../libDaisy//src/per/i2c.h ****     struct Config
  29:../../libDaisy//src/per/i2c.h ****     {
  30:../../libDaisy//src/per/i2c.h ****         /** Specifies whether the interface will operate in master or slave mode. */
  31:../../libDaisy//src/per/i2c.h ****         enum class Mode
  32:../../libDaisy//src/per/i2c.h ****         {
  33:../../libDaisy//src/per/i2c.h ****             I2C_MASTER,
  34:../../libDaisy//src/per/i2c.h ****             I2C_SLAVE,
  35:../../libDaisy//src/per/i2c.h ****         };
  36:../../libDaisy//src/per/i2c.h **** 
  37:../../libDaisy//src/per/i2c.h ****         /** Specifices the internal peripheral to use (these are mapped to different pins on the ha
  38:../../libDaisy//src/per/i2c.h ****         enum class Peripheral
  39:../../libDaisy//src/per/i2c.h ****         {
  40:../../libDaisy//src/per/i2c.h ****             I2C_1 = 0, /**< & */
  41:../../libDaisy//src/per/i2c.h ****             I2C_2,     /**< & */
  42:../../libDaisy//src/per/i2c.h ****             I2C_3,     /**< & */
  43:../../libDaisy//src/per/i2c.h ****             I2C_4,     /**< & */
  44:../../libDaisy//src/per/i2c.h ****         };
  45:../../libDaisy//src/per/i2c.h **** 
  46:../../libDaisy//src/per/i2c.h ****         /** Rate at which the clock/data will be sent/received. The device being used will have max
  47:../../libDaisy//src/per/i2c.h ****          *  1MHZ Mode is currently 886kHz
  48:../../libDaisy//src/per/i2c.h ****          */
  49:../../libDaisy//src/per/i2c.h ****         enum class Speed
  50:../../libDaisy//src/per/i2c.h ****         {
  51:../../libDaisy//src/per/i2c.h ****             I2C_100KHZ, /**< & */
  52:../../libDaisy//src/per/i2c.h ****             I2C_400KHZ, /**< & */
  53:../../libDaisy//src/per/i2c.h ****             I2C_1MHZ,   /**< & */
  54:../../libDaisy//src/per/i2c.h ****         };
  55:../../libDaisy//src/per/i2c.h **** 
  56:../../libDaisy//src/per/i2c.h ****         Peripheral periph; /**< & */
  57:../../libDaisy//src/per/i2c.h ****         struct
  58:../../libDaisy//src/per/i2c.h ****         {
  59:../../libDaisy//src/per/i2c.h ****             dsy_gpio_pin scl; /**< & */
  60:../../libDaisy//src/per/i2c.h ****             dsy_gpio_pin sda; /**< & */
  61:../../libDaisy//src/per/i2c.h ****         } pin_config;         /**< & */
  62:../../libDaisy//src/per/i2c.h **** 
  63:../../libDaisy//src/per/i2c.h ****         Speed speed; /**< & */
  64:../../libDaisy//src/per/i2c.h ****         Mode  mode;  /**< & */
  65:../../libDaisy//src/per/i2c.h ****         // 0x10 is chosen as a default to avoid conflicts with reserved addresses
  66:../../libDaisy//src/per/i2c.h ****         uint8_t address = 0x10; /**< & */
  67:../../libDaisy//src/per/i2c.h ****     };
  68:../../libDaisy//src/per/i2c.h **** 
  69:../../libDaisy//src/per/i2c.h ****     /** Return values for I2C functions. */
  70:../../libDaisy//src/per/i2c.h ****     enum class Result
  71:../../libDaisy//src/per/i2c.h ****     {
  72:../../libDaisy//src/per/i2c.h ****         OK, /**< & */
ARM GAS  /var/folders/hl/qgbwny5j0fd895c2c41bk3tw0000gp/T//cceIFtrC.s 			page 182


  73:../../libDaisy//src/per/i2c.h ****         ERR /**< & */
  74:../../libDaisy//src/per/i2c.h ****     };
  75:../../libDaisy//src/per/i2c.h **** 
  76:../../libDaisy//src/per/i2c.h ****     enum class Direction
  77:../../libDaisy//src/per/i2c.h ****     {
  78:../../libDaisy//src/per/i2c.h ****         TRANSMIT, /**< & */
  79:../../libDaisy//src/per/i2c.h ****         RECEIVE,  /**< & */
  80:../../libDaisy//src/per/i2c.h ****     };
  81:../../libDaisy//src/per/i2c.h **** 
  82:../../libDaisy//src/per/i2c.h ****     I2CHandle() : pimpl_(nullptr) {}
 6264              		.loc 21 82 33 view .LVU1474
 6265 000a 0462     		str	r4, [r0, #32]
 6266              	.LBE1622:
 6267              	.LBE1621:
 6268              	.LBE1620:
 6269              	.LBE1619:
 6270              	.LBE1618:
 6271              	.LBB1625:
 6272              	.LBB1626:
 6273              	.LBB1627:
 6274              		.file 22 "../../libDaisy//src/per/dac.h"
   1:../../libDaisy//src/per/dac.h **** #pragma once
   2:../../libDaisy//src/per/dac.h **** #ifndef DSY_DAC_H
   3:../../libDaisy//src/per/dac.h **** #define DSY_DAC_H
   4:../../libDaisy//src/per/dac.h **** 
   5:../../libDaisy//src/per/dac.h **** #include "daisy_core.h"
   6:../../libDaisy//src/per/dac.h **** 
   7:../../libDaisy//src/per/dac.h **** namespace daisy
   8:../../libDaisy//src/per/dac.h **** {
   9:../../libDaisy//src/per/dac.h **** /** @brief DAC handle for Built-in DAC Peripheral 
  10:../../libDaisy//src/per/dac.h ****  *  @ingroup per_analog
  11:../../libDaisy//src/per/dac.h ****  ** 
  12:../../libDaisy//src/per/dac.h ****  ** For now only Normal Mode is supported,
  13:../../libDaisy//src/per/dac.h ****  ** Sample and hold mode provides reduced power consumption, but requires a bit more setup.
  14:../../libDaisy//src/per/dac.h ****  **
  15:../../libDaisy//src/per/dac.h ****  ** For now connecting the DAC through other internal peripherals is also not supported.
  16:../../libDaisy//src/per/dac.h ****  **
  17:../../libDaisy//src/per/dac.h ****  ** Since the DAC channels have dedicated pins we don't need to pass in a pin config like with
  18:../../libDaisy//src/per/dac.h ****  ** other modules. However, it is still important to not try to use the DAC pins for anything else.
  19:../../libDaisy//src/per/dac.h ****  ** DAC Channel 1 is on PA4, and DAC Channel 2 is on PA5
  20:../../libDaisy//src/per/dac.h ****  ***/
  21:../../libDaisy//src/per/dac.h **** class DacHandle
  22:../../libDaisy//src/per/dac.h **** {
  23:../../libDaisy//src/per/dac.h ****   public:
  24:../../libDaisy//src/per/dac.h ****     /** Return Values for the DacHandle class */
  25:../../libDaisy//src/per/dac.h ****     enum class Result
  26:../../libDaisy//src/per/dac.h ****     {
  27:../../libDaisy//src/per/dac.h ****         OK,
  28:../../libDaisy//src/per/dac.h ****         ERR,
  29:../../libDaisy//src/per/dac.h ****     };
  30:../../libDaisy//src/per/dac.h **** 
  31:../../libDaisy//src/per/dac.h ****     /** Selects which channel(s) will be configured for use. */
  32:../../libDaisy//src/per/dac.h ****     enum class Channel
  33:../../libDaisy//src/per/dac.h ****     {
  34:../../libDaisy//src/per/dac.h ****         ONE,
  35:../../libDaisy//src/per/dac.h ****         TWO,
  36:../../libDaisy//src/per/dac.h ****         BOTH,
ARM GAS  /var/folders/hl/qgbwny5j0fd895c2c41bk3tw0000gp/T//cceIFtrC.s 			page 183


  37:../../libDaisy//src/per/dac.h ****     };
  38:../../libDaisy//src/per/dac.h **** 
  39:../../libDaisy//src/per/dac.h ****     /** Sets the Mode for the DAC channels.
  40:../../libDaisy//src/per/dac.h ****      **
  41:../../libDaisy//src/per/dac.h ****      ** Polling mode uses the blocking mode to transmit a single value at a time.
  42:../../libDaisy//src/per/dac.h ****      **
  43:../../libDaisy//src/per/dac.h ****      ** DMA mode uses a buffer, and periodically transmits it triggering a 
  44:../../libDaisy//src/per/dac.h ****      ** callback to fill the buffer when it is ready for more samples.
  45:../../libDaisy//src/per/dac.h ****      ***/
  46:../../libDaisy//src/per/dac.h ****     enum class Mode
  47:../../libDaisy//src/per/dac.h ****     {
  48:../../libDaisy//src/per/dac.h ****         POLLING,
  49:../../libDaisy//src/per/dac.h ****         DMA,
  50:../../libDaisy//src/per/dac.h ****     };
  51:../../libDaisy//src/per/dac.h **** 
  52:../../libDaisy//src/per/dac.h ****     /** Sets the number of bits per sample transmitted out of the DAC.
  53:../../libDaisy//src/per/dac.h ****      ** The output range will be: 0V - VDDA
  54:../../libDaisy//src/per/dac.h ****      ** The resolution will be roughly: bitdepth / (VDDA - 0V) 
  55:../../libDaisy//src/per/dac.h ****      ***/
  56:../../libDaisy//src/per/dac.h ****     enum class BitDepth
  57:../../libDaisy//src/per/dac.h ****     {
  58:../../libDaisy//src/per/dac.h ****         BITS_8,
  59:../../libDaisy//src/per/dac.h ****         BITS_12
  60:../../libDaisy//src/per/dac.h ****     };
  61:../../libDaisy//src/per/dac.h **** 
  62:../../libDaisy//src/per/dac.h ****     /** Sets whether the DAC output is buffered for higher drive ability. */
  63:../../libDaisy//src/per/dac.h ****     enum class BufferState
  64:../../libDaisy//src/per/dac.h ****     {
  65:../../libDaisy//src/per/dac.h ****         ENABLED,
  66:../../libDaisy//src/per/dac.h ****         DISABLED,
  67:../../libDaisy//src/per/dac.h ****     };
  68:../../libDaisy//src/per/dac.h **** 
  69:../../libDaisy//src/per/dac.h ****     /** Configuration structure for initializing the DAC structure. */
  70:../../libDaisy//src/per/dac.h ****     struct Config
  71:../../libDaisy//src/per/dac.h ****     {
  72:../../libDaisy//src/per/dac.h ****         /** Target Samplerate in Hz used to configure the internal 
  73:../../libDaisy//src/per/dac.h ****          ** timebase for DMA mode. Does nothing in POLLING mode.
  74:../../libDaisy//src/per/dac.h ****          ** If the value is 0 at Init time this will default to 48000Hz 
  75:../../libDaisy//src/per/dac.h ****          ** otherwise the driver will attempt meet the target.*/
  76:../../libDaisy//src/per/dac.h ****         uint32_t target_samplerate;
  77:../../libDaisy//src/per/dac.h **** 
  78:../../libDaisy//src/per/dac.h ****         Channel     chn;
  79:../../libDaisy//src/per/dac.h ****         Mode        mode;
  80:../../libDaisy//src/per/dac.h ****         BitDepth    bitdepth;
  81:../../libDaisy//src/per/dac.h ****         BufferState buff_state;
  82:../../libDaisy//src/per/dac.h ****     };
  83:../../libDaisy//src/per/dac.h **** 
  84:../../libDaisy//src/per/dac.h ****     DacHandle() : pimpl_(nullptr) {}
 6275              		.loc 22 84 33 view .LVU1475
 6276 000c 8462     		str	r4, [r0, #40]
 6277              	.LBE1627:
 6278              	.LBE1626:
 6279              	.LBE1625:
 6280              	.LBB1628:
 6281              	.LBB1629:
 6282              	.LBB1630:
  95:../../libDaisy//src/hid/audio.h ****     ~AudioHandle() {}
ARM GAS  /var/folders/hl/qgbwny5j0fd895c2c41bk3tw0000gp/T//cceIFtrC.s 			page 184


 6283              		.loc 6 95 35 view .LVU1476
 6284 000e C0E90344 		strd	r4, r4, [r0, #12]
 6285              	.LVL449:
  95:../../libDaisy//src/hid/audio.h ****     ~AudioHandle() {}
 6286              		.loc 6 95 35 view .LVU1477
 6287              	.LBE1630:
 6288              	.LBE1629:
 6289              	.LBE1628:
 6290              	.LBB1631:
 6291              	.LBI1631:
  92:../../libDaisy//src/per/adc.h ****     ~AdcHandle() {}
 6292              		.loc 5 92 5 is_stmt 1 view .LVU1478
  92:../../libDaisy//src/per/adc.h ****     ~AdcHandle() {}
 6293              		.loc 5 92 5 is_stmt 0 view .LVU1479
 6294              	.LBE1631:
 6295              	.LBB1632:
 6296              	.LBI1632:
  40:../../libDaisy//src/hid/usb.h **** 
 6297              		.loc 4 40 5 is_stmt 1 view .LVU1480
  40:../../libDaisy//src/hid/usb.h **** 
 6298              		.loc 4 40 5 is_stmt 0 view .LVU1481
 6299              	.LBE1632:
 6300              	.LBB1633:
 6301              	.LBI1618:
  28:../../libDaisy//src/dev/codec_pcm3060.h ****     ~Pcm3060() {}
 6302              		.loc 3 28 5 is_stmt 1 view .LVU1482
 6303              	.LBB1624:
 6304              	.LBB1623:
 6305              	.LBI1620:
 6306              		.loc 21 82 5 view .LVU1483
 6307              		.loc 21 82 5 is_stmt 0 view .LVU1484
 6308              	.LBE1623:
 6309              	.LBE1624:
 6310              	.LBE1633:
 6311              	.LBB1634:
 6312              	.LBI1625:
 6313              		.loc 22 84 5 is_stmt 1 view .LVU1485
 6314              		.loc 22 84 5 is_stmt 0 view .LVU1486
 6315              	.LBE1634:
 6316              	.LBE1638:
 6317              	.LBE1641:
 6318              	.LBE1669:
 6319              	.LBE1672:
  64:../../libDaisy//src/daisy_patch_sm.h ****         ~DaisyPatchSM() {}
 6320              		.loc 1 64 24 is_stmt 1 view .LVU1487
 6321              	.LBB1673:
 6322              	.LBB1670:
 6323              	.LBB1642:
 6324              	.LBB1639:
 6325              	.LBB1635:
 6326              	.LBI1635:
  20:../../libDaisy//src/hid/gatein.h ****     /** GateIn~
 6327              		.loc 2 20 5 view .LVU1488
  20:../../libDaisy//src/hid/gatein.h ****     /** GateIn~
 6328              		.loc 2 20 5 is_stmt 0 view .LVU1489
 6329              	.LBE1635:
 6330              	.LBB1636:
ARM GAS  /var/folders/hl/qgbwny5j0fd895c2c41bk3tw0000gp/T//cceIFtrC.s 			page 185


 6331              	.LBI1636:
  20:../../libDaisy//src/hid/gatein.h ****     /** GateIn~
 6332              		.loc 2 20 5 is_stmt 1 view .LVU1490
  20:../../libDaisy//src/hid/gatein.h ****     /** GateIn~
 6333              		.loc 2 20 5 is_stmt 0 view .LVU1491
 6334              	.LBE1636:
 6335              	.LBE1639:
 6336              	.LBE1642:
  11:ifft.cpp      **** Patch_Bay		pb;
 6337              		.loc 16 11 15 view .LVU1492
 6338 0012 FFF7FEFF 		bl	__aeabi_atexit
 6339              	.LVL450:
 6340              	.LBB1643:
 6341              	.LBI1643:
 6342              		.loc 10 14 7 is_stmt 1 view .LVU1493
 6343              	.LBB1644:
 6344              	.LBI1644:
  77:../../libDaisy//src/per/sdmmc.h ****     ~SdmmcHandler() {}
 6345              		.loc 14 77 5 view .LVU1494
  77:../../libDaisy//src/per/sdmmc.h ****     ~SdmmcHandler() {}
 6346              		.loc 14 77 5 is_stmt 0 view .LVU1495
 6347              	.LBE1644:
 6348              	.LBB1645:
 6349              	.LBI1645:
  41:../../libDaisy//src/hid/switch.h ****     ~Switch() {}
 6350              		.loc 13 41 5 is_stmt 1 view .LVU1496
  41:../../libDaisy//src/hid/switch.h ****     ~Switch() {}
 6351              		.loc 13 41 5 is_stmt 0 view .LVU1497
 6352              	.LBE1645:
 6353              	.LBB1646:
 6354              	.LBI1646:
  20:../../libDaisy//src/hid/encoder.h ****     ~Encoder() {}
 6355              		.loc 12 20 5 is_stmt 1 view .LVU1498
 6356              	.LBB1647:
 6357              	.LBB1648:
 6358              	.LBI1648:
  41:../../libDaisy//src/hid/switch.h ****     ~Switch() {}
 6359              		.loc 13 41 5 view .LVU1499
  41:../../libDaisy//src/hid/switch.h ****     ~Switch() {}
 6360              		.loc 13 41 5 is_stmt 0 view .LVU1500
 6361              	.LBE1648:
 6362              	.LBE1647:
 6363              	.LBE1646:
 6364              	.LBB1649:
 6365              	.LBI1649:
  17:../../libDaisy//src/hid/disp/oled_display.h ****     virtual ~OledDisplay() {}
 6366              		.loc 8 17 5 is_stmt 1 view .LVU1501
 6367              	.LBB1650:
 6368              	.LBB1651:
 6369              	.LBB1652:
 6370              	.LBI1652:
 218:../../libDaisy//src/hid/disp/display.h ****     virtual ~OneBitGraphicsDisplayImpl() {}
 6371              		.loc 9 218 5 view .LVU1502
 6372              	.LBB1653:
 6373              	.LBI1653:
  22:../../libDaisy//src/hid/disp/display.h ****     virtual ~OneBitGraphicsDisplay() {}
 6374              		.loc 9 22 5 view .LVU1503
ARM GAS  /var/folders/hl/qgbwny5j0fd895c2c41bk3tw0000gp/T//cceIFtrC.s 			page 186


  22:../../libDaisy//src/hid/disp/display.h ****     virtual ~OneBitGraphicsDisplay() {}
 6375              		.loc 9 22 5 is_stmt 0 view .LVU1504
 6376              	.LBE1653:
 6377              	.LBE1652:
  17:../../libDaisy//src/hid/disp/oled_display.h ****     virtual ~OledDisplay() {}
 6378              		.loc 8 17 19 view .LVU1505
 6379 0016 0848     		ldr	r0, .L451+12
 6380 0018 084B     		ldr	r3, .L451+16
 6381              	.LBB1654:
 6382              	.LBB1655:
 6383              	.LBB1656:
 6384              	.LBB1657:
 6385              	.LBB1658:
 6386              		.loc 21 82 33 view .LVU1506
 6387 001a 0465     		str	r4, [r0, #80]
 6388              	.LBE1658:
 6389              	.LBE1657:
 6390              	.LBE1656:
 6391              	.LBE1655:
 6392              	.LBE1654:
 6393              	.LBE1651:
 6394              	.LBE1650:
 6395              	.LBE1649:
 6396              	.LBE1643:
  12:ifft.cpp      **** 
 6397              		.loc 16 12 12 view .LVU1507
 6398 001c 044A     		ldr	r2, .L451+4
 6399 001e 0849     		ldr	r1, .L451+20
 6400              	.LBB1668:
 6401              	.LBB1664:
 6402              	.LBB1663:
 6403              	.LBB1662:
  17:../../libDaisy//src/hid/disp/oled_display.h ****     virtual ~OledDisplay() {}
 6404              		.loc 8 17 19 view .LVU1508
 6405 0020 8364     		str	r3, [r0, #72]
 6406              	.LVL451:
 6407              	.LBB1661:
 6408              	.LBI1654:
 245:../../libDaisy//src/dev/oled_ssd130x.h **** {
 6409              		.loc 15 245 7 is_stmt 1 view .LVU1509
 6410              	.LBB1660:
 6411              	.LBI1655:
  15:../../libDaisy//src/dev/oled_ssd130x.h **** {
 6412              		.loc 15 15 7 view .LVU1510
 6413              	.LBB1659:
 6414              	.LBI1656:
 6415              		.loc 21 82 5 view .LVU1511
 6416              		.loc 21 82 5 is_stmt 0 view .LVU1512
 6417              	.LBE1659:
 6418              	.LBE1660:
 6419              	.LBE1661:
 6420              	.LBE1662:
 6421              	.LBE1663:
 6422              	.LBE1664:
 6423              	.LBB1665:
 6424              	.LBI1665:
  24:../../libDaisy//src/hid/led.h ****     ~Led() {}
ARM GAS  /var/folders/hl/qgbwny5j0fd895c2c41bk3tw0000gp/T//cceIFtrC.s 			page 187


 6425              		.loc 11 24 5 is_stmt 1 view .LVU1513
  24:../../libDaisy//src/hid/led.h ****     ~Led() {}
 6426              		.loc 11 24 5 is_stmt 0 view .LVU1514
 6427              	.LBE1665:
 6428              	.LBB1666:
 6429              	.LBI1666:
  24:../../libDaisy//src/hid/led.h ****     ~Led() {}
 6430              		.loc 11 24 5 is_stmt 1 view .LVU1515
  24:../../libDaisy//src/hid/led.h ****     ~Led() {}
 6431              		.loc 11 24 5 is_stmt 0 view .LVU1516
 6432              	.LBE1666:
 6433              	.LBB1667:
 6434              	.LBI1667:
  24:../../libDaisy//src/hid/led.h ****     ~Led() {}
 6435              		.loc 11 24 5 is_stmt 1 view .LVU1517
  24:../../libDaisy//src/hid/led.h ****     ~Led() {}
 6436              		.loc 11 24 5 is_stmt 0 view .LVU1518
 6437              	.LBE1667:
 6438              	.LBE1668:
 6439              	.LBE1670:
 6440              	.LBE1673:
 6441              		.loc 16 102 1 view .LVU1519
 6442 0022 BDE81040 		pop	{r4, lr}
 6443              		.cfi_restore 14
 6444              		.cfi_restore 4
 6445              		.cfi_def_cfa_offset 0
 6446              	.LBB1674:
 6447              	.LBB1671:
  12:ifft.cpp      **** 
 6448              		.loc 16 12 12 view .LVU1520
 6449 0026 FFF7FEBF 		b	__aeabi_atexit
 6450              	.LVL452:
 6451              	.L452:
 6452 002a 00BF     		.align	2
 6453              	.L451:
 6454 002c 00000000 		.word	.LANCHOR0
 6455 0030 00000000 		.word	__dso_handle
 6456 0034 00000000 		.word	_ZN5daisy8patch_sm12DaisyPatchSMD1Ev
 6457 0038 00000000 		.word	.LANCHOR5
 6458 003c 08000000 		.word	_ZTVN5daisy11OledDisplayINS_13SSD130xDriverILj128ELj64ENS_19SSD130xI2CTransportEEEEE+8
 6459 0040 00000000 		.word	_ZN5daisy9Patch_BayD1Ev
 6460              	.LBE1671:
 6461              	.LBE1674:
 6462              		.cfi_endproc
 6463              	.LFE5462:
 6465              		.section	.init_array,"aw",%init_array
 6466              		.align	2
 6467 0000 00000000 		.word	_GLOBAL__sub_I_hw(target1)
 6468              		.weak	_ZTVN5daisy11OledDisplayINS_13SSD130xDriverILj128ELj64ENS_19SSD130xI2CTransportEEEEE
 6469              		.section	.rodata._ZTVN5daisy11OledDisplayINS_13SSD130xDriverILj128ELj64ENS_19SSD130xI2CTransportEE
 6470              		.align	2
 6473              	_ZTVN5daisy11OledDisplayINS_13SSD130xDriverILj128ELj64ENS_19SSD130xI2CTransportEEEEE:
 6474 0000 00000000 		.word	0
 6475 0004 00000000 		.word	0
 6476 0008 00000000 		.word	_ZN5daisy11OledDisplayINS_13SSD130xDriverILj128ELj64ENS_19SSD130xI2CTransportEEEED1Ev
 6477 000c 00000000 		.word	_ZN5daisy11OledDisplayINS_13SSD130xDriverILj128ELj64ENS_19SSD130xI2CTransportEEEED0Ev
 6478 0010 00000000 		.word	_ZNK5daisy11OledDisplayINS_13SSD130xDriverILj128ELj64ENS_19SSD130xI2CTransportEEEE6HeightEv
ARM GAS  /var/folders/hl/qgbwny5j0fd895c2c41bk3tw0000gp/T//cceIFtrC.s 			page 188


 6479 0014 00000000 		.word	_ZNK5daisy11OledDisplayINS_13SSD130xDriverILj128ELj64ENS_19SSD130xI2CTransportEEEE5WidthEv
 6480 0018 00000000 		.word	_ZN5daisy11OledDisplayINS_13SSD130xDriverILj128ELj64ENS_19SSD130xI2CTransportEEEE4FillEb
 6481 001c 00000000 		.word	_ZN5daisy11OledDisplayINS_13SSD130xDriverILj128ELj64ENS_19SSD130xI2CTransportEEEE9DrawPixelE
 6482 0020 00000000 		.word	_ZN5daisy25OneBitGraphicsDisplayImplINS_11OledDisplayINS_13SSD130xDriverILj128ELj64ENS_19SSD
 6483 0024 00000000 		.word	_ZN5daisy25OneBitGraphicsDisplayImplINS_11OledDisplayINS_13SSD130xDriverILj128ELj64ENS_19SSD
 6484 0028 00000000 		.word	_ZN5daisy25OneBitGraphicsDisplayImplINS_11OledDisplayINS_13SSD130xDriverILj128ELj64ENS_19SSD
 6485 002c 00000000 		.word	_ZN5daisy25OneBitGraphicsDisplayImplINS_11OledDisplayINS_13SSD130xDriverILj128ELj64ENS_19SSD
 6486 0030 00000000 		.word	_ZN5daisy25OneBitGraphicsDisplayImplINS_11OledDisplayINS_13SSD130xDriverILj128ELj64ENS_19SSD
 6487 0034 00000000 		.word	_ZN5daisy25OneBitGraphicsDisplayImplINS_11OledDisplayINS_13SSD130xDriverILj128ELj64ENS_19SSD
 6488 0038 00000000 		.word	_ZN5daisy11OledDisplayINS_13SSD130xDriverILj128ELj64ENS_19SSD130xI2CTransportEEEE6UpdateEv
 6489              		.global	output
 6490              		.global	ps_amt
 6491              		.global	ifft_buf_index
 6492              		.global	fft_buf_index
 6493              		.global	fft
 6494              		.global	pb
 6495              		.global	hw
 6496              		.section	.bss._ZL10ifftOutput,"aw",%nobits
 6497              		.align	2
 6500              	_ZL10ifftOutput:
 6501 0000 00000000 		.space	4096
 6501      00000000 
 6501      00000000 
 6501      00000000 
 6501      00000000 
 6502              		.section	.bss._ZL8fftInput,"aw",%nobits
 6503              		.align	2
 6506              	_ZL8fftInput:
 6507 0000 00000000 		.space	4096
 6507      00000000 
 6507      00000000 
 6507      00000000 
 6507      00000000 
 6508              		.section	.bss._ZL9fftOutput,"aw",%nobits
 6509              		.align	2
 6512              	_ZL9fftOutput:
 6513 0000 00000000 		.space	4096
 6513      00000000 
 6513      00000000 
 6513      00000000 
 6513      00000000 
 6514              		.section	.bss.fft_buf_index,"aw",%nobits
 6515              		.align	2
 6516              		.set	.LANCHOR2,. + 0
 6519              	fft_buf_index:
 6520 0000 00000000 		.space	4
 6521              		.section	.bss.hw,"aw",%nobits
 6522              		.align	2
 6523              		.set	.LANCHOR0,. + 0
 6526              	hw:
 6527 0000 00000000 		.space	464
 6527      00000000 
 6527      00000000 
 6527      00000000 
 6527      00000000 
 6528              		.section	.bss.ifft_buf_index,"aw",%nobits
 6529              		.align	2
ARM GAS  /var/folders/hl/qgbwny5j0fd895c2c41bk3tw0000gp/T//cceIFtrC.s 			page 189


 6530              		.set	.LANCHOR3,. + 0
 6533              	ifft_buf_index:
 6534 0000 00000000 		.space	4
 6535              		.section	.bss.output,"aw",%nobits
 6536              		.align	2
 6537              		.set	.LANCHOR4,. + 0
 6540              	output:
 6541 0000 00000000 		.space	4
 6542              		.section	.bss.pb,"aw",%nobits
 6543              		.align	2
 6544              		.set	.LANCHOR5,. + 0
 6547              	pb:
 6548 0000 00000000 		.space	1196
 6548      00000000 
 6548      00000000 
 6548      00000000 
 6548      00000000 
 6549              		.section	.bss.ps_amt,"aw",%nobits
 6550              		.align	2
 6551              		.set	.LANCHOR1,. + 0
 6554              	ps_amt:
 6555 0000 00000000 		.space	4
 6556              		.section	.data.fft,"aw"
 6557              		.align	2
 6558              		.set	.LANCHOR6,. + 0
 6561              	fft:
 6562 0000 0002     		.short	512
 6563 0002 0000     		.space	2
 6564 0004 00000000 		.word	twiddleCoef_512
 6565 0008 00000000 		.word	armBitRevIndexTable512
 6566 000c C001     		.short	448
 6567 000e 0000     		.space	2
 6568 0010 0004     		.short	1024
 6569 0012 0000     		.space	2
 6570 0014 00000000 		.word	twiddleCoef_rfft_1024
 6571              		.text
 6572              	.Letext0:
 6573              		.file 23 "/opt/homebrew/Cellar/arm-none-eabi-gcc/10.3-2021.07/gcc/arm-none-eabi/include/machine/_d
 6574              		.file 24 "/opt/homebrew/Cellar/arm-none-eabi-gcc/10.3-2021.07/gcc/arm-none-eabi/include/sys/_stdin
 6575              		.file 25 "/opt/homebrew/Cellar/arm-none-eabi-gcc/10.3-2021.07/gcc/arm-none-eabi/include/stdint.h"
 6576              		.file 26 "/opt/homebrew/Cellar/arm-none-eabi-gcc/10.3-2021.07/gcc/lib/gcc/arm-none-eabi/10.3.1/inc
 6577              		.file 27 "/opt/homebrew/Cellar/arm-none-eabi-gcc/10.3-2021.07/gcc/arm-none-eabi/include/c++/10.3.1
 6578              		.file 28 "/opt/homebrew/Cellar/arm-none-eabi-gcc/10.3-2021.07/gcc/arm-none-eabi/include/c++/10.3.1
 6579              		.file 29 "/opt/homebrew/Cellar/arm-none-eabi-gcc/10.3-2021.07/gcc/arm-none-eabi/include/c++/10.3.1
 6580              		.file 30 "/opt/homebrew/Cellar/arm-none-eabi-gcc/10.3-2021.07/gcc/arm-none-eabi/include/c++/10.3.1
 6581              		.file 31 "/opt/homebrew/Cellar/arm-none-eabi-gcc/10.3-2021.07/gcc/arm-none-eabi/include/c++/10.3.1
 6582              		.file 32 "/opt/homebrew/Cellar/arm-none-eabi-gcc/10.3-2021.07/gcc/arm-none-eabi/include/c++/10.3.1
 6583              		.file 33 "/opt/homebrew/Cellar/arm-none-eabi-gcc/10.3-2021.07/gcc/arm-none-eabi/include/c++/10.3.1
 6584              		.file 34 "/opt/homebrew/Cellar/arm-none-eabi-gcc/10.3-2021.07/gcc/arm-none-eabi/include/c++/10.3.1
 6585              		.file 35 "/opt/homebrew/Cellar/arm-none-eabi-gcc/10.3-2021.07/gcc/arm-none-eabi/include/c++/10.3.1
 6586              		.file 36 "/opt/homebrew/Cellar/arm-none-eabi-gcc/10.3-2021.07/gcc/arm-none-eabi/include/c++/10.3.1
 6587              		.file 37 "/opt/homebrew/Cellar/arm-none-eabi-gcc/10.3-2021.07/gcc/arm-none-eabi/include/c++/10.3.1
 6588              		.file 38 "/opt/homebrew/Cellar/arm-none-eabi-gcc/10.3-2021.07/gcc/arm-none-eabi/include/c++/10.3.1
 6589              		.file 39 "/opt/homebrew/Cellar/arm-none-eabi-gcc/10.3-2021.07/gcc/arm-none-eabi/include/c++/10.3.1
 6590              		.file 40 "/opt/homebrew/Cellar/arm-none-eabi-gcc/10.3-2021.07/gcc/arm-none-eabi/include/c++/10.3.1
 6591              		.file 41 "/opt/homebrew/Cellar/arm-none-eabi-gcc/10.3-2021.07/gcc/arm-none-eabi/include/c++/10.3.1
 6592              		.file 42 "/opt/homebrew/Cellar/arm-none-eabi-gcc/10.3-2021.07/gcc/arm-none-eabi/include/c++/10.3.1
ARM GAS  /var/folders/hl/qgbwny5j0fd895c2c41bk3tw0000gp/T//cceIFtrC.s 			page 190


 6593              		.file 43 "/opt/homebrew/Cellar/arm-none-eabi-gcc/10.3-2021.07/gcc/arm-none-eabi/include/c++/10.3.1
 6594              		.file 44 "/opt/homebrew/Cellar/arm-none-eabi-gcc/10.3-2021.07/gcc/arm-none-eabi/include/sys/_types
 6595              		.file 45 "/opt/homebrew/Cellar/arm-none-eabi-gcc/10.3-2021.07/gcc/arm-none-eabi/include/sys/reent.
 6596              		.file 46 "/opt/homebrew/Cellar/arm-none-eabi-gcc/10.3-2021.07/gcc/arm-none-eabi/include/sys/lock.h
 6597              		.file 47 "/opt/homebrew/Cellar/arm-none-eabi-gcc/10.3-2021.07/gcc/arm-none-eabi/include/math.h"
 6598              		.file 48 "/opt/homebrew/Cellar/arm-none-eabi-gcc/10.3-2021.07/gcc/arm-none-eabi/include/stdlib.h"
 6599              		.file 49 "/opt/homebrew/Cellar/arm-none-eabi-gcc/10.3-2021.07/gcc/arm-none-eabi/include/c++/10.3.1
 6600              		.file 50 "/opt/homebrew/Cellar/arm-none-eabi-gcc/10.3-2021.07/gcc/arm-none-eabi/include/c++/10.3.1
 6601              		.file 51 "../../libDaisy//src/daisy_core.h"
 6602              		.file 52 "../../libDaisy//src/per/tim.h"
 6603              		.file 53 "../../libDaisy//src/per/sai.h"
 6604              		.file 54 "../../libDaisy//src/hid/ctrl.h"
 6605              		.file 55 "../../libDaisy//src/util/wav_format.h"
 6606              		.file 56 "../../libDaisy//src/dev/max11300.h"
 6607              		.file 57 "../../libDaisy//src/per/gpio.h"
 6608              		.file 58 "../../libDaisy//src/dev/sdram.h"
 6609              		.file 59 "/opt/homebrew/Cellar/arm-none-eabi-gcc/10.3-2021.07/gcc/lib/gcc/arm-none-eabi/10.3.1/inc
 6610              		.file 60 "/opt/homebrew/Cellar/arm-none-eabi-gcc/10.3-2021.07/gcc/arm-none-eabi/include/stdio.h"
 6611              		.file 61 "../../libDaisy//src/util/oled_fonts.h"
 6612              		.file 62 "/opt/homebrew/Cellar/arm-none-eabi-gcc/10.3-2021.07/gcc/arm-none-eabi/include/string.h"
 6613              		.file 63 "../../DaisySP//Source/Control/adenv.h"
 6614              		.file 64 "/opt/homebrew/Cellar/arm-none-eabi-gcc/10.3-2021.07/gcc/arm-none-eabi/include/wchar.h"
 6615              		.file 65 "/opt/homebrew/Cellar/arm-none-eabi-gcc/10.3-2021.07/gcc/arm-none-eabi/include/locale.h"
 6616              		.file 66 "../../libDaisy//Drivers/CMSIS/DSP/Include/arm_math.h"
 6617              		.file 67 "../../libDaisy//Drivers/CMSIS/DSP/Include/arm_common_tables.h"
 6618              		.file 68 "../../libDaisy//src/dev/sr_595.h"
 6619              		.file 69 "/opt/homebrew/Cellar/arm-none-eabi-gcc/10.3-2021.07/gcc/arm-none-eabi/include/c++/10.3.1
 6620              		.file 70 "<built-in>"
ARM GAS  /var/folders/hl/qgbwny5j0fd895c2c41bk3tw0000gp/T//cceIFtrC.s 			page 191


DEFINED SYMBOLS
                            *ABS*:0000000000000000 ifft.cpp
/var/folders/hl/qgbwny5j0fd895c2c41bk3tw0000gp/T//cceIFtrC.s:17     .text._ZN5daisy8patch_sm12DaisyPatchSMD2Ev:0000000000000000 $t
/var/folders/hl/qgbwny5j0fd895c2c41bk3tw0000gp/T//cceIFtrC.s:26     .text._ZN5daisy8patch_sm12DaisyPatchSMD2Ev:0000000000000000 _ZN5daisy8patch_sm12DaisyPatchSMD2Ev
/var/folders/hl/qgbwny5j0fd895c2c41bk3tw0000gp/T//cceIFtrC.s:26     .text._ZN5daisy8patch_sm12DaisyPatchSMD2Ev:0000000000000000 _ZN5daisy8patch_sm12DaisyPatchSMD1Ev
/var/folders/hl/qgbwny5j0fd895c2c41bk3tw0000gp/T//cceIFtrC.s:84     .text._ZN5daisy11OledDisplayINS_13SSD130xDriverILj128ELj64ENS_19SSD130xI2CTransportEEEED2Ev:0000000000000000 $t
/var/folders/hl/qgbwny5j0fd895c2c41bk3tw0000gp/T//cceIFtrC.s:92     .text._ZN5daisy11OledDisplayINS_13SSD130xDriverILj128ELj64ENS_19SSD130xI2CTransportEEEED2Ev:0000000000000000 _ZN5daisy11OledDisplayINS_13SSD130xDriverILj128ELj64ENS_19SSD130xI2CTransportEEEED2Ev
/var/folders/hl/qgbwny5j0fd895c2c41bk3tw0000gp/T//cceIFtrC.s:92     .text._ZN5daisy11OledDisplayINS_13SSD130xDriverILj128ELj64ENS_19SSD130xI2CTransportEEEED2Ev:0000000000000000 _ZN5daisy11OledDisplayINS_13SSD130xDriverILj128ELj64ENS_19SSD130xI2CTransportEEEED1Ev
/var/folders/hl/qgbwny5j0fd895c2c41bk3tw0000gp/T//cceIFtrC.s:119    .text._ZN5daisy9Patch_BayD2Ev:0000000000000000 $t
/var/folders/hl/qgbwny5j0fd895c2c41bk3tw0000gp/T//cceIFtrC.s:127    .text._ZN5daisy9Patch_BayD2Ev:0000000000000000 _ZN5daisy9Patch_BayD2Ev
/var/folders/hl/qgbwny5j0fd895c2c41bk3tw0000gp/T//cceIFtrC.s:127    .text._ZN5daisy9Patch_BayD2Ev:0000000000000000 _ZN5daisy9Patch_BayD1Ev
/var/folders/hl/qgbwny5j0fd895c2c41bk3tw0000gp/T//cceIFtrC.s:195    .text._ZNK5daisy11OledDisplayINS_13SSD130xDriverILj128ELj64ENS_19SSD130xI2CTransportEEEE6HeightEv:0000000000000000 $t
/var/folders/hl/qgbwny5j0fd895c2c41bk3tw0000gp/T//cceIFtrC.s:203    .text._ZNK5daisy11OledDisplayINS_13SSD130xDriverILj128ELj64ENS_19SSD130xI2CTransportEEEE6HeightEv:0000000000000000 _ZNK5daisy11OledDisplayINS_13SSD130xDriverILj128ELj64ENS_19SSD130xI2CTransportEEEE6HeightEv
/var/folders/hl/qgbwny5j0fd895c2c41bk3tw0000gp/T//cceIFtrC.s:220    .text._ZNK5daisy11OledDisplayINS_13SSD130xDriverILj128ELj64ENS_19SSD130xI2CTransportEEEE5WidthEv:0000000000000000 $t
/var/folders/hl/qgbwny5j0fd895c2c41bk3tw0000gp/T//cceIFtrC.s:228    .text._ZNK5daisy11OledDisplayINS_13SSD130xDriverILj128ELj64ENS_19SSD130xI2CTransportEEEE5WidthEv:0000000000000000 _ZNK5daisy11OledDisplayINS_13SSD130xDriverILj128ELj64ENS_19SSD130xI2CTransportEEEE5WidthEv
/var/folders/hl/qgbwny5j0fd895c2c41bk3tw0000gp/T//cceIFtrC.s:245    .text._ZN5daisy11OledDisplayINS_13SSD130xDriverILj128ELj64ENS_19SSD130xI2CTransportEEEE4FillEb:0000000000000000 $t
/var/folders/hl/qgbwny5j0fd895c2c41bk3tw0000gp/T//cceIFtrC.s:253    .text._ZN5daisy11OledDisplayINS_13SSD130xDriverILj128ELj64ENS_19SSD130xI2CTransportEEEE4FillEb:0000000000000000 _ZN5daisy11OledDisplayINS_13SSD130xDriverILj128ELj64ENS_19SSD130xI2CTransportEEEE4FillEb
/var/folders/hl/qgbwny5j0fd895c2c41bk3tw0000gp/T//cceIFtrC.s:285    .text._ZN5daisy11OledDisplayINS_13SSD130xDriverILj128ELj64ENS_19SSD130xI2CTransportEEEED0Ev:0000000000000000 $t
/var/folders/hl/qgbwny5j0fd895c2c41bk3tw0000gp/T//cceIFtrC.s:293    .text._ZN5daisy11OledDisplayINS_13SSD130xDriverILj128ELj64ENS_19SSD130xI2CTransportEEEED0Ev:0000000000000000 _ZN5daisy11OledDisplayINS_13SSD130xDriverILj128ELj64ENS_19SSD130xI2CTransportEEEED0Ev
/var/folders/hl/qgbwny5j0fd895c2c41bk3tw0000gp/T//cceIFtrC.s:333    .text._ZN5daisy11OledDisplayINS_13SSD130xDriverILj128ELj64ENS_19SSD130xI2CTransportEEEE6UpdateEv:0000000000000000 $t
/var/folders/hl/qgbwny5j0fd895c2c41bk3tw0000gp/T//cceIFtrC.s:341    .text._ZN5daisy11OledDisplayINS_13SSD130xDriverILj128ELj64ENS_19SSD130xI2CTransportEEEE6UpdateEv:0000000000000000 _ZN5daisy11OledDisplayINS_13SSD130xDriverILj128ELj64ENS_19SSD130xI2CTransportEEEE6UpdateEv
/var/folders/hl/qgbwny5j0fd895c2c41bk3tw0000gp/T//cceIFtrC.s:524    .text._Z13AudioCallbackPKPKfPPfj:0000000000000000 $t
/var/folders/hl/qgbwny5j0fd895c2c41bk3tw0000gp/T//cceIFtrC.s:532    .text._Z13AudioCallbackPKPKfPPfj:0000000000000000 _Z13AudioCallbackPKPKfPPfj
/var/folders/hl/qgbwny5j0fd895c2c41bk3tw0000gp/T//cceIFtrC.s:782    .text._Z13AudioCallbackPKPKfPPfj:00000000000000d0 $d
/var/folders/hl/qgbwny5j0fd895c2c41bk3tw0000gp/T//cceIFtrC.s:6500   .bss._ZL10ifftOutput:0000000000000000 _ZL10ifftOutput
/var/folders/hl/qgbwny5j0fd895c2c41bk3tw0000gp/T//cceIFtrC.s:6506   .bss._ZL8fftInput:0000000000000000 _ZL8fftInput
/var/folders/hl/qgbwny5j0fd895c2c41bk3tw0000gp/T//cceIFtrC.s:794    .text._ZN5daisy25OneBitGraphicsDisplayImplINS_11OledDisplayINS_13SSD130xDriverILj128ELj64ENS_19SSD130xI2CTransportEEEEEE11WriteStringEPKc7FontDefb:0000000000000000 $t
/var/folders/hl/qgbwny5j0fd895c2c41bk3tw0000gp/T//cceIFtrC.s:802    .text._ZN5daisy25OneBitGraphicsDisplayImplINS_11OledDisplayINS_13SSD130xDriverILj128ELj64ENS_19SSD130xI2CTransportEEEEEE11WriteStringEPKc7FontDefb:0000000000000000 _ZN5daisy25OneBitGraphicsDisplayImplINS_11OledDisplayINS_13SSD130xDriverILj128ELj64ENS_19SSD130xI2CTransportEEEEEE11WriteStringEPKc7FontDefb
/var/folders/hl/qgbwny5j0fd895c2c41bk3tw0000gp/T//cceIFtrC.s:1259   .text._ZN5daisy25OneBitGraphicsDisplayImplINS_11OledDisplayINS_13SSD130xDriverILj128ELj64ENS_19SSD130xI2CTransportEEEEEE11WriteStringEPKc7FontDefb:00000000000001b8 $d
/var/folders/hl/qgbwny5j0fd895c2c41bk3tw0000gp/T//cceIFtrC.s:1269   .text._ZN5daisy25OneBitGraphicsDisplayImplINS_11OledDisplayINS_13SSD130xDriverILj128ELj64ENS_19SSD130xI2CTransportEEEEEE9WriteCharEc7FontDefb:0000000000000000 $t
/var/folders/hl/qgbwny5j0fd895c2c41bk3tw0000gp/T//cceIFtrC.s:1277   .text._ZN5daisy25OneBitGraphicsDisplayImplINS_11OledDisplayINS_13SSD130xDriverILj128ELj64ENS_19SSD130xI2CTransportEEEEEE9WriteCharEc7FontDefb:0000000000000000 _ZN5daisy25OneBitGraphicsDisplayImplINS_11OledDisplayINS_13SSD130xDriverILj128ELj64ENS_19SSD130xI2CTransportEEEEEE9WriteCharEc7FontDefb
/var/folders/hl/qgbwny5j0fd895c2c41bk3tw0000gp/T//cceIFtrC.s:1703   .text._ZN5daisy25OneBitGraphicsDisplayImplINS_11OledDisplayINS_13SSD130xDriverILj128ELj64ENS_19SSD130xI2CTransportEEEEEE9WriteCharEc7FontDefb:0000000000000198 $d
/var/folders/hl/qgbwny5j0fd895c2c41bk3tw0000gp/T//cceIFtrC.s:1711   .text._ZN5daisy25OneBitGraphicsDisplayImplINS_11OledDisplayINS_13SSD130xDriverILj128ELj64ENS_19SSD130xI2CTransportEEEEEE18WriteStringAlignedEPKcRK7FontDefNS_9RectangleENS_9AlignmentEb:0000000000000000 $t
/var/folders/hl/qgbwny5j0fd895c2c41bk3tw0000gp/T//cceIFtrC.s:1719   .text._ZN5daisy25OneBitGraphicsDisplayImplINS_11OledDisplayINS_13SSD130xDriverILj128ELj64ENS_19SSD130xI2CTransportEEEEEE18WriteStringAlignedEPKcRK7FontDefNS_9RectangleENS_9AlignmentEb:0000000000000000 _ZN5daisy25OneBitGraphicsDisplayImplINS_11OledDisplayINS_13SSD130xDriverILj128ELj64ENS_19SSD130xI2CTransportEEEEEE18WriteStringAlignedEPKcRK7FontDefNS_9RectangleENS_9AlignmentEb
/var/folders/hl/qgbwny5j0fd895c2c41bk3tw0000gp/T//cceIFtrC.s:1858   .text._ZN5daisy25OneBitGraphicsDisplayImplINS_11OledDisplayINS_13SSD130xDriverILj128ELj64ENS_19SSD130xI2CTransportEEEEEE18WriteStringAlignedEPKcRK7FontDefNS_9RectangleENS_9AlignmentEb:0000000000000046 $d
/var/folders/hl/qgbwny5j0fd895c2c41bk3tw0000gp/T//cceIFtrC.s:1867   .text._ZN5daisy25OneBitGraphicsDisplayImplINS_11OledDisplayINS_13SSD130xDriverILj128ELj64ENS_19SSD130xI2CTransportEEEEEE18WriteStringAlignedEPKcRK7FontDefNS_9RectangleENS_9AlignmentEb:0000000000000058 $t
/var/folders/hl/qgbwny5j0fd895c2c41bk3tw0000gp/T//cceIFtrC.s:3075   .text._ZN5daisy25OneBitGraphicsDisplayImplINS_11OledDisplayINS_13SSD130xDriverILj128ELj64ENS_19SSD130xI2CTransportEEEEEE18WriteStringAlignedEPKcRK7FontDefNS_9RectangleENS_9AlignmentEb:000000000000031c $d
/var/folders/hl/qgbwny5j0fd895c2c41bk3tw0000gp/T//cceIFtrC.s:3084   .text._ZN5daisy25OneBitGraphicsDisplayImplINS_11OledDisplayINS_13SSD130xDriverILj128ELj64ENS_19SSD130xI2CTransportEEEEEE18WriteStringAlignedEPKcRK7FontDefNS_9RectangleENS_9AlignmentEb:0000000000000324 $t
/var/folders/hl/qgbwny5j0fd895c2c41bk3tw0000gp/T//cceIFtrC.s:3400   .text._ZN5daisy25OneBitGraphicsDisplayImplINS_11OledDisplayINS_13SSD130xDriverILj128ELj64ENS_19SSD130xI2CTransportEEEEEE18WriteStringAlignedEPKcRK7FontDefNS_9RectangleENS_9AlignmentEb:00000000000003e4 $d
/var/folders/hl/qgbwny5j0fd895c2c41bk3tw0000gp/T//cceIFtrC.s:3408   .text._ZN5daisy11OledDisplayINS_13SSD130xDriverILj128ELj64ENS_19SSD130xI2CTransportEEEE9DrawPixelEjjb:0000000000000000 $t
/var/folders/hl/qgbwny5j0fd895c2c41bk3tw0000gp/T//cceIFtrC.s:3416   .text._ZN5daisy11OledDisplayINS_13SSD130xDriverILj128ELj64ENS_19SSD130xI2CTransportEEEE9DrawPixelEjjb:0000000000000000 _ZN5daisy11OledDisplayINS_13SSD130xDriverILj128ELj64ENS_19SSD130xI2CTransportEEEE9DrawPixelEjjb
/var/folders/hl/qgbwny5j0fd895c2c41bk3tw0000gp/T//cceIFtrC.s:3493   .text._ZN5daisy25OneBitGraphicsDisplayImplINS_11OledDisplayINS_13SSD130xDriverILj128ELj64ENS_19SSD130xI2CTransportEEEEEE8DrawLineEjjjjb:0000000000000000 $t
/var/folders/hl/qgbwny5j0fd895c2c41bk3tw0000gp/T//cceIFtrC.s:3501   .text._ZN5daisy25OneBitGraphicsDisplayImplINS_11OledDisplayINS_13SSD130xDriverILj128ELj64ENS_19SSD130xI2CTransportEEEEEE8DrawLineEjjjjb:0000000000000000 _ZN5daisy25OneBitGraphicsDisplayImplINS_11OledDisplayINS_13SSD130xDriverILj128ELj64ENS_19SSD130xI2CTransportEEEEEE8DrawLineEjjjjb
/var/folders/hl/qgbwny5j0fd895c2c41bk3tw0000gp/T//cceIFtrC.s:3786   .text._ZN5daisy25OneBitGraphicsDisplayImplINS_11OledDisplayINS_13SSD130xDriverILj128ELj64ENS_19SSD130xI2CTransportEEEEEE7DrawArcEjjjiib:0000000000000000 $t
/var/folders/hl/qgbwny5j0fd895c2c41bk3tw0000gp/T//cceIFtrC.s:3794   .text._ZN5daisy25OneBitGraphicsDisplayImplINS_11OledDisplayINS_13SSD130xDriverILj128ELj64ENS_19SSD130xI2CTransportEEEEEE7DrawArcEjjjiib:0000000000000000 _ZN5daisy25OneBitGraphicsDisplayImplINS_11OledDisplayINS_13SSD130xDriverILj128ELj64ENS_19SSD130xI2CTransportEEEEEE7DrawArcEjjjiib
/var/folders/hl/qgbwny5j0fd895c2c41bk3tw0000gp/T//cceIFtrC.s:4479   .text._ZN5daisy25OneBitGraphicsDisplayImplINS_11OledDisplayINS_13SSD130xDriverILj128ELj64ENS_19SSD130xI2CTransportEEEEEE7DrawArcEjjjiib:0000000000000368 $d
/var/folders/hl/qgbwny5j0fd895c2c41bk3tw0000gp/T//cceIFtrC.s:4493   .text._ZN5daisy25OneBitGraphicsDisplayImplINS_11OledDisplayINS_13SSD130xDriverILj128ELj64ENS_19SSD130xI2CTransportEEEEEE7DrawArcEjjjiib:0000000000000378 $t
/var/folders/hl/qgbwny5j0fd895c2c41bk3tw0000gp/T//cceIFtrC.s:4719   .text._ZN5daisy25OneBitGraphicsDisplayImplINS_11OledDisplayINS_13SSD130xDriverILj128ELj64ENS_19SSD130xI2CTransportEEEEEE8DrawRectEjjjjbb:0000000000000000 $t
/var/folders/hl/qgbwny5j0fd895c2c41bk3tw0000gp/T//cceIFtrC.s:4727   .text._ZN5daisy25OneBitGraphicsDisplayImplINS_11OledDisplayINS_13SSD130xDriverILj128ELj64ENS_19SSD130xI2CTransportEEEEEE8DrawRectEjjjjbb:0000000000000000 _ZN5daisy25OneBitGraphicsDisplayImplINS_11OledDisplayINS_13SSD130xDriverILj128ELj64ENS_19SSD130xI2CTransportEEEEEE8DrawRectEjjjjbb
/var/folders/hl/qgbwny5j0fd895c2c41bk3tw0000gp/T//cceIFtrC.s:5837   .text.startup.main:0000000000000000 $t
/var/folders/hl/qgbwny5j0fd895c2c41bk3tw0000gp/T//cceIFtrC.s:5845   .text.startup.main:0000000000000000 main
/var/folders/hl/qgbwny5j0fd895c2c41bk3tw0000gp/T//cceIFtrC.s:5958   .text.startup.main:0000000000000064 $d
/var/folders/hl/qgbwny5j0fd895c2c41bk3tw0000gp/T//cceIFtrC.s:6512   .bss._ZL9fftOutput:0000000000000000 _ZL9fftOutput
/var/folders/hl/qgbwny5j0fd895c2c41bk3tw0000gp/T//cceIFtrC.s:5975   .text._Z8fft_procv:0000000000000000 $t
/var/folders/hl/qgbwny5j0fd895c2c41bk3tw0000gp/T//cceIFtrC.s:5983   .text._Z8fft_procv:0000000000000000 _Z8fft_procv
/var/folders/hl/qgbwny5j0fd895c2c41bk3tw0000gp/T//cceIFtrC.s:6020   .text._Z8fft_procv:0000000000000020 $d
/var/folders/hl/qgbwny5j0fd895c2c41bk3tw0000gp/T//cceIFtrC.s:6028   .text._Z7Processf:0000000000000000 $t
ARM GAS  /var/folders/hl/qgbwny5j0fd895c2c41bk3tw0000gp/T//cceIFtrC.s 			page 192


/var/folders/hl/qgbwny5j0fd895c2c41bk3tw0000gp/T//cceIFtrC.s:6036   .text._Z7Processf:0000000000000000 _Z7Processf
/var/folders/hl/qgbwny5j0fd895c2c41bk3tw0000gp/T//cceIFtrC.s:6099   .text._Z7Processf:000000000000003c $d
/var/folders/hl/qgbwny5j0fd895c2c41bk3tw0000gp/T//cceIFtrC.s:6108   .text._Z7Buffersv:0000000000000000 $t
/var/folders/hl/qgbwny5j0fd895c2c41bk3tw0000gp/T//cceIFtrC.s:6116   .text._Z7Buffersv:0000000000000000 _Z7Buffersv
/var/folders/hl/qgbwny5j0fd895c2c41bk3tw0000gp/T//cceIFtrC.s:6185   .text._Z7Buffersv:0000000000000038 $d
/var/folders/hl/qgbwny5j0fd895c2c41bk3tw0000gp/T//cceIFtrC.s:6197   .text.startup._GLOBAL__sub_I_hw:0000000000000000 $t
/var/folders/hl/qgbwny5j0fd895c2c41bk3tw0000gp/T//cceIFtrC.s:6204   .text.startup._GLOBAL__sub_I_hw:0000000000000000 _GLOBAL__sub_I_hw
/var/folders/hl/qgbwny5j0fd895c2c41bk3tw0000gp/T//cceIFtrC.s:6454   .text.startup._GLOBAL__sub_I_hw:000000000000002c $d
/var/folders/hl/qgbwny5j0fd895c2c41bk3tw0000gp/T//cceIFtrC.s:6473   .rodata._ZTVN5daisy11OledDisplayINS_13SSD130xDriverILj128ELj64ENS_19SSD130xI2CTransportEEEEE:0000000000000000 _ZTVN5daisy11OledDisplayINS_13SSD130xDriverILj128ELj64ENS_19SSD130xI2CTransportEEEEE
/var/folders/hl/qgbwny5j0fd895c2c41bk3tw0000gp/T//cceIFtrC.s:6466   .init_array:0000000000000000 $d
/var/folders/hl/qgbwny5j0fd895c2c41bk3tw0000gp/T//cceIFtrC.s:6470   .rodata._ZTVN5daisy11OledDisplayINS_13SSD130xDriverILj128ELj64ENS_19SSD130xI2CTransportEEEEE:0000000000000000 $d
/var/folders/hl/qgbwny5j0fd895c2c41bk3tw0000gp/T//cceIFtrC.s:6540   .bss.output:0000000000000000 output
/var/folders/hl/qgbwny5j0fd895c2c41bk3tw0000gp/T//cceIFtrC.s:6554   .bss.ps_amt:0000000000000000 ps_amt
/var/folders/hl/qgbwny5j0fd895c2c41bk3tw0000gp/T//cceIFtrC.s:6533   .bss.ifft_buf_index:0000000000000000 ifft_buf_index
/var/folders/hl/qgbwny5j0fd895c2c41bk3tw0000gp/T//cceIFtrC.s:6519   .bss.fft_buf_index:0000000000000000 fft_buf_index
/var/folders/hl/qgbwny5j0fd895c2c41bk3tw0000gp/T//cceIFtrC.s:6561   .data.fft:0000000000000000 fft
/var/folders/hl/qgbwny5j0fd895c2c41bk3tw0000gp/T//cceIFtrC.s:6547   .bss.pb:0000000000000000 pb
/var/folders/hl/qgbwny5j0fd895c2c41bk3tw0000gp/T//cceIFtrC.s:6526   .bss.hw:0000000000000000 hw
/var/folders/hl/qgbwny5j0fd895c2c41bk3tw0000gp/T//cceIFtrC.s:6497   .bss._ZL10ifftOutput:0000000000000000 $d
/var/folders/hl/qgbwny5j0fd895c2c41bk3tw0000gp/T//cceIFtrC.s:6503   .bss._ZL8fftInput:0000000000000000 $d
/var/folders/hl/qgbwny5j0fd895c2c41bk3tw0000gp/T//cceIFtrC.s:6509   .bss._ZL9fftOutput:0000000000000000 $d
/var/folders/hl/qgbwny5j0fd895c2c41bk3tw0000gp/T//cceIFtrC.s:6515   .bss.fft_buf_index:0000000000000000 $d
/var/folders/hl/qgbwny5j0fd895c2c41bk3tw0000gp/T//cceIFtrC.s:6522   .bss.hw:0000000000000000 $d
/var/folders/hl/qgbwny5j0fd895c2c41bk3tw0000gp/T//cceIFtrC.s:6529   .bss.ifft_buf_index:0000000000000000 $d
/var/folders/hl/qgbwny5j0fd895c2c41bk3tw0000gp/T//cceIFtrC.s:6536   .bss.output:0000000000000000 $d
/var/folders/hl/qgbwny5j0fd895c2c41bk3tw0000gp/T//cceIFtrC.s:6543   .bss.pb:0000000000000000 $d
/var/folders/hl/qgbwny5j0fd895c2c41bk3tw0000gp/T//cceIFtrC.s:6550   .bss.ps_amt:0000000000000000 $d
/var/folders/hl/qgbwny5j0fd895c2c41bk3tw0000gp/T//cceIFtrC.s:6557   .data.fft:0000000000000000 $d
                           .group:0000000000000000 _ZN5daisy8patch_sm12DaisyPatchSMD5Ev
                           .group:0000000000000000 _ZN5daisy11OledDisplayINS_13SSD130xDriverILj128ELj64ENS_19SSD130xI2CTransportEEEED5Ev
                           .group:0000000000000000 _ZN5daisy9Patch_BayD5Ev

UNDEFINED SYMBOLS
memset
_ZdlPvj
_ZN5daisy9I2CHandle16TransmitBlockingEtPhtm
_ZN5daisy8patch_sm12DaisyPatchSM21ProcessAnalogControlsEv
_ZN5daisy8patch_sm12DaisyPatchSM22ProcessDigitalControlsEv
_ZN5daisy8patch_sm12DaisyPatchSM11GetAdcValueEi
cosf
sinf
_ZN5daisy8patch_sm12DaisyPatchSM4InitEv
_ZN5daisy8patch_sm12DaisyPatchSM17SetAudioBlockSizeEj
_ZN5daisy9Patch_Bay4InitEv
_ZN5daisy8patch_sm12DaisyPatchSM18SetAudioSampleRateENS_9SaiHandle6Config10SampleRateE
_ZN5daisy8patch_sm12DaisyPatchSM10StartAudioEPFvPKPKfPPfjE
arm_rfft_fast_f32
__aeabi_atexit
__dso_handle
twiddleCoef_512
armBitRevIndexTable512
twiddleCoef_rfft_1024
