ARM GAS  /var/folders/hl/qgbwny5j0fd895c2c41bk3tw0000gp/T//cceIFtrC.s 			page 1


   1              		.cpu cortex-m7
   2              		.eabi_attribute 28, 1
   3              		.eabi_attribute 20, 1
   4              		.eabi_attribute 21, 1
   5              		.eabi_attribute 23, 3
   6              		.eabi_attribute 24, 1
   7              		.eabi_attribute 25, 1
   8              		.eabi_attribute 26, 1
   9              		.eabi_attribute 30, 2
  10              		.eabi_attribute 34, 1
  11              		.eabi_attribute 18, 4
  12              		.file	"ifft.cpp"
  13              		.text
  14              	.Ltext0:
  15              		.cfi_sections	.debug_frame
  16              		.section	.text._ZN5daisy8patch_sm12DaisyPatchSMD2Ev,"axG",%progbits,_ZN5daisy8patch_sm12DaisyPatch
  17              		.align	1
  18              		.p2align 2,,3
  19              		.weak	_ZN5daisy8patch_sm12DaisyPatchSMD2Ev
  20              		.arch armv7e-m
  21              		.syntax unified
  22              		.thumb
  23              		.thumb_func
  24              		.fpu fpv5-d16
  26              	_ZN5daisy8patch_sm12DaisyPatchSMD2Ev:
  27              	.LVL0:
  28              	.LFB2529:
  29              		.file 1 "../../libDaisy//src/daisy_patch_sm.h"
   1:../../libDaisy//src/daisy_patch_sm.h **** #pragma once
   2:../../libDaisy//src/daisy_patch_sm.h **** 
   3:../../libDaisy//src/daisy_patch_sm.h **** #include "daisy.h"
   4:../../libDaisy//src/daisy_patch_sm.h **** 
   5:../../libDaisy//src/daisy_patch_sm.h **** namespace daisy
   6:../../libDaisy//src/daisy_patch_sm.h **** {
   7:../../libDaisy//src/daisy_patch_sm.h **** namespace patch_sm
   8:../../libDaisy//src/daisy_patch_sm.h **** {
   9:../../libDaisy//src/daisy_patch_sm.h ****     /** Accessors for the Analog Controls. 
  10:../../libDaisy//src/daisy_patch_sm.h ****      *  These cover the 8x Bipolar CV inputs
  11:../../libDaisy//src/daisy_patch_sm.h ****      *  as well as the 4x 0-3V3 ADC inputs on
  12:../../libDaisy//src/daisy_patch_sm.h ****      *  the hardware 
  13:../../libDaisy//src/daisy_patch_sm.h ****      * 
  14:../../libDaisy//src/daisy_patch_sm.h ****      *  When reading a value with DaisyPatchSM::GetAdcValue()
  15:../../libDaisy//src/daisy_patch_sm.h ****      * 
  16:../../libDaisy//src/daisy_patch_sm.h ****      *  patch.GetAdcValue(patch_sm::CV_1);
  17:../../libDaisy//src/daisy_patch_sm.h ****      */
  18:../../libDaisy//src/daisy_patch_sm.h ****     enum
  19:../../libDaisy//src/daisy_patch_sm.h ****     {
  20:../../libDaisy//src/daisy_patch_sm.h ****         CV_1 = 0,
  21:../../libDaisy//src/daisy_patch_sm.h ****         CV_2,
  22:../../libDaisy//src/daisy_patch_sm.h ****         CV_3,
  23:../../libDaisy//src/daisy_patch_sm.h ****         CV_4,
  24:../../libDaisy//src/daisy_patch_sm.h ****         CV_5,
  25:../../libDaisy//src/daisy_patch_sm.h ****         CV_6,
  26:../../libDaisy//src/daisy_patch_sm.h ****         CV_7,
  27:../../libDaisy//src/daisy_patch_sm.h ****         CV_8,
  28:../../libDaisy//src/daisy_patch_sm.h ****         ADC_9,
  29:../../libDaisy//src/daisy_patch_sm.h ****         ADC_10,
ARM GAS  /var/folders/hl/qgbwny5j0fd895c2c41bk3tw0000gp/T//cceIFtrC.s 			page 2


  30:../../libDaisy//src/daisy_patch_sm.h ****         ADC_11,
  31:../../libDaisy//src/daisy_patch_sm.h ****         ADC_12,
  32:../../libDaisy//src/daisy_patch_sm.h ****         ADC_LAST,
  33:../../libDaisy//src/daisy_patch_sm.h ****     };
  34:../../libDaisy//src/daisy_patch_sm.h **** 
  35:../../libDaisy//src/daisy_patch_sm.h ****     /** Enum for addressing the CV Outputs via the WriteCvOut function. */
  36:../../libDaisy//src/daisy_patch_sm.h ****     enum
  37:../../libDaisy//src/daisy_patch_sm.h ****     {
  38:../../libDaisy//src/daisy_patch_sm.h ****         CV_OUT_BOTH = 0,
  39:../../libDaisy//src/daisy_patch_sm.h ****         CV_OUT_1,
  40:../../libDaisy//src/daisy_patch_sm.h ****         CV_OUT_2,
  41:../../libDaisy//src/daisy_patch_sm.h ****     };
  42:../../libDaisy//src/daisy_patch_sm.h **** 
  43:../../libDaisy//src/daisy_patch_sm.h **** 
  44:../../libDaisy//src/daisy_patch_sm.h ****     /** @brief Board support file for DaisyPatchSM hardware
  45:../../libDaisy//src/daisy_patch_sm.h ****      *  @author shensley
  46:../../libDaisy//src/daisy_patch_sm.h ****      *  @ingroup boards
  47:../../libDaisy//src/daisy_patch_sm.h ****      * 
  48:../../libDaisy//src/daisy_patch_sm.h ****      *  Daisy Patch SM is a complete Eurorack module DSP engine.
  49:../../libDaisy//src/daisy_patch_sm.h ****      *  Based on the Daisy Seed, with circuits added for 
  50:../../libDaisy//src/daisy_patch_sm.h ****      *  interfacing directly with eurorack modular synthesizers.
  51:../../libDaisy//src/daisy_patch_sm.h ****      */
  52:../../libDaisy//src/daisy_patch_sm.h ****     class DaisyPatchSM
  53:../../libDaisy//src/daisy_patch_sm.h ****     {
  54:../../libDaisy//src/daisy_patch_sm.h ****       public:
  55:../../libDaisy//src/daisy_patch_sm.h ****         /** Helper for mapping pins, and accessing them using the `GetPin` function */
  56:../../libDaisy//src/daisy_patch_sm.h ****         enum class PinBank
  57:../../libDaisy//src/daisy_patch_sm.h ****         {
  58:../../libDaisy//src/daisy_patch_sm.h ****             A,
  59:../../libDaisy//src/daisy_patch_sm.h ****             B,
  60:../../libDaisy//src/daisy_patch_sm.h ****             C,
  61:../../libDaisy//src/daisy_patch_sm.h ****             D
  62:../../libDaisy//src/daisy_patch_sm.h ****         };
  63:../../libDaisy//src/daisy_patch_sm.h **** 
  64:../../libDaisy//src/daisy_patch_sm.h ****         DaisyPatchSM() {}
  65:../../libDaisy//src/daisy_patch_sm.h ****         ~DaisyPatchSM() {}
  30              		.loc 1 65 9 view -0
  31              		.cfi_startproc
  32              		@ args = 0, pretend = 0, frame = 0
  33              		@ frame_needed = 0, uses_anonymous_args = 0
  34              		@ link register save eliminated.
  35              	.LBB478:
  36              	.LBI478:
  37              		.file 2 "../../libDaisy//src/hid/gatein.h"
   1:../../libDaisy//src/hid/gatein.h **** #pragma once
   2:../../libDaisy//src/hid/gatein.h **** #ifndef DSY_GATEIN_H
   3:../../libDaisy//src/hid/gatein.h **** #define DSY_GATEIN_H
   4:../../libDaisy//src/hid/gatein.h **** #include "per/gpio.h"
   5:../../libDaisy//src/hid/gatein.h **** 
   6:../../libDaisy//src/hid/gatein.h **** namespace daisy
   7:../../libDaisy//src/hid/gatein.h **** {
   8:../../libDaisy//src/hid/gatein.h **** /**
   9:../../libDaisy//src/hid/gatein.h ****    @brief Generic Class for handling gate inputs through GPIO.
  10:../../libDaisy//src/hid/gatein.h ****    @author Stephen Hensley
  11:../../libDaisy//src/hid/gatein.h ****    @date    March 2020
  12:../../libDaisy//src/hid/gatein.h ****    @ingroup controls
  13:../../libDaisy//src/hid/gatein.h **** */
ARM GAS  /var/folders/hl/qgbwny5j0fd895c2c41bk3tw0000gp/T//cceIFtrC.s 			page 3


  14:../../libDaisy//src/hid/gatein.h **** class GateIn
  15:../../libDaisy//src/hid/gatein.h **** {
  16:../../libDaisy//src/hid/gatein.h ****   public:
  17:../../libDaisy//src/hid/gatein.h ****     /** GateIn 
  18:../../libDaisy//src/hid/gatein.h ****     Constructor 
  19:../../libDaisy//src/hid/gatein.h ****     */
  20:../../libDaisy//src/hid/gatein.h ****     GateIn() {}
  21:../../libDaisy//src/hid/gatein.h ****     /** GateIn~
  22:../../libDaisy//src/hid/gatein.h ****     Destructor 
  23:../../libDaisy//src/hid/gatein.h ****     */
  24:../../libDaisy//src/hid/gatein.h ****     ~GateIn() {}
  38              		.loc 2 24 5 view .LVU1
  39              		.loc 2 24 5 is_stmt 0 view .LVU2
  40              	.LBE478:
  41              	.LBB479:
  42              	.LBI479:
  43              		.loc 2 24 5 is_stmt 1 view .LVU3
  44              		.loc 2 24 5 is_stmt 0 view .LVU4
  45              	.LBE479:
  46              	.LBB480:
  47              	.LBI480:
  48              		.file 3 "../../libDaisy//src/dev/codec_pcm3060.h"
   1:../../libDaisy//src/dev/codec_pcm3060.h **** #pragma once
   2:../../libDaisy//src/dev/codec_pcm3060.h **** #ifndef DSY_CODEC_PCM3060_H
   3:../../libDaisy//src/dev/codec_pcm3060.h **** #define DSY_CODEC_PCM3060_H
   4:../../libDaisy//src/dev/codec_pcm3060.h **** #include "per/i2c.h"
   5:../../libDaisy//src/dev/codec_pcm3060.h **** namespace daisy
   6:../../libDaisy//src/dev/codec_pcm3060.h **** {
   7:../../libDaisy//src/dev/codec_pcm3060.h **** /**
   8:../../libDaisy//src/dev/codec_pcm3060.h ****  * @brief Driver for the TI PCM3060 Audio Codec.
   9:../../libDaisy//src/dev/codec_pcm3060.h ****  * @addtogroup codec
  10:../../libDaisy//src/dev/codec_pcm3060.h ****  * 
  11:../../libDaisy//src/dev/codec_pcm3060.h ****  * For now this is a limited interface that uses I2C to communicate with the PCM3060
  12:../../libDaisy//src/dev/codec_pcm3060.h ****  * The device can also be accessed with SPI, which is not yet supported.
  13:../../libDaisy//src/dev/codec_pcm3060.h ****  * 
  14:../../libDaisy//src/dev/codec_pcm3060.h ****  * For now all registers are set to their defaults, and the Init function will 
  15:../../libDaisy//src/dev/codec_pcm3060.h ****  * perform a MRST and SRST before setting the format to 24bit LJ, and disabling 
  16:../../libDaisy//src/dev/codec_pcm3060.h ****  * power save for both the ADC and DAC.
  17:../../libDaisy//src/dev/codec_pcm3060.h ****  *
  18:../../libDaisy//src/dev/codec_pcm3060.h ****  */
  19:../../libDaisy//src/dev/codec_pcm3060.h **** class Pcm3060
  20:../../libDaisy//src/dev/codec_pcm3060.h **** {
  21:../../libDaisy//src/dev/codec_pcm3060.h ****   public:
  22:../../libDaisy//src/dev/codec_pcm3060.h ****     enum class Result
  23:../../libDaisy//src/dev/codec_pcm3060.h ****     {
  24:../../libDaisy//src/dev/codec_pcm3060.h ****         OK,
  25:../../libDaisy//src/dev/codec_pcm3060.h ****         ERR,
  26:../../libDaisy//src/dev/codec_pcm3060.h ****     };
  27:../../libDaisy//src/dev/codec_pcm3060.h **** 
  28:../../libDaisy//src/dev/codec_pcm3060.h ****     Pcm3060() {}
  29:../../libDaisy//src/dev/codec_pcm3060.h ****     ~Pcm3060() {}
  49              		.loc 3 29 5 is_stmt 1 view .LVU5
  50              		.loc 3 29 5 is_stmt 0 view .LVU6
  51              	.LBE480:
  52              	.LBB481:
  53              	.LBI481:
  54              		.file 4 "../../libDaisy//src/hid/usb.h"
ARM GAS  /var/folders/hl/qgbwny5j0fd895c2c41bk3tw0000gp/T//cceIFtrC.s 			page 4


   1:../../libDaisy//src/hid/usb.h **** #pragma once
   2:../../libDaisy//src/hid/usb.h **** #ifndef DSY_HID_USB_H
   3:../../libDaisy//src/hid/usb.h **** #define DSY_HID_USB_H
   4:../../libDaisy//src/hid/usb.h **** #include <stdint.h>
   5:../../libDaisy//src/hid/usb.h **** #include <stdlib.h>
   6:../../libDaisy//src/hid/usb.h **** 
   7:../../libDaisy//src/hid/usb.h **** namespace daisy
   8:../../libDaisy//src/hid/usb.h **** /** @addtogroup human_interface
   9:../../libDaisy//src/hid/usb.h ****     @{
  10:../../libDaisy//src/hid/usb.h **** */
  11:../../libDaisy//src/hid/usb.h **** 
  12:../../libDaisy//src/hid/usb.h **** {
  13:../../libDaisy//src/hid/usb.h **** /** 
  14:../../libDaisy//src/hid/usb.h ****     @brief Interface for initializing and using the USB Peripherals on the daisy
  15:../../libDaisy//src/hid/usb.h ****     @author Stephen Hensley
  16:../../libDaisy//src/hid/usb.h ****     @date December 2019
  17:../../libDaisy//src/hid/usb.h **** */
  18:../../libDaisy//src/hid/usb.h **** class UsbHandle
  19:../../libDaisy//src/hid/usb.h **** {
  20:../../libDaisy//src/hid/usb.h ****   public:
  21:../../libDaisy//src/hid/usb.h ****     /** Return values for USBHandle Functions */
  22:../../libDaisy//src/hid/usb.h ****     enum class Result
  23:../../libDaisy//src/hid/usb.h ****     {
  24:../../libDaisy//src/hid/usb.h ****         OK,
  25:../../libDaisy//src/hid/usb.h ****         ERR,
  26:../../libDaisy//src/hid/usb.h ****     };
  27:../../libDaisy//src/hid/usb.h **** 
  28:../../libDaisy//src/hid/usb.h ****     /** Specified which of the two USB Peripherals to initialize. */
  29:../../libDaisy//src/hid/usb.h ****     enum UsbPeriph
  30:../../libDaisy//src/hid/usb.h ****     {
  31:../../libDaisy//src/hid/usb.h ****         FS_INTERNAL, /**< Internal pin */
  32:../../libDaisy//src/hid/usb.h ****         FS_EXTERNAL, /**< FS External D+ pin is Pin 38 (GPIO32). FS External D- pin is Pin 37 (GPIO
  33:../../libDaisy//src/hid/usb.h ****         FS_BOTH,     /**< Both */
  34:../../libDaisy//src/hid/usb.h ****     };
  35:../../libDaisy//src/hid/usb.h **** 
  36:../../libDaisy//src/hid/usb.h **** 
  37:../../libDaisy//src/hid/usb.h ****     /** Function called upon reception of a buffer */
  38:../../libDaisy//src/hid/usb.h ****     typedef void (*ReceiveCallback)(uint8_t* buff, uint32_t* len);
  39:../../libDaisy//src/hid/usb.h **** 
  40:../../libDaisy//src/hid/usb.h ****     UsbHandle() {}
  41:../../libDaisy//src/hid/usb.h **** 
  42:../../libDaisy//src/hid/usb.h ****     ~UsbHandle() {}
  55              		.loc 4 42 5 is_stmt 1 view .LVU7
  56              		.loc 4 42 5 is_stmt 0 view .LVU8
  57              	.LBE481:
  58              	.LBB482:
  59              	.LBI482:
  60              		.file 5 "../../libDaisy//src/per/adc.h"
   1:../../libDaisy//src/per/adc.h **** #pragma once
   2:../../libDaisy//src/per/adc.h **** #ifndef DSY_ADC_H
   3:../../libDaisy//src/per/adc.h **** #define DSY_ADC_H /**< Macro */
   4:../../libDaisy//src/per/adc.h **** #include <stdint.h>
   5:../../libDaisy//src/per/adc.h **** #include <stdlib.h>
   6:../../libDaisy//src/per/adc.h **** #include "daisy_core.h"
   7:../../libDaisy//src/per/adc.h **** #include "per/gpio.h"
   8:../../libDaisy//src/per/adc.h **** 
   9:../../libDaisy//src/per/adc.h **** #define DSY_ADC_MAX_CHANNELS 16 /**< Maximum number of ADC channels */
ARM GAS  /var/folders/hl/qgbwny5j0fd895c2c41bk3tw0000gp/T//cceIFtrC.s 			page 5


  10:../../libDaisy//src/per/adc.h **** 
  11:../../libDaisy//src/per/adc.h **** namespace daisy
  12:../../libDaisy//src/per/adc.h **** {
  13:../../libDaisy//src/per/adc.h **** /** @addtogroup per_analog
  14:../../libDaisy//src/per/adc.h ****     @{
  15:../../libDaisy//src/per/adc.h **** */
  16:../../libDaisy//src/per/adc.h **** 
  17:../../libDaisy//src/per/adc.h **** /* While there may not be many configuration options here,
  18:../../libDaisy//src/per/adc.h **** using a struct like this allows us to add more configuration
  19:../../libDaisy//src/per/adc.h **** later without breaking existing functionality.
  20:../../libDaisy//src/per/adc.h **** */
  21:../../libDaisy//src/per/adc.h **** 
  22:../../libDaisy//src/per/adc.h **** /** @brief   Configuration Structure for an ADC Channel 
  23:../../libDaisy//src/per/adc.h ****  *  @details This can be used to configure a a single input, 
  24:../../libDaisy//src/per/adc.h ****  *           or a multiplexed input, allowing up to 8 inputs on 
  25:../../libDaisy//src/per/adc.h ****  *           one channel.
  26:../../libDaisy//src/per/adc.h ****  *  @note    Sharing data lines to multiple muxes _is_ possible, but
  27:../../libDaisy//src/per/adc.h ****  *           each channel sharing data lines must be set to the maximum
  28:../../libDaisy//src/per/adc.h ****  *           number of channels, even if some multiplexers have fewer
  29:../../libDaisy//src/per/adc.h ****  *           inputs connected.
  30:../../libDaisy//src/per/adc.h **** */
  31:../../libDaisy//src/per/adc.h **** struct AdcChannelConfig
  32:../../libDaisy//src/per/adc.h **** {
  33:../../libDaisy//src/per/adc.h ****     /** Which pin to use for multiplexing */
  34:../../libDaisy//src/per/adc.h ****     enum MuxPin
  35:../../libDaisy//src/per/adc.h ****     {
  36:../../libDaisy//src/per/adc.h ****         MUX_SEL_0,    /**< & */
  37:../../libDaisy//src/per/adc.h ****         MUX_SEL_1,    /**< & */
  38:../../libDaisy//src/per/adc.h ****         MUX_SEL_2,    /**< & */
  39:../../libDaisy//src/per/adc.h ****         MUX_SEL_LAST, /**< & */
  40:../../libDaisy//src/per/adc.h ****     };
  41:../../libDaisy//src/per/adc.h **** 
  42:../../libDaisy//src/per/adc.h ****     /** Initializes a single ADC pin as an ADC. 
  43:../../libDaisy//src/per/adc.h ****     \param pin Pin to init.
  44:../../libDaisy//src/per/adc.h ****      */
  45:../../libDaisy//src/per/adc.h ****     void InitSingle(dsy_gpio_pin pin);
  46:../../libDaisy//src/per/adc.h **** 
  47:../../libDaisy//src/per/adc.h ****     /** 
  48:../../libDaisy//src/per/adc.h ****     Initializes a single ADC pin as a Multiplexed ADC.
  49:../../libDaisy//src/per/adc.h ****     Requires a CD405X Multiplexer connected to the pin.
  50:../../libDaisy//src/per/adc.h ****     You only need to supply the mux pins that are required,
  51:../../libDaisy//src/per/adc.h ****     e.g. a 4052 mux would only require mux_0 and mux_1.
  52:../../libDaisy//src/per/adc.h ****     Internal Callbacks handle the pin addressing.
  53:../../libDaisy//src/per/adc.h ****     \param mux_channels must be 1-8
  54:../../libDaisy//src/per/adc.h ****     \param mux_0 First mux pin
  55:../../libDaisy//src/per/adc.h ****     \param mux_1 Second mux pin
  56:../../libDaisy//src/per/adc.h ****     \param mux_2 Third mux pin
  57:../../libDaisy//src/per/adc.h ****     \param adc_pin &
  58:../../libDaisy//src/per/adc.h ****     */
  59:../../libDaisy//src/per/adc.h ****     void InitMux(dsy_gpio_pin adc_pin,
  60:../../libDaisy//src/per/adc.h ****                  size_t       mux_channels,
  61:../../libDaisy//src/per/adc.h ****                  dsy_gpio_pin mux_0,
  62:../../libDaisy//src/per/adc.h ****                  dsy_gpio_pin mux_1 = {DSY_GPIOX, 0},
  63:../../libDaisy//src/per/adc.h ****                  dsy_gpio_pin mux_2 = {DSY_GPIOX, 0});
  64:../../libDaisy//src/per/adc.h **** 
  65:../../libDaisy//src/per/adc.h ****     dsy_gpio pin_;                   /**< & */
  66:../../libDaisy//src/per/adc.h ****     dsy_gpio mux_pin_[MUX_SEL_LAST]; /**< & */
ARM GAS  /var/folders/hl/qgbwny5j0fd895c2c41bk3tw0000gp/T//cceIFtrC.s 			page 6


  67:../../libDaisy//src/per/adc.h ****     uint8_t  mux_channels_;          /**< & */
  68:../../libDaisy//src/per/adc.h **** };
  69:../../libDaisy//src/per/adc.h **** 
  70:../../libDaisy//src/per/adc.h **** /**
  71:../../libDaisy//src/per/adc.h ****    @brief Handler for analog to digital conversion
  72:../../libDaisy//src/per/adc.h **** */
  73:../../libDaisy//src/per/adc.h **** class AdcHandle
  74:../../libDaisy//src/per/adc.h **** {
  75:../../libDaisy//src/per/adc.h ****   public:
  76:../../libDaisy//src/per/adc.h ****     /** Supported oversampling amounts */
  77:../../libDaisy//src/per/adc.h ****     enum OverSampling
  78:../../libDaisy//src/per/adc.h ****     {
  79:../../libDaisy//src/per/adc.h ****         OVS_NONE, /**< & */
  80:../../libDaisy//src/per/adc.h ****         OVS_4,    /**< & */
  81:../../libDaisy//src/per/adc.h ****         OVS_8,    /**< & */
  82:../../libDaisy//src/per/adc.h ****         OVS_16,   /**< & */
  83:../../libDaisy//src/per/adc.h ****         OVS_32,   /**< & */
  84:../../libDaisy//src/per/adc.h ****         OVS_64,   /**< & */
  85:../../libDaisy//src/per/adc.h ****         OVS_128,  /**< & */
  86:../../libDaisy//src/per/adc.h ****         OVS_256,  /**< & */
  87:../../libDaisy//src/per/adc.h ****         OVS_512,  /**< & */
  88:../../libDaisy//src/per/adc.h ****         OVS_1024, /**< & */
  89:../../libDaisy//src/per/adc.h ****         OVS_LAST, /**< & */
  90:../../libDaisy//src/per/adc.h ****     };
  91:../../libDaisy//src/per/adc.h **** 
  92:../../libDaisy//src/per/adc.h ****     AdcHandle() {}
  93:../../libDaisy//src/per/adc.h ****     ~AdcHandle() {}
  61              		.loc 5 93 5 is_stmt 1 view .LVU9
  62              		.loc 5 93 5 is_stmt 0 view .LVU10
  63              	.LBE482:
  64              	.LBB483:
  65              	.LBI483:
  66              		.file 6 "../../libDaisy//src/hid/audio.h"
   1:../../libDaisy//src/hid/audio.h **** #ifndef DSY_AUDIO_H
   2:../../libDaisy//src/hid/audio.h **** #define DSY_AUDIO_H /**< & */
   3:../../libDaisy//src/hid/audio.h **** 
   4:../../libDaisy//src/hid/audio.h **** #include "per/sai.h"
   5:../../libDaisy//src/hid/audio.h **** 
   6:../../libDaisy//src/hid/audio.h **** namespace daisy
   7:../../libDaisy//src/hid/audio.h **** {
   8:../../libDaisy//src/hid/audio.h **** /** @brief Audio Engine Handle
   9:../../libDaisy//src/hid/audio.h ****  *  @ingroup audio 
  10:../../libDaisy//src/hid/audio.h ****  *  @details This class allows for higher level access to an audio engine.
  11:../../libDaisy//src/hid/audio.h ****  *           If you're using a SOM like the DaisySeed or DaisyPatchSM (or any 
  12:../../libDaisy//src/hid/audio.h ****  *            board that includes one of those objects) then the intialization
  13:../../libDaisy//src/hid/audio.h ****  *            is already taken  care of.
  14:../../libDaisy//src/hid/audio.h ****  *           If you're setting up your own custom hardware, or need to make changes
  15:../../libDaisy//src/hid/audio.h ****  *           you will have to take the following steps:
  16:../../libDaisy//src/hid/audio.h ****  *             1. Create and Initialize an SaiHandle or two depending on your requirements
  17:../../libDaisy//src/hid/audio.h ****  *             2. Initialize the Audio Handle with the desired settings and the Initialized SaiHand
  18:../../libDaisy//src/hid/audio.h ****  *             3. If the connected codec requires special configuration or initialization, do so
  19:../../libDaisy//src/hid/audio.h ****  *             4. Write a callback method using either the AudioCallback or the InterleavingAudioCa
  20:../../libDaisy//src/hid/audio.h ****  *             5. Start the Audio using one of the StartAudio function
  21:../../libDaisy//src/hid/audio.h ****  */
  22:../../libDaisy//src/hid/audio.h **** class AudioHandle
  23:../../libDaisy//src/hid/audio.h **** {
  24:../../libDaisy//src/hid/audio.h ****   public:
ARM GAS  /var/folders/hl/qgbwny5j0fd895c2c41bk3tw0000gp/T//cceIFtrC.s 			page 7


  25:../../libDaisy//src/hid/audio.h ****     /** Manually configurable details about the Audio Engine */
  26:../../libDaisy//src/hid/audio.h ****     /** TODO: Figure out how to get samplerate in here. */
  27:../../libDaisy//src/hid/audio.h ****     struct Config
  28:../../libDaisy//src/hid/audio.h ****     {
  29:../../libDaisy//src/hid/audio.h ****         /** number of samples to process per callback */
  30:../../libDaisy//src/hid/audio.h ****         size_t blocksize;
  31:../../libDaisy//src/hid/audio.h **** 
  32:../../libDaisy//src/hid/audio.h ****         /**< Sample rate of audio */
  33:../../libDaisy//src/hid/audio.h ****         SaiHandle::Config::SampleRate samplerate;
  34:../../libDaisy//src/hid/audio.h **** 
  35:../../libDaisy//src/hid/audio.h ****         /** factor for adjustment before and after callback for hardware that may have extra headro
  36:../../libDaisy//src/hid/audio.h ****         float postgain;
  37:../../libDaisy//src/hid/audio.h **** 
  38:../../libDaisy//src/hid/audio.h ****         /** factor for additional one-sided compensation to audio path for hardware that may
  39:../../libDaisy//src/hid/audio.h ****          *  have unequal input/output ranges
  40:../../libDaisy//src/hid/audio.h ****          */
  41:../../libDaisy//src/hid/audio.h ****         float output_compensation;
  42:../../libDaisy//src/hid/audio.h **** 
  43:../../libDaisy//src/hid/audio.h ****         /** Sets default values for config struct */
  44:../../libDaisy//src/hid/audio.h ****         Config()
  45:../../libDaisy//src/hid/audio.h ****         : blocksize(48),
  46:../../libDaisy//src/hid/audio.h ****           samplerate(SaiHandle::Config::SampleRate::SAI_48KHZ),
  47:../../libDaisy//src/hid/audio.h ****           postgain(1.f),
  48:../../libDaisy//src/hid/audio.h ****           output_compensation(1.f)
  49:../../libDaisy//src/hid/audio.h ****         {
  50:../../libDaisy//src/hid/audio.h ****         }
  51:../../libDaisy//src/hid/audio.h ****     };
  52:../../libDaisy//src/hid/audio.h **** 
  53:../../libDaisy//src/hid/audio.h ****     enum class Result
  54:../../libDaisy//src/hid/audio.h ****     {
  55:../../libDaisy//src/hid/audio.h ****         OK,
  56:../../libDaisy//src/hid/audio.h ****         ERR,
  57:../../libDaisy//src/hid/audio.h ****     };
  58:../../libDaisy//src/hid/audio.h **** 
  59:../../libDaisy//src/hid/audio.h ****     /** Non-Interleaving input buffer
  60:../../libDaisy//src/hid/audio.h ****      * Buffer arranged by float[chn][sample] 
  61:../../libDaisy//src/hid/audio.h ****      * const so that the user can't modify the input
  62:../../libDaisy//src/hid/audio.h ****      */
  63:../../libDaisy//src/hid/audio.h ****     typedef const float* const* InputBuffer;
  64:../../libDaisy//src/hid/audio.h **** 
  65:../../libDaisy//src/hid/audio.h ****     /** Non-Interleaving output buffer
  66:../../libDaisy//src/hid/audio.h ****      * Arranged by float[chn][sample] 
  67:../../libDaisy//src/hid/audio.h ****      */
  68:../../libDaisy//src/hid/audio.h ****     typedef float** OutputBuffer;
  69:../../libDaisy//src/hid/audio.h **** 
  70:../../libDaisy//src/hid/audio.h ****     /** Type for a Non-Interleaving audio callback 
  71:../../libDaisy//src/hid/audio.h ****      * Non-Interleaving audio callbacks in daisy will be of this type
  72:../../libDaisy//src/hid/audio.h ****      */
  73:../../libDaisy//src/hid/audio.h ****     typedef void (*AudioCallback)(InputBuffer  in,
  74:../../libDaisy//src/hid/audio.h ****                                   OutputBuffer out,
  75:../../libDaisy//src/hid/audio.h ****                                   size_t       size);
  76:../../libDaisy//src/hid/audio.h **** 
  77:../../libDaisy//src/hid/audio.h ****     /** Interleaving Input buffer
  78:../../libDaisy//src/hid/audio.h ****      ** audio is prepared as { L0, R0, L1, R1, . . . LN, RN }]
  79:../../libDaisy//src/hid/audio.h ****      ** this is const, as the user shouldn't modify it
  80:../../libDaisy//src/hid/audio.h ****     */
  81:../../libDaisy//src/hid/audio.h ****     typedef const float* InterleavingInputBuffer;
ARM GAS  /var/folders/hl/qgbwny5j0fd895c2c41bk3tw0000gp/T//cceIFtrC.s 			page 8


  82:../../libDaisy//src/hid/audio.h **** 
  83:../../libDaisy//src/hid/audio.h ****     /** Interleaving Output buffer 
  84:../../libDaisy//src/hid/audio.h ****      ** audio is prepared as { L0, R0, L1, R1, . . . LN, RN }
  85:../../libDaisy//src/hid/audio.h ****     */
  86:../../libDaisy//src/hid/audio.h ****     typedef float* InterleavingOutputBuffer;
  87:../../libDaisy//src/hid/audio.h **** 
  88:../../libDaisy//src/hid/audio.h ****     /** Interleaving Audio Callback 
  89:../../libDaisy//src/hid/audio.h ****      * Interleaving audio callbacks in daisy must be of this type
  90:../../libDaisy//src/hid/audio.h ****      */
  91:../../libDaisy//src/hid/audio.h ****     typedef void (*InterleavingAudioCallback)(InterleavingInputBuffer  in,
  92:../../libDaisy//src/hid/audio.h ****                                               InterleavingOutputBuffer out,
  93:../../libDaisy//src/hid/audio.h ****                                               size_t                   size);
  94:../../libDaisy//src/hid/audio.h **** 
  95:../../libDaisy//src/hid/audio.h ****     AudioHandle() : pimpl_(nullptr) {}
  96:../../libDaisy//src/hid/audio.h ****     ~AudioHandle() {}
  67              		.loc 6 96 5 is_stmt 1 view .LVU11
  68              		.loc 6 96 5 is_stmt 0 view .LVU12
  69              	.LBE483:
  70              	.LBB484:
  71              	.LBI484:
  72              		.file 7 "../../libDaisy//src/sys/system.h"
   1:../../libDaisy//src/sys/system.h **** #ifndef DSY_SYSTEM_H
   2:../../libDaisy//src/sys/system.h **** #define DSY_SYSTEM_H
   3:../../libDaisy//src/sys/system.h **** 
   4:../../libDaisy//src/sys/system.h **** #ifndef UNIT_TEST // for unit tests, a dummy implementation is provided below
   5:../../libDaisy//src/sys/system.h **** 
   6:../../libDaisy//src/sys/system.h **** #include <cstdint>
   7:../../libDaisy//src/sys/system.h **** #include "per/tim.h"
   8:../../libDaisy//src/sys/system.h **** 
   9:../../libDaisy//src/sys/system.h **** namespace daisy
  10:../../libDaisy//src/sys/system.h **** {
  11:../../libDaisy//src/sys/system.h **** /** A handle for interacting with the Core System. 
  12:../../libDaisy//src/sys/system.h ****  ** This includes the Clock tree, MPU, global DMA initialization,
  13:../../libDaisy//src/sys/system.h ****  ** cache handling, and any other necessary global initiailzation
  14:../../libDaisy//src/sys/system.h ****  **
  15:../../libDaisy//src/sys/system.h ****  ** @author shensley
  16:../../libDaisy//src/sys/system.h ****  ** @ingroup system
  17:../../libDaisy//src/sys/system.h ****  */
  18:../../libDaisy//src/sys/system.h **** class System
  19:../../libDaisy//src/sys/system.h **** {
  20:../../libDaisy//src/sys/system.h ****   public:
  21:../../libDaisy//src/sys/system.h ****     /** Contains settings for initializing the System */
  22:../../libDaisy//src/sys/system.h ****     struct Config
  23:../../libDaisy//src/sys/system.h ****     {
  24:../../libDaisy//src/sys/system.h ****         /** Specifies the system clock frequency that feeds APB/AHB clocks, etc. */
  25:../../libDaisy//src/sys/system.h ****         enum class SysClkFreq
  26:../../libDaisy//src/sys/system.h ****         {
  27:../../libDaisy//src/sys/system.h ****             FREQ_400MHZ,
  28:../../libDaisy//src/sys/system.h ****             FREQ_480MHZ,
  29:../../libDaisy//src/sys/system.h ****         };
  30:../../libDaisy//src/sys/system.h **** 
  31:../../libDaisy//src/sys/system.h ****         /** Method to call on the struct to set to defaults
  32:../../libDaisy//src/sys/system.h ****          ** CPU Freq set to 400MHz
  33:../../libDaisy//src/sys/system.h ****          ** Cache Enabled 
  34:../../libDaisy//src/sys/system.h ****          ** */
  35:../../libDaisy//src/sys/system.h ****         void Defaults()
  36:../../libDaisy//src/sys/system.h ****         {
ARM GAS  /var/folders/hl/qgbwny5j0fd895c2c41bk3tw0000gp/T//cceIFtrC.s 			page 9


  37:../../libDaisy//src/sys/system.h ****             cpu_freq    = SysClkFreq::FREQ_400MHZ;
  38:../../libDaisy//src/sys/system.h ****             use_dcache  = true;
  39:../../libDaisy//src/sys/system.h ****             use_icache  = true;
  40:../../libDaisy//src/sys/system.h ****             skip_clocks = false;
  41:../../libDaisy//src/sys/system.h ****         }
  42:../../libDaisy//src/sys/system.h **** 
  43:../../libDaisy//src/sys/system.h ****         /** Method to call on the struct to set to boost mode:
  44:../../libDaisy//src/sys/system.h ****          ** CPU Freq set to 480MHz
  45:../../libDaisy//src/sys/system.h ****          ** Cache Enabled 
  46:../../libDaisy//src/sys/system.h ****          ** */
  47:../../libDaisy//src/sys/system.h ****         void Boost()
  48:../../libDaisy//src/sys/system.h ****         {
  49:../../libDaisy//src/sys/system.h ****             cpu_freq    = SysClkFreq::FREQ_480MHZ;
  50:../../libDaisy//src/sys/system.h ****             use_dcache  = true;
  51:../../libDaisy//src/sys/system.h ****             use_icache  = true;
  52:../../libDaisy//src/sys/system.h ****             skip_clocks = false;
  53:../../libDaisy//src/sys/system.h ****         }
  54:../../libDaisy//src/sys/system.h **** 
  55:../../libDaisy//src/sys/system.h ****         SysClkFreq cpu_freq;
  56:../../libDaisy//src/sys/system.h ****         bool       use_dcache;
  57:../../libDaisy//src/sys/system.h ****         bool       use_icache;
  58:../../libDaisy//src/sys/system.h ****         bool       skip_clocks;
  59:../../libDaisy//src/sys/system.h ****     };
  60:../../libDaisy//src/sys/system.h **** 
  61:../../libDaisy//src/sys/system.h ****     /** Describes the different regions of memory available to the Daisy
  62:../../libDaisy//src/sys/system.h ****      * 
  63:../../libDaisy//src/sys/system.h ****      */
  64:../../libDaisy//src/sys/system.h ****     enum MemoryRegion
  65:../../libDaisy//src/sys/system.h ****     {
  66:../../libDaisy//src/sys/system.h ****         INTERNAL_FLASH = 0,
  67:../../libDaisy//src/sys/system.h ****         ITCMRAM,
  68:../../libDaisy//src/sys/system.h ****         DTCMRAM,
  69:../../libDaisy//src/sys/system.h ****         SRAM_D1,
  70:../../libDaisy//src/sys/system.h ****         SRAM_D2,
  71:../../libDaisy//src/sys/system.h ****         SRAM_D3,
  72:../../libDaisy//src/sys/system.h ****         SDRAM,
  73:../../libDaisy//src/sys/system.h ****         QSPI,
  74:../../libDaisy//src/sys/system.h ****         INVALID_ADDRESS,
  75:../../libDaisy//src/sys/system.h ****     };
  76:../../libDaisy//src/sys/system.h **** 
  77:../../libDaisy//src/sys/system.h ****     System() {}
  78:../../libDaisy//src/sys/system.h ****     ~System() {}
  73              		.loc 7 78 5 is_stmt 1 view .LVU13
  74              		.loc 7 78 5 is_stmt 0 view .LVU14
  75              	.LBE484:
  76              		.loc 1 65 26 view .LVU15
  77 0000 7047     		bx	lr
  78              		.cfi_endproc
  79              	.LFE2529:
  81              		.weak	_ZN5daisy8patch_sm12DaisyPatchSMD1Ev
  82              		.thumb_set _ZN5daisy8patch_sm12DaisyPatchSMD1Ev,_ZN5daisy8patch_sm12DaisyPatchSMD2Ev
  83 0002 00BF     		.section	.text._ZN5daisy11OledDisplayINS_13SSD130xDriverILj128ELj64ENS_19SSD130xI2CTransportEEEED2
  84              		.align	1
  85              		.p2align 2,,3
  86              		.weak	_ZN5daisy11OledDisplayINS_13SSD130xDriverILj128ELj64ENS_19SSD130xI2CTransportEEEED2Ev
  87              		.syntax unified
  88              		.thumb
ARM GAS  /var/folders/hl/qgbwny5j0fd895c2c41bk3tw0000gp/T//cceIFtrC.s 			page 10


  89              		.thumb_func
  90              		.fpu fpv5-d16
  92              	_ZN5daisy11OledDisplayINS_13SSD130xDriverILj128ELj64ENS_19SSD130xI2CTransportEEEED2Ev:
  93              	.LVL1:
  94              	.LFB5176:
  95              		.file 8 "../../libDaisy//src/hid/disp/oled_display.h"
   1:../../libDaisy//src/hid/disp/oled_display.h **** #pragma once
   2:../../libDaisy//src/hid/disp/oled_display.h **** #ifndef DSY_OLED_DISPLAY_H
   3:../../libDaisy//src/hid/disp/oled_display.h **** #define DSY_OLED_DISPLAY_H /**< Macro */
   4:../../libDaisy//src/hid/disp/oled_display.h **** 
   5:../../libDaisy//src/hid/disp/oled_display.h **** #include "display.h"
   6:../../libDaisy//src/hid/disp/oled_display.h **** 
   7:../../libDaisy//src/hid/disp/oled_display.h **** namespace daisy
   8:../../libDaisy//src/hid/disp/oled_display.h **** {
   9:../../libDaisy//src/hid/disp/oled_display.h **** /** 
  10:../../libDaisy//src/hid/disp/oled_display.h ****  * This class is for drawing to a monochrome OLED display. 
  11:../../libDaisy//src/hid/disp/oled_display.h ****  * @ingroup device
  12:../../libDaisy//src/hid/disp/oled_display.h **** */
  13:../../libDaisy//src/hid/disp/oled_display.h **** template <typename DisplayDriver>
  14:../../libDaisy//src/hid/disp/oled_display.h **** class OledDisplay : public OneBitGraphicsDisplayImpl<OledDisplay<DisplayDriver>>
  15:../../libDaisy//src/hid/disp/oled_display.h **** {
  16:../../libDaisy//src/hid/disp/oled_display.h ****   public:
  17:../../libDaisy//src/hid/disp/oled_display.h ****     OledDisplay() {}
  18:../../libDaisy//src/hid/disp/oled_display.h ****     virtual ~OledDisplay() {}
  96              		.loc 8 18 13 is_stmt 1 view -0
  97              		.cfi_startproc
  98              		@ args = 0, pretend = 0, frame = 0
  99              		@ frame_needed = 0, uses_anonymous_args = 0
 100              		@ link register save eliminated.
 101              	.LBB485:
 102              	.LBI485:
 103              		.file 9 "../../libDaisy//src/hid/disp/display.h"
   1:../../libDaisy//src/hid/disp/display.h **** #pragma once
   2:../../libDaisy//src/hid/disp/display.h **** #ifndef DSY_DISPLAY_H
   3:../../libDaisy//src/hid/disp/display.h **** #define DSY_DISPLAY_H /**< Macro */
   4:../../libDaisy//src/hid/disp/display.h **** #include <cmath>
   5:../../libDaisy//src/hid/disp/display.h **** #include "util/oled_fonts.h"
   6:../../libDaisy//src/hid/disp/display.h **** #include "daisy_core.h"
   7:../../libDaisy//src/hid/disp/display.h **** #include "graphics_common.h"
   8:../../libDaisy//src/hid/disp/display.h **** 
   9:../../libDaisy//src/hid/disp/display.h **** #ifndef deg2rad
  10:../../libDaisy//src/hid/disp/display.h **** #define deg2rad(deg) ((deg)*3.141592 / 180.0)
  11:../../libDaisy//src/hid/disp/display.h **** #endif
  12:../../libDaisy//src/hid/disp/display.h **** 
  13:../../libDaisy//src/hid/disp/display.h **** namespace daisy
  14:../../libDaisy//src/hid/disp/display.h **** {
  15:../../libDaisy//src/hid/disp/display.h **** /** 
  16:../../libDaisy//src/hid/disp/display.h ****  * This interface is used as a base class for all types of 1bit-per-pixel
  17:../../libDaisy//src/hid/disp/display.h ****  * graphics displays.
  18:../../libDaisy//src/hid/disp/display.h **** */
  19:../../libDaisy//src/hid/disp/display.h **** class OneBitGraphicsDisplay
  20:../../libDaisy//src/hid/disp/display.h **** {
  21:../../libDaisy//src/hid/disp/display.h ****   public:
  22:../../libDaisy//src/hid/disp/display.h ****     OneBitGraphicsDisplay() {}
  23:../../libDaisy//src/hid/disp/display.h ****     virtual ~OneBitGraphicsDisplay() {}
  24:../../libDaisy//src/hid/disp/display.h **** 
  25:../../libDaisy//src/hid/disp/display.h ****     virtual uint16_t Height() const = 0;
ARM GAS  /var/folders/hl/qgbwny5j0fd895c2c41bk3tw0000gp/T//cceIFtrC.s 			page 11


  26:../../libDaisy//src/hid/disp/display.h ****     virtual uint16_t Width() const  = 0;
  27:../../libDaisy//src/hid/disp/display.h **** 
  28:../../libDaisy//src/hid/disp/display.h ****     Rectangle GetBounds() const
  29:../../libDaisy//src/hid/disp/display.h ****     {
  30:../../libDaisy//src/hid/disp/display.h ****         return Rectangle(int16_t(Width()), int16_t(Height()));
  31:../../libDaisy//src/hid/disp/display.h ****     }
  32:../../libDaisy//src/hid/disp/display.h **** 
  33:../../libDaisy//src/hid/disp/display.h **** 
  34:../../libDaisy//src/hid/disp/display.h ****     size_t CurrentX() { return currentX_; };
  35:../../libDaisy//src/hid/disp/display.h ****     size_t CurrentY() { return currentY_; };
  36:../../libDaisy//src/hid/disp/display.h **** 
  37:../../libDaisy//src/hid/disp/display.h ****     /** 
  38:../../libDaisy//src/hid/disp/display.h ****     Fills the entire display with either on/off.
  39:../../libDaisy//src/hid/disp/display.h ****     \param on Sets on or off.
  40:../../libDaisy//src/hid/disp/display.h ****     */
  41:../../libDaisy//src/hid/disp/display.h ****     virtual void Fill(bool on) = 0;
  42:../../libDaisy//src/hid/disp/display.h **** 
  43:../../libDaisy//src/hid/disp/display.h ****     /**
  44:../../libDaisy//src/hid/disp/display.h ****     Sets the pixel at the specified coordinate to be on/off.
  45:../../libDaisy//src/hid/disp/display.h ****     \param x   x Coordinate
  46:../../libDaisy//src/hid/disp/display.h ****     \param y   y coordinate
  47:../../libDaisy//src/hid/disp/display.h ****     \param on  on or off
  48:../../libDaisy//src/hid/disp/display.h ****     */
  49:../../libDaisy//src/hid/disp/display.h ****     virtual void DrawPixel(uint_fast8_t x, uint_fast8_t y, bool on) = 0;
  50:../../libDaisy//src/hid/disp/display.h **** 
  51:../../libDaisy//src/hid/disp/display.h ****     /**
  52:../../libDaisy//src/hid/disp/display.h ****     Draws a line from (x1, y1) to (y1, y2)
  53:../../libDaisy//src/hid/disp/display.h ****     \param x1  x Coordinate of the starting point
  54:../../libDaisy//src/hid/disp/display.h ****     \param y1  y Coordinate of the starting point
  55:../../libDaisy//src/hid/disp/display.h ****     \param x2  x Coordinate of the ending point
  56:../../libDaisy//src/hid/disp/display.h ****     \param y2  y Coordinate of the ending point
  57:../../libDaisy//src/hid/disp/display.h ****     \param on  on or off
  58:../../libDaisy//src/hid/disp/display.h ****     */
  59:../../libDaisy//src/hid/disp/display.h ****     virtual void DrawLine(uint_fast8_t x1,
  60:../../libDaisy//src/hid/disp/display.h ****                           uint_fast8_t y1,
  61:../../libDaisy//src/hid/disp/display.h ****                           uint_fast8_t x2,
  62:../../libDaisy//src/hid/disp/display.h ****                           uint_fast8_t y2,
  63:../../libDaisy//src/hid/disp/display.h ****                           bool         on)
  64:../../libDaisy//src/hid/disp/display.h ****         = 0;
  65:../../libDaisy//src/hid/disp/display.h **** 
  66:../../libDaisy//src/hid/disp/display.h ****     /**
  67:../../libDaisy//src/hid/disp/display.h ****     Draws a rectangle based on two coordinates.
  68:../../libDaisy//src/hid/disp/display.h ****     \param x1 x Coordinate of the first point
  69:../../libDaisy//src/hid/disp/display.h ****     \param y1 y Coordinate of the first point
  70:../../libDaisy//src/hid/disp/display.h ****     \param x2 x Coordinate of the second point
  71:../../libDaisy//src/hid/disp/display.h ****     \param y2 y Coordinate of the second point
  72:../../libDaisy//src/hid/disp/display.h ****     \param on on or off
  73:../../libDaisy//src/hid/disp/display.h ****     \param fill fill the rectangle or draw only the outline
  74:../../libDaisy//src/hid/disp/display.h ****     */
  75:../../libDaisy//src/hid/disp/display.h ****     virtual void DrawRect(uint_fast8_t x1,
  76:../../libDaisy//src/hid/disp/display.h ****                           uint_fast8_t y1,
  77:../../libDaisy//src/hid/disp/display.h ****                           uint_fast8_t x2,
  78:../../libDaisy//src/hid/disp/display.h ****                           uint_fast8_t y2,
  79:../../libDaisy//src/hid/disp/display.h ****                           bool         on,
  80:../../libDaisy//src/hid/disp/display.h ****                           bool         fill = false)
  81:../../libDaisy//src/hid/disp/display.h ****         = 0;
  82:../../libDaisy//src/hid/disp/display.h **** 
ARM GAS  /var/folders/hl/qgbwny5j0fd895c2c41bk3tw0000gp/T//cceIFtrC.s 			page 12


  83:../../libDaisy//src/hid/disp/display.h ****     /**
  84:../../libDaisy//src/hid/disp/display.h ****     Draws a rectangle.
  85:../../libDaisy//src/hid/disp/display.h ****     \param rect the rectangle
  86:../../libDaisy//src/hid/disp/display.h ****     \param on   on or off
  87:../../libDaisy//src/hid/disp/display.h ****     \param fill fill the rectangle or draw only the outline
  88:../../libDaisy//src/hid/disp/display.h ****     */
  89:../../libDaisy//src/hid/disp/display.h ****     void DrawRect(const Rectangle& rect, bool on, bool fill = false)
  90:../../libDaisy//src/hid/disp/display.h ****     {
  91:../../libDaisy//src/hid/disp/display.h ****         DrawRect(rect.GetX(),
  92:../../libDaisy//src/hid/disp/display.h ****                  rect.GetY(),
  93:../../libDaisy//src/hid/disp/display.h ****                  rect.GetRight(),
  94:../../libDaisy//src/hid/disp/display.h ****                  rect.GetBottom(),
  95:../../libDaisy//src/hid/disp/display.h ****                  on,
  96:../../libDaisy//src/hid/disp/display.h ****                  fill);
  97:../../libDaisy//src/hid/disp/display.h ****     }
  98:../../libDaisy//src/hid/disp/display.h **** 
  99:../../libDaisy//src/hid/disp/display.h ****     /**
 100:../../libDaisy//src/hid/disp/display.h ****     Draws an arc around the specified coordinate
 101:../../libDaisy//src/hid/disp/display.h ****     \param x           x Coordinate of the center of the arc
 102:../../libDaisy//src/hid/disp/display.h ****     \param y           y Coordinate of the center of the arc
 103:../../libDaisy//src/hid/disp/display.h ****     \param radius      radius of the arc
 104:../../libDaisy//src/hid/disp/display.h ****     \param start_angle angle where to start the arc
 105:../../libDaisy//src/hid/disp/display.h ****     \param sweep       total angle of the arc
 106:../../libDaisy//src/hid/disp/display.h ****     \param on  on or off
 107:../../libDaisy//src/hid/disp/display.h ****     */
 108:../../libDaisy//src/hid/disp/display.h ****     virtual void DrawArc(uint_fast8_t x,
 109:../../libDaisy//src/hid/disp/display.h ****                          uint_fast8_t y,
 110:../../libDaisy//src/hid/disp/display.h ****                          uint_fast8_t radius,
 111:../../libDaisy//src/hid/disp/display.h ****                          int_fast16_t start_angle,
 112:../../libDaisy//src/hid/disp/display.h ****                          int_fast16_t sweep,
 113:../../libDaisy//src/hid/disp/display.h ****                          bool         on)
 114:../../libDaisy//src/hid/disp/display.h ****         = 0;
 115:../../libDaisy//src/hid/disp/display.h **** 
 116:../../libDaisy//src/hid/disp/display.h ****     /**
 117:../../libDaisy//src/hid/disp/display.h ****     Draws a circle around the specified coordinate
 118:../../libDaisy//src/hid/disp/display.h ****     \param x           x Coordinate of the center of the circle
 119:../../libDaisy//src/hid/disp/display.h ****     \param y           y Coordinate of the center of the circle
 120:../../libDaisy//src/hid/disp/display.h ****     \param radius      radius of the circle
 121:../../libDaisy//src/hid/disp/display.h ****     \param on  on or off
 122:../../libDaisy//src/hid/disp/display.h ****     */
 123:../../libDaisy//src/hid/disp/display.h ****     void
 124:../../libDaisy//src/hid/disp/display.h ****     DrawCircle(uint_fast8_t x, uint_fast8_t y, uint_fast8_t radius, bool on)
 125:../../libDaisy//src/hid/disp/display.h ****     {
 126:../../libDaisy//src/hid/disp/display.h ****         DrawArc(x, y, radius, 0, 360, on);
 127:../../libDaisy//src/hid/disp/display.h ****     };
 128:../../libDaisy//src/hid/disp/display.h **** 
 129:../../libDaisy//src/hid/disp/display.h ****     /** 
 130:../../libDaisy//src/hid/disp/display.h ****     Writes the character with the specific FontDef
 131:../../libDaisy//src/hid/disp/display.h ****     to the display buffer at the current Cursor position.
 132:../../libDaisy//src/hid/disp/display.h ****     \param ch character to be written
 133:../../libDaisy//src/hid/disp/display.h ****     \param font font to be written in
 134:../../libDaisy//src/hid/disp/display.h ****     \param on    on or off
 135:../../libDaisy//src/hid/disp/display.h ****     \return &
 136:../../libDaisy//src/hid/disp/display.h ****     */
 137:../../libDaisy//src/hid/disp/display.h ****     virtual char WriteChar(char ch, FontDef font, bool on) = 0;
 138:../../libDaisy//src/hid/disp/display.h **** 
 139:../../libDaisy//src/hid/disp/display.h ****     /** 
ARM GAS  /var/folders/hl/qgbwny5j0fd895c2c41bk3tw0000gp/T//cceIFtrC.s 			page 13


 140:../../libDaisy//src/hid/disp/display.h ****     Similar to WriteChar, except it will handle an entire String.
 141:../../libDaisy//src/hid/disp/display.h ****     Wrapping does not happen automatically, so the width
 142:../../libDaisy//src/hid/disp/display.h ****     of the string must be kept within the dimensions of the screen.
 143:../../libDaisy//src/hid/disp/display.h ****     \param str string to be written
 144:../../libDaisy//src/hid/disp/display.h ****     \param font font to use
 145:../../libDaisy//src/hid/disp/display.h ****     \param on  on or off
 146:../../libDaisy//src/hid/disp/display.h ****     \return &
 147:../../libDaisy//src/hid/disp/display.h ****     */
 148:../../libDaisy//src/hid/disp/display.h ****     virtual char WriteString(const char* str, FontDef font, bool on) = 0;
 149:../../libDaisy//src/hid/disp/display.h **** 
 150:../../libDaisy//src/hid/disp/display.h ****     /** 
 151:../../libDaisy//src/hid/disp/display.h ****     Similar to WriteString but justified within a bounding box.
 152:../../libDaisy//src/hid/disp/display.h ****     \param str          string to be written
 153:../../libDaisy//src/hid/disp/display.h ****     \param font         font to use
 154:../../libDaisy//src/hid/disp/display.h ****     \param boundingBox  the bounding box to draw the text in
 155:../../libDaisy//src/hid/disp/display.h ****     \param alignment    the alignment to use
 156:../../libDaisy//src/hid/disp/display.h ****     \param on           on or off
 157:../../libDaisy//src/hid/disp/display.h ****     \return The rectangle that was drawn to
 158:../../libDaisy//src/hid/disp/display.h ****     */
 159:../../libDaisy//src/hid/disp/display.h ****     virtual Rectangle WriteStringAligned(const char*    str,
 160:../../libDaisy//src/hid/disp/display.h ****                                          const FontDef& font,
 161:../../libDaisy//src/hid/disp/display.h ****                                          Rectangle      boundingBox,
 162:../../libDaisy//src/hid/disp/display.h ****                                          Alignment      alignment,
 163:../../libDaisy//src/hid/disp/display.h ****                                          bool           on)
 164:../../libDaisy//src/hid/disp/display.h ****         = 0;
 165:../../libDaisy//src/hid/disp/display.h **** 
 166:../../libDaisy//src/hid/disp/display.h ****     /** 
 167:../../libDaisy//src/hid/disp/display.h ****     Moves the 'Cursor' position used for WriteChar, and WriteStr to the specified coordinate.
 168:../../libDaisy//src/hid/disp/display.h ****     \param x x pos
 169:../../libDaisy//src/hid/disp/display.h ****     \param y y pos
 170:../../libDaisy//src/hid/disp/display.h ****     */
 171:../../libDaisy//src/hid/disp/display.h ****     void SetCursor(uint16_t x, uint16_t y)
 172:../../libDaisy//src/hid/disp/display.h ****     {
 173:../../libDaisy//src/hid/disp/display.h ****         currentX_ = (x >= Width()) ? Width() - 1 : x;
 174:../../libDaisy//src/hid/disp/display.h ****         currentY_ = (y >= Height()) ? Height() - 1 : y;
 175:../../libDaisy//src/hid/disp/display.h ****     }
 176:../../libDaisy//src/hid/disp/display.h **** 
 177:../../libDaisy//src/hid/disp/display.h ****     /** 
 178:../../libDaisy//src/hid/disp/display.h ****     Writes the current display buffer to the OLED device using SPI or I2C depending on 
 179:../../libDaisy//src/hid/disp/display.h ****     how the object was initialized.
 180:../../libDaisy//src/hid/disp/display.h ****     */
 181:../../libDaisy//src/hid/disp/display.h ****     virtual void Update() = 0;
 182:../../libDaisy//src/hid/disp/display.h **** 
 183:../../libDaisy//src/hid/disp/display.h ****   protected:
 184:../../libDaisy//src/hid/disp/display.h ****     uint16_t currentX_;
 185:../../libDaisy//src/hid/disp/display.h ****     uint16_t currentY_;
 186:../../libDaisy//src/hid/disp/display.h **** };
 187:../../libDaisy//src/hid/disp/display.h **** 
 188:../../libDaisy//src/hid/disp/display.h **** /** This class is intended as a intermediary class for your actual implementation of the OneBitGrap
 189:../../libDaisy//src/hid/disp/display.h ****  *  interface. It uses the CRTP design pattern where the template argument is the child class. It p
 190:../../libDaisy//src/hid/disp/display.h ****  *  implementations for most of the functions, except DrawPixel(), Update() and Fill(), which you'l
 191:../../libDaisy//src/hid/disp/display.h ****  *  to provide in your child class.
 192:../../libDaisy//src/hid/disp/display.h ****  *  The main goal of this class is to provide common drawing functions without relying on massive a
 193:../../libDaisy//src/hid/disp/display.h ****  *  virtual function calls that would result in a performance loss. To achieve this, any drawing fu
 194:../../libDaisy//src/hid/disp/display.h ****  *  is implemented here and internally calls other drawing functions (e.g. DrawRect() which interna
 195:../../libDaisy//src/hid/disp/display.h ****  *  DrawPixel() and DrawLine()) makes these calls via the qualified name of these functions to expl
 196:../../libDaisy//src/hid/disp/display.h ****  *  suppress the virtual dispatch mechanism like this:
ARM GAS  /var/folders/hl/qgbwny5j0fd895c2c41bk3tw0000gp/T//cceIFtrC.s 			page 14


 197:../../libDaisy//src/hid/disp/display.h ****  * 
 198:../../libDaisy//src/hid/disp/display.h ****  *      ChildType::DrawPixel(...); // no virtual function call; direct call into the child class fu
 199:../../libDaisy//src/hid/disp/display.h ****  *  
 200:../../libDaisy//src/hid/disp/display.h ****  *  To create a custom OneBitGraphicsDisplay implementation, you can 
 201:../../libDaisy//src/hid/disp/display.h ****  *  A) inherit from OneBitGraphicsDisplay directly and provide all the drawing functions yourself
 202:../../libDaisy//src/hid/disp/display.h ****  *  B) Inherit from OneBitGraphicsDisplayImpl and only provide DrawPixel(), Fill() and Update()
 203:../../libDaisy//src/hid/disp/display.h ****  *     like this:
 204:../../libDaisy//src/hid/disp/display.h ****  *  
 205:../../libDaisy//src/hid/disp/display.h ****  *      class MyDisplayClass : public OneBitGraphicsDisplayImpl<MyDisplayClass> 
 206:../../libDaisy//src/hid/disp/display.h ****  *      {
 207:../../libDaisy//src/hid/disp/display.h ****  *      public:
 208:../../libDaisy//src/hid/disp/display.h ****  *          void Fill() override { ... };
 209:../../libDaisy//src/hid/disp/display.h ****  *          void DrawPixel(uint_fast8_t x, uint_fast8_t y, bool on) override { ... };
 210:../../libDaisy//src/hid/disp/display.h ****  *          void Update() override { ... }
 211:../../libDaisy//src/hid/disp/display.h ****  *      };
 212:../../libDaisy//src/hid/disp/display.h ****  *  
 213:../../libDaisy//src/hid/disp/display.h ****  */
 214:../../libDaisy//src/hid/disp/display.h **** template <class ChildType>
 215:../../libDaisy//src/hid/disp/display.h **** class OneBitGraphicsDisplayImpl : public OneBitGraphicsDisplay
 216:../../libDaisy//src/hid/disp/display.h **** {
 217:../../libDaisy//src/hid/disp/display.h ****   public:
 218:../../libDaisy//src/hid/disp/display.h ****     OneBitGraphicsDisplayImpl() {}
 219:../../libDaisy//src/hid/disp/display.h ****     virtual ~OneBitGraphicsDisplayImpl() {}
 104              		.loc 9 219 13 view .LVU17
 105              	.LBB486:
 106              	.LBI486:
  23:../../libDaisy//src/hid/disp/display.h **** 
 107              		.loc 9 23 13 view .LVU18
  23:../../libDaisy//src/hid/disp/display.h **** 
 108              		.loc 9 23 13 is_stmt 0 view .LVU19
 109              	.LBE486:
 110              	.LBE485:
 111              		.loc 8 18 29 view .LVU20
 112 0000 7047     		bx	lr
 113              		.cfi_endproc
 114              	.LFE5176:
 116              		.weak	_ZN5daisy11OledDisplayINS_13SSD130xDriverILj128ELj64ENS_19SSD130xI2CTransportEEEED1Ev
 117              		.thumb_set _ZN5daisy11OledDisplayINS_13SSD130xDriverILj128ELj64ENS_19SSD130xI2CTransportEEEED1Ev,_
 118 0002 00BF     		.section	.text._ZN5daisy9Patch_BayD2Ev,"axG",%progbits,_ZN5daisy9Patch_BayD5Ev,comdat
 119              		.align	1
 120              		.p2align 2,,3
 121              		.weak	_ZN5daisy9Patch_BayD2Ev
 122              		.syntax unified
 123              		.thumb
 124              		.thumb_func
 125              		.fpu fpv5-d16
 127              	_ZN5daisy9Patch_BayD2Ev:
 128              	.LVL2:
 129              	.LFB5442:
 130              		.file 10 "patch_bay.h"
   1:patch_bay.h   **** #pragma once 
   2:patch_bay.h   **** #ifndef PATCH_BAY_BSP_H
   3:patch_bay.h   **** #define PATCH_BAY_BSP_H
   4:patch_bay.h   **** 
   5:patch_bay.h   **** #include "daisy.h"
   6:patch_bay.h   **** #include "daisy_patch_sm.h"
   7:patch_bay.h   **** #include "dev/oled_ssd130x.h"
ARM GAS  /var/folders/hl/qgbwny5j0fd895c2c41bk3tw0000gp/T//cceIFtrC.s 			page 15


   8:patch_bay.h   **** 
   9:patch_bay.h   **** using namespace daisy;
  10:patch_bay.h   **** using namespace patch_sm;
  11:patch_bay.h   **** 
  12:patch_bay.h   **** namespace daisy {
  13:patch_bay.h   **** 
  14:patch_bay.h   **** class Patch_Bay
 131              		.loc 10 14 7 is_stmt 1 view -0
 132              		.cfi_startproc
 133              		@ args = 0, pretend = 0, frame = 0
 134              		@ frame_needed = 0, uses_anonymous_args = 0
 135              		@ link register save eliminated.
 136              	.LBB487:
 137              	.LBI487:
 138              		.file 11 "../../libDaisy//src/hid/led.h"
   1:../../libDaisy//src/hid/led.h **** 
   2:../../libDaisy//src/hid/led.h **** #pragma once
   3:../../libDaisy//src/hid/led.h **** #ifndef DSY_LED_H
   4:../../libDaisy//src/hid/led.h **** #define DSY_LED_H
   5:../../libDaisy//src/hid/led.h **** #include "daisy_core.h"
   6:../../libDaisy//src/hid/led.h **** #include "per/gpio.h"
   7:../../libDaisy//src/hid/led.h **** 
   8:../../libDaisy//src/hid/led.h **** /* TODO - Get this set up to work with the dev_leddriver stuff as well
   9:../../libDaisy//src/hid/led.h **** - Setup Hardware PWM for pins that have it
  10:../../libDaisy//src/hid/led.h **** */
  11:../../libDaisy//src/hid/led.h **** 
  12:../../libDaisy//src/hid/led.h **** namespace daisy
  13:../../libDaisy//src/hid/led.h **** {
  14:../../libDaisy//src/hid/led.h **** /**
  15:../../libDaisy//src/hid/led.h ****     @brief LED Class providing simple Software PWM ability, etc \n 
  16:../../libDaisy//src/hid/led.h ****     Eventually this will work with hardware PWM, and external LED Driver devices as well.
  17:../../libDaisy//src/hid/led.h ****     @author shensley
  18:../../libDaisy//src/hid/led.h ****     @date March 2020
  19:../../libDaisy//src/hid/led.h ****     @ingroup feedback
  20:../../libDaisy//src/hid/led.h **** */
  21:../../libDaisy//src/hid/led.h **** class Led
  22:../../libDaisy//src/hid/led.h **** {
  23:../../libDaisy//src/hid/led.h ****   public:
  24:../../libDaisy//src/hid/led.h ****     Led() {}
  25:../../libDaisy//src/hid/led.h ****     ~Led() {}
 139              		.loc 11 25 5 view .LVU22
 140              		.loc 11 25 5 is_stmt 0 view .LVU23
 141              	.LBE487:
 142              	.LBB488:
 143              	.LBI488:
 144              		.loc 11 25 5 is_stmt 1 view .LVU24
 145              		.loc 11 25 5 is_stmt 0 view .LVU25
 146              	.LBE488:
 147              	.LBB489:
 148              	.LBI489:
 149              		.loc 11 25 5 is_stmt 1 view .LVU26
 150              		.loc 11 25 5 is_stmt 0 view .LVU27
 151              	.LBE489:
 152              	.LBB490:
 153              	.LBI490:
 154              		.loc 8 18 13 is_stmt 1 view .LVU28
 155              	.LBB491:
ARM GAS  /var/folders/hl/qgbwny5j0fd895c2c41bk3tw0000gp/T//cceIFtrC.s 			page 16


 156              	.LBI491:
 157              		.loc 9 219 13 view .LVU29
 158              	.LBB492:
 159              	.LBI492:
  23:../../libDaisy//src/hid/disp/display.h **** 
 160              		.loc 9 23 13 view .LVU30
  23:../../libDaisy//src/hid/disp/display.h **** 
 161              		.loc 9 23 13 is_stmt 0 view .LVU31
 162              	.LBE492:
 163              	.LBE491:
 164              	.LBE490:
 165              	.LBB493:
 166              	.LBI493:
 167              		.file 12 "../../libDaisy//src/hid/encoder.h"
   1:../../libDaisy//src/hid/encoder.h **** #pragma once
   2:../../libDaisy//src/hid/encoder.h **** #ifndef DSY_ENCODER_H
   3:../../libDaisy//src/hid/encoder.h **** #define DSY_ENCODER_H
   4:../../libDaisy//src/hid/encoder.h **** #include "daisy_core.h"
   5:../../libDaisy//src/hid/encoder.h **** #include "per/gpio.h"
   6:../../libDaisy//src/hid/encoder.h **** #include "hid/switch.h"
   7:../../libDaisy//src/hid/encoder.h **** 
   8:../../libDaisy//src/hid/encoder.h **** namespace daisy
   9:../../libDaisy//src/hid/encoder.h **** {
  10:../../libDaisy//src/hid/encoder.h **** /** 
  11:../../libDaisy//src/hid/encoder.h ****     @brief Generic Class for handling Quadrature Encoders \n 
  12:../../libDaisy//src/hid/encoder.h ****     Inspired/influenced by Mutable Instruments (pichenettes) Encoder classes
  13:../../libDaisy//src/hid/encoder.h ****     @author Stephen Hensley
  14:../../libDaisy//src/hid/encoder.h ****     @date December 2019
  15:../../libDaisy//src/hid/encoder.h ****     @ingroup controls
  16:../../libDaisy//src/hid/encoder.h **** */
  17:../../libDaisy//src/hid/encoder.h **** class Encoder
  18:../../libDaisy//src/hid/encoder.h **** {
  19:../../libDaisy//src/hid/encoder.h ****   public:
  20:../../libDaisy//src/hid/encoder.h ****     Encoder() {}
  21:../../libDaisy//src/hid/encoder.h ****     ~Encoder() {}
 168              		.loc 12 21 5 is_stmt 1 view .LVU32
 169              	.LBB494:
 170              	.LBI494:
 171              		.file 13 "../../libDaisy//src/hid/switch.h"
   1:../../libDaisy//src/hid/switch.h **** #pragma once
   2:../../libDaisy//src/hid/switch.h **** #ifndef DSY_SWITCH_H
   3:../../libDaisy//src/hid/switch.h **** #define DSY_SWITCH_H
   4:../../libDaisy//src/hid/switch.h **** #include "daisy_core.h"
   5:../../libDaisy//src/hid/switch.h **** #include "per/gpio.h"
   6:../../libDaisy//src/hid/switch.h **** #include "sys/system.h"
   7:../../libDaisy//src/hid/switch.h **** 
   8:../../libDaisy//src/hid/switch.h **** namespace daisy
   9:../../libDaisy//src/hid/switch.h **** {
  10:../../libDaisy//src/hid/switch.h **** /** 
  11:../../libDaisy//src/hid/switch.h ****     Generic Class for handling momentary/latching switches \n 
  12:../../libDaisy//src/hid/switch.h ****     Inspired/influenced by Mutable Instruments (pichenettes) Switch classes
  13:../../libDaisy//src/hid/switch.h ****     @author Stephen Hensley
  14:../../libDaisy//src/hid/switch.h ****     @date December 2019
  15:../../libDaisy//src/hid/switch.h ****     @ingroup controls
  16:../../libDaisy//src/hid/switch.h **** */
  17:../../libDaisy//src/hid/switch.h **** class Switch
  18:../../libDaisy//src/hid/switch.h **** {
ARM GAS  /var/folders/hl/qgbwny5j0fd895c2c41bk3tw0000gp/T//cceIFtrC.s 			page 17


  19:../../libDaisy//src/hid/switch.h ****   public:
  20:../../libDaisy//src/hid/switch.h ****     /** Specifies the expected behavior of the switch */
  21:../../libDaisy//src/hid/switch.h ****     enum Type
  22:../../libDaisy//src/hid/switch.h ****     {
  23:../../libDaisy//src/hid/switch.h ****         TYPE_TOGGLE,    /**< & */
  24:../../libDaisy//src/hid/switch.h ****         TYPE_MOMENTARY, /**< & */
  25:../../libDaisy//src/hid/switch.h ****     };
  26:../../libDaisy//src/hid/switch.h ****     /** Specifies whether the pressed is HIGH or LOW. */
  27:../../libDaisy//src/hid/switch.h ****     enum Polarity
  28:../../libDaisy//src/hid/switch.h ****     {
  29:../../libDaisy//src/hid/switch.h ****         POLARITY_NORMAL,   /**< & */
  30:../../libDaisy//src/hid/switch.h ****         POLARITY_INVERTED, /**< & */
  31:../../libDaisy//src/hid/switch.h ****     };
  32:../../libDaisy//src/hid/switch.h **** 
  33:../../libDaisy//src/hid/switch.h ****     /** Specifies whether to use built-in Pull Up/Down resistors to hold button at a given state wh
  34:../../libDaisy//src/hid/switch.h ****     enum Pull
  35:../../libDaisy//src/hid/switch.h ****     {
  36:../../libDaisy//src/hid/switch.h ****         PULL_UP,   /**< & */
  37:../../libDaisy//src/hid/switch.h ****         PULL_DOWN, /**< & */
  38:../../libDaisy//src/hid/switch.h ****         PULL_NONE, /**< & */
  39:../../libDaisy//src/hid/switch.h ****     };
  40:../../libDaisy//src/hid/switch.h **** 
  41:../../libDaisy//src/hid/switch.h ****     Switch() {}
  42:../../libDaisy//src/hid/switch.h ****     ~Switch() {}
 172              		.loc 13 42 5 view .LVU33
 173              		.loc 13 42 5 is_stmt 0 view .LVU34
 174              	.LBE494:
 175              	.LBE493:
 176              	.LBB495:
 177              	.LBI495:
 178              		.loc 13 42 5 is_stmt 1 view .LVU35
 179              		.loc 13 42 5 is_stmt 0 view .LVU36
 180              	.LBE495:
 181              	.LBB496:
 182              	.LBI496:
 183              		.file 14 "../../libDaisy//src/per/sdmmc.h"
   1:../../libDaisy//src/per/sdmmc.h **** /*
   2:../../libDaisy//src/per/sdmmc.h **** TODO: 
   3:../../libDaisy//src/per/sdmmc.h **** - Implement configuration (currently all settings are fixed).
   4:../../libDaisy//src/per/sdmmc.h **** */
   5:../../libDaisy//src/per/sdmmc.h **** #pragma once
   6:../../libDaisy//src/per/sdmmc.h **** #ifndef DSY_SDMMC_H
   7:../../libDaisy//src/per/sdmmc.h **** #define DSY_SDMMC_H /**< macro */
   8:../../libDaisy//src/per/sdmmc.h **** 
   9:../../libDaisy//src/per/sdmmc.h **** #include <stdint.h>
  10:../../libDaisy//src/per/sdmmc.h **** 
  11:../../libDaisy//src/per/sdmmc.h **** 
  12:../../libDaisy//src/per/sdmmc.h **** namespace daisy
  13:../../libDaisy//src/per/sdmmc.h **** {
  14:../../libDaisy//src/per/sdmmc.h **** /** @ingroup peripheral
  15:../../libDaisy//src/per/sdmmc.h ****     @{
  16:../../libDaisy//src/per/sdmmc.h ****     */
  17:../../libDaisy//src/per/sdmmc.h **** 
  18:../../libDaisy//src/per/sdmmc.h **** /** Configuration for interfacing with SD cards.
  19:../../libDaisy//src/per/sdmmc.h ****  *  Currently only supports operation using FatFS filesystem
  20:../../libDaisy//src/per/sdmmc.h ****  * 
  21:../../libDaisy//src/per/sdmmc.h ****  *  Only SDMMC1 is supported at this time.
ARM GAS  /var/folders/hl/qgbwny5j0fd895c2c41bk3tw0000gp/T//cceIFtrC.s 			page 18


  22:../../libDaisy//src/per/sdmmc.h ****  *
  23:../../libDaisy//src/per/sdmmc.h ****  *  Pins are fixed to the following:
  24:../../libDaisy//src/per/sdmmc.h ****  *  PC12 - SDMMC1 CK
  25:../../libDaisy//src/per/sdmmc.h ****  *  PD2  - SDMMC1 CMD
  26:../../libDaisy//src/per/sdmmc.h ****  *  PC8  - SDMMC1 D0
  27:../../libDaisy//src/per/sdmmc.h ****  *  PC9  - SDMMC1 D1 (optional)
  28:../../libDaisy//src/per/sdmmc.h ****  *  PC10 - SDMMC1 D2 (optional)
  29:../../libDaisy//src/per/sdmmc.h ****  *  PC11 - SDMMC1 D3 (optional)
  30:../../libDaisy//src/per/sdmmc.h **** */
  31:../../libDaisy//src/per/sdmmc.h **** class SdmmcHandler
  32:../../libDaisy//src/per/sdmmc.h **** {
  33:../../libDaisy//src/per/sdmmc.h ****   public:
  34:../../libDaisy//src/per/sdmmc.h ****     /** Return values for the SdmmcHandler class */
  35:../../libDaisy//src/per/sdmmc.h ****     enum class Result
  36:../../libDaisy//src/per/sdmmc.h ****     {
  37:../../libDaisy//src/per/sdmmc.h ****         OK,
  38:../../libDaisy//src/per/sdmmc.h ****         ERROR,
  39:../../libDaisy//src/per/sdmmc.h ****     };
  40:../../libDaisy//src/per/sdmmc.h **** 
  41:../../libDaisy//src/per/sdmmc.h ****     /** Sets whether 4-bit mode or 1-bit mode is used for the SDMMC */
  42:../../libDaisy//src/per/sdmmc.h ****     enum class BusWidth
  43:../../libDaisy//src/per/sdmmc.h ****     {
  44:../../libDaisy//src/per/sdmmc.h ****         BITS_1, /**< Only 1 bit of data per clock is transferred */
  45:../../libDaisy//src/per/sdmmc.h ****         BITS_4, /**< 4-bits of parallel data for each clock pulse */
  46:../../libDaisy//src/per/sdmmc.h ****     };
  47:../../libDaisy//src/per/sdmmc.h **** 
  48:../../libDaisy//src/per/sdmmc.h ****     /** 
  49:../../libDaisy//src/per/sdmmc.h ****     Sets the desired clock speed of the SD card bus. \n 
  50:../../libDaisy//src/per/sdmmc.h ****     Initialization is always done at or below 400kHz, and then the user speed is set.
  51:../../libDaisy//src/per/sdmmc.h ****     */
  52:../../libDaisy//src/per/sdmmc.h ****     enum class Speed
  53:../../libDaisy//src/per/sdmmc.h ****     {
  54:../../libDaisy//src/per/sdmmc.h ****         SLOW, /**< 400kHz, initialization  performed at this rate, before moving to user value */
  55:../../libDaisy//src/per/sdmmc.h ****         MEDIUM_SLOW, /**< 12.5MHz - half of standard rate */
  56:../../libDaisy//src/per/sdmmc.h ****         STANDARD,    /**< 25MHz - DS (Default Speed for SDMMC) */
  57:../../libDaisy//src/per/sdmmc.h ****         FAST,        /**< 50MHz - HS (High Speed signaling) */
  58:../../libDaisy//src/per/sdmmc.h ****         VERY_FAST, /**< 100MHz - SDR50 Overclocked rate for maximum transfer rates */
  59:../../libDaisy//src/per/sdmmc.h ****     };
  60:../../libDaisy//src/per/sdmmc.h **** 
  61:../../libDaisy//src/per/sdmmc.h ****     struct Config
  62:../../libDaisy//src/per/sdmmc.h ****     {
  63:../../libDaisy//src/per/sdmmc.h ****         Speed    speed;
  64:../../libDaisy//src/per/sdmmc.h ****         BusWidth width;
  65:../../libDaisy//src/per/sdmmc.h ****         bool
  66:../../libDaisy//src/per/sdmmc.h ****             clock_powersave; /**< When true, the clock will stop between transfers to save power. *
  67:../../libDaisy//src/per/sdmmc.h **** 
  68:../../libDaisy//src/per/sdmmc.h ****         /** Configures settings to their default settings */
  69:../../libDaisy//src/per/sdmmc.h ****         void Defaults()
  70:../../libDaisy//src/per/sdmmc.h ****         {
  71:../../libDaisy//src/per/sdmmc.h ****             speed           = Speed::FAST;
  72:../../libDaisy//src/per/sdmmc.h ****             width           = BusWidth::BITS_4;
  73:../../libDaisy//src/per/sdmmc.h ****             clock_powersave = false;
  74:../../libDaisy//src/per/sdmmc.h ****         }
  75:../../libDaisy//src/per/sdmmc.h ****     };
  76:../../libDaisy//src/per/sdmmc.h **** 
  77:../../libDaisy//src/per/sdmmc.h ****     SdmmcHandler() {}
  78:../../libDaisy//src/per/sdmmc.h ****     ~SdmmcHandler() {}
ARM GAS  /var/folders/hl/qgbwny5j0fd895c2c41bk3tw0000gp/T//cceIFtrC.s 			page 19


 184              		.loc 14 78 5 is_stmt 1 view .LVU37
 185              		.loc 14 78 5 is_stmt 0 view .LVU38
 186              	.LBE496:
 187              		.loc 10 14 7 view .LVU39
 188 0000 7047     		bx	lr
 189              		.cfi_endproc
 190              	.LFE5442:
 192              		.weak	_ZN5daisy9Patch_BayD1Ev
 193              		.thumb_set _ZN5daisy9Patch_BayD1Ev,_ZN5daisy9Patch_BayD2Ev
 194 0002 00BF     		.section	.text._ZNK5daisy11OledDisplayINS_13SSD130xDriverILj128ELj64ENS_19SSD130xI2CTransportEEEE6
 195              		.align	1
 196              		.p2align 2,,3
 197              		.weak	_ZNK5daisy11OledDisplayINS_13SSD130xDriverILj128ELj64ENS_19SSD130xI2CTransportEEEE6HeightEv
 198              		.syntax unified
 199              		.thumb
 200              		.thumb_func
 201              		.fpu fpv5-d16
 203              	_ZNK5daisy11OledDisplayINS_13SSD130xDriverILj128ELj64ENS_19SSD130xI2CTransportEEEE6HeightEv:
 204              	.LVL3:
 205              	.LFB5444:
  19:../../libDaisy//src/hid/disp/oled_display.h **** 
  20:../../libDaisy//src/hid/disp/oled_display.h ****     struct Config
  21:../../libDaisy//src/hid/disp/oled_display.h ****     {
  22:../../libDaisy//src/hid/disp/oled_display.h ****         typename DisplayDriver::Config driver_config;
  23:../../libDaisy//src/hid/disp/oled_display.h ****     };
  24:../../libDaisy//src/hid/disp/oled_display.h **** 
  25:../../libDaisy//src/hid/disp/oled_display.h ****     void Init(Config config) { driver_.Init(config.driver_config); }
  26:../../libDaisy//src/hid/disp/oled_display.h **** 
  27:../../libDaisy//src/hid/disp/oled_display.h ****     uint16_t Height() const override { return driver_.Height(); }
 206              		.loc 8 27 14 is_stmt 1 view -0
 207              		.cfi_startproc
 208              		@ args = 0, pretend = 0, frame = 0
 209              		@ frame_needed = 0, uses_anonymous_args = 0
 210              		@ link register save eliminated.
 211              		.loc 8 27 65 is_stmt 0 view .LVU41
 212 0000 4020     		movs	r0, #64
 213              	.LVL4:
 214              		.loc 8 27 65 view .LVU42
 215 0002 7047     		bx	lr
 216              		.cfi_endproc
 217              	.LFE5444:
 219              		.section	.text._ZNK5daisy11OledDisplayINS_13SSD130xDriverILj128ELj64ENS_19SSD130xI2CTransportEEEE5
 220              		.align	1
 221              		.p2align 2,,3
 222              		.weak	_ZNK5daisy11OledDisplayINS_13SSD130xDriverILj128ELj64ENS_19SSD130xI2CTransportEEEE5WidthEv
 223              		.syntax unified
 224              		.thumb
 225              		.thumb_func
 226              		.fpu fpv5-d16
 228              	_ZNK5daisy11OledDisplayINS_13SSD130xDriverILj128ELj64ENS_19SSD130xI2CTransportEEEE5WidthEv:
 229              	.LVL5:
 230              	.LFB5445:
  28:../../libDaisy//src/hid/disp/oled_display.h ****     uint16_t Width() const override { return driver_.Width(); }
 231              		.loc 8 28 14 is_stmt 1 view -0
 232              		.cfi_startproc
 233              		@ args = 0, pretend = 0, frame = 0
 234              		@ frame_needed = 0, uses_anonymous_args = 0
ARM GAS  /var/folders/hl/qgbwny5j0fd895c2c41bk3tw0000gp/T//cceIFtrC.s 			page 20


 235              		@ link register save eliminated.
 236              		.loc 8 28 63 is_stmt 0 view .LVU44
 237 0000 8020     		movs	r0, #128
 238              	.LVL6:
 239              		.loc 8 28 63 view .LVU45
 240 0002 7047     		bx	lr
 241              		.cfi_endproc
 242              	.LFE5445:
 244              		.section	.text._ZN5daisy11OledDisplayINS_13SSD130xDriverILj128ELj64ENS_19SSD130xI2CTransportEEEE4F
 245              		.align	1
 246              		.p2align 2,,3
 247              		.weak	_ZN5daisy11OledDisplayINS_13SSD130xDriverILj128ELj64ENS_19SSD130xI2CTransportEEEE4FillEb
 248              		.syntax unified
 249              		.thumb
 250              		.thumb_func
 251              		.fpu fpv5-d16
 253              	_ZN5daisy11OledDisplayINS_13SSD130xDriverILj128ELj64ENS_19SSD130xI2CTransportEEEE4FillEb:
 254              	.LVL7:
 255              	.LFB5446:
  29:../../libDaisy//src/hid/disp/oled_display.h **** 
  30:../../libDaisy//src/hid/disp/oled_display.h ****     /** 
  31:../../libDaisy//src/hid/disp/oled_display.h ****     Fills the entire display with either on/off.
  32:../../libDaisy//src/hid/disp/oled_display.h ****     \param on Sets on or off.
  33:../../libDaisy//src/hid/disp/oled_display.h ****     */
  34:../../libDaisy//src/hid/disp/oled_display.h ****     void Fill(bool on) override { driver_.Fill(on); }
 256              		.loc 8 34 10 is_stmt 1 view -0
 257              		.cfi_startproc
 258              		@ args = 0, pretend = 0, frame = 0
 259              		@ frame_needed = 0, uses_anonymous_args = 0
 260              		@ link register save eliminated.
 261              	.LBB497:
 262              	.LBI497:
 263              		.file 15 "../../libDaisy//src/dev/oled_ssd130x.h"
   1:../../libDaisy//src/dev/oled_ssd130x.h **** #pragma once
   2:../../libDaisy//src/dev/oled_ssd130x.h **** #ifndef SA_OLED_SSD130X_H
   3:../../libDaisy//src/dev/oled_ssd130x.h **** #define SA_OLED_SSD130X_H /**< & */
   4:../../libDaisy//src/dev/oled_ssd130x.h **** 
   5:../../libDaisy//src/dev/oled_ssd130x.h **** #include "per/i2c.h"
   6:../../libDaisy//src/dev/oled_ssd130x.h **** #include "per/spi.h"
   7:../../libDaisy//src/dev/oled_ssd130x.h **** #include "per/gpio.h"
   8:../../libDaisy//src/dev/oled_ssd130x.h **** #include "sys/system.h"
   9:../../libDaisy//src/dev/oled_ssd130x.h **** 
  10:../../libDaisy//src/dev/oled_ssd130x.h **** namespace daisy
  11:../../libDaisy//src/dev/oled_ssd130x.h **** {
  12:../../libDaisy//src/dev/oled_ssd130x.h **** /**
  13:../../libDaisy//src/dev/oled_ssd130x.h ****  * I2C Transport for SSD1306 / SSD1309 OLED display devices
  14:../../libDaisy//src/dev/oled_ssd130x.h ****  */
  15:../../libDaisy//src/dev/oled_ssd130x.h **** class SSD130xI2CTransport
  16:../../libDaisy//src/dev/oled_ssd130x.h **** {
  17:../../libDaisy//src/dev/oled_ssd130x.h ****   public:
  18:../../libDaisy//src/dev/oled_ssd130x.h ****     struct Config
  19:../../libDaisy//src/dev/oled_ssd130x.h ****     {
  20:../../libDaisy//src/dev/oled_ssd130x.h ****         Config()
  21:../../libDaisy//src/dev/oled_ssd130x.h ****         {
  22:../../libDaisy//src/dev/oled_ssd130x.h ****             // Intialize using defaults
  23:../../libDaisy//src/dev/oled_ssd130x.h ****             Defaults();
  24:../../libDaisy//src/dev/oled_ssd130x.h ****         }
ARM GAS  /var/folders/hl/qgbwny5j0fd895c2c41bk3tw0000gp/T//cceIFtrC.s 			page 21


  25:../../libDaisy//src/dev/oled_ssd130x.h ****         I2CHandle::Config i2c_config;
  26:../../libDaisy//src/dev/oled_ssd130x.h ****         uint8_t           i2c_address;
  27:../../libDaisy//src/dev/oled_ssd130x.h ****         void              Defaults()
  28:../../libDaisy//src/dev/oled_ssd130x.h ****         {
  29:../../libDaisy//src/dev/oled_ssd130x.h ****             i2c_config.periph         = I2CHandle::Config::Peripheral::I2C_1;
  30:../../libDaisy//src/dev/oled_ssd130x.h ****             i2c_config.speed          = I2CHandle::Config::Speed::I2C_1MHZ;
  31:../../libDaisy//src/dev/oled_ssd130x.h ****             i2c_config.mode           = I2CHandle::Config::Mode::I2C_MASTER;
  32:../../libDaisy//src/dev/oled_ssd130x.h ****             i2c_config.pin_config.scl = {DSY_GPIOB, 8};
  33:../../libDaisy//src/dev/oled_ssd130x.h ****             i2c_config.pin_config.sda = {DSY_GPIOB, 9};
  34:../../libDaisy//src/dev/oled_ssd130x.h ****             i2c_address               = 0x3C;
  35:../../libDaisy//src/dev/oled_ssd130x.h ****         }
  36:../../libDaisy//src/dev/oled_ssd130x.h ****     };
  37:../../libDaisy//src/dev/oled_ssd130x.h ****     void Init(const Config& config)
  38:../../libDaisy//src/dev/oled_ssd130x.h ****     {
  39:../../libDaisy//src/dev/oled_ssd130x.h ****         i2c_address_ = config.i2c_address;
  40:../../libDaisy//src/dev/oled_ssd130x.h ****         i2c_.Init(config.i2c_config);
  41:../../libDaisy//src/dev/oled_ssd130x.h ****     };
  42:../../libDaisy//src/dev/oled_ssd130x.h ****     void SendCommand(uint8_t cmd)
  43:../../libDaisy//src/dev/oled_ssd130x.h ****     {
  44:../../libDaisy//src/dev/oled_ssd130x.h ****         uint8_t buf[2] = {0X00, cmd};
  45:../../libDaisy//src/dev/oled_ssd130x.h ****         i2c_.TransmitBlocking(i2c_address_, buf, 2, 1000);
  46:../../libDaisy//src/dev/oled_ssd130x.h ****     };
  47:../../libDaisy//src/dev/oled_ssd130x.h **** 
  48:../../libDaisy//src/dev/oled_ssd130x.h ****     void SendData(uint8_t* buff, size_t size)
  49:../../libDaisy//src/dev/oled_ssd130x.h ****     {
  50:../../libDaisy//src/dev/oled_ssd130x.h ****         for(size_t i = 0; i < size; i++)
  51:../../libDaisy//src/dev/oled_ssd130x.h ****         {
  52:../../libDaisy//src/dev/oled_ssd130x.h ****             uint8_t buf[2] = {0X40, buff[i]};
  53:../../libDaisy//src/dev/oled_ssd130x.h ****             i2c_.TransmitBlocking(i2c_address_, buf, 2, 1000);
  54:../../libDaisy//src/dev/oled_ssd130x.h ****         }
  55:../../libDaisy//src/dev/oled_ssd130x.h ****     };
  56:../../libDaisy//src/dev/oled_ssd130x.h **** 
  57:../../libDaisy//src/dev/oled_ssd130x.h ****   private:
  58:../../libDaisy//src/dev/oled_ssd130x.h ****     daisy::I2CHandle i2c_;
  59:../../libDaisy//src/dev/oled_ssd130x.h ****     uint8_t          i2c_address_;
  60:../../libDaisy//src/dev/oled_ssd130x.h **** };
  61:../../libDaisy//src/dev/oled_ssd130x.h **** 
  62:../../libDaisy//src/dev/oled_ssd130x.h **** /**
  63:../../libDaisy//src/dev/oled_ssd130x.h ****  * 4 Wire SPI Transport for SSD1306 / SSD1309 OLED display devices
  64:../../libDaisy//src/dev/oled_ssd130x.h ****  */
  65:../../libDaisy//src/dev/oled_ssd130x.h **** class SSD130x4WireSpiTransport
  66:../../libDaisy//src/dev/oled_ssd130x.h **** {
  67:../../libDaisy//src/dev/oled_ssd130x.h ****   public:
  68:../../libDaisy//src/dev/oled_ssd130x.h ****     struct Config
  69:../../libDaisy//src/dev/oled_ssd130x.h ****     {
  70:../../libDaisy//src/dev/oled_ssd130x.h ****         Config()
  71:../../libDaisy//src/dev/oled_ssd130x.h ****         {
  72:../../libDaisy//src/dev/oled_ssd130x.h ****             // Initialize using defaults
  73:../../libDaisy//src/dev/oled_ssd130x.h ****             Defaults();
  74:../../libDaisy//src/dev/oled_ssd130x.h ****         }
  75:../../libDaisy//src/dev/oled_ssd130x.h ****         SpiHandle::Config spi_config;
  76:../../libDaisy//src/dev/oled_ssd130x.h ****         struct
  77:../../libDaisy//src/dev/oled_ssd130x.h ****         {
  78:../../libDaisy//src/dev/oled_ssd130x.h ****             dsy_gpio_pin dc;    /**< & */
  79:../../libDaisy//src/dev/oled_ssd130x.h ****             dsy_gpio_pin reset; /**< & */
  80:../../libDaisy//src/dev/oled_ssd130x.h ****         } pin_config;
  81:../../libDaisy//src/dev/oled_ssd130x.h ****         void Defaults()
ARM GAS  /var/folders/hl/qgbwny5j0fd895c2c41bk3tw0000gp/T//cceIFtrC.s 			page 22


  82:../../libDaisy//src/dev/oled_ssd130x.h ****         {
  83:../../libDaisy//src/dev/oled_ssd130x.h ****             // SPI peripheral config
  84:../../libDaisy//src/dev/oled_ssd130x.h ****             spi_config.periph = SpiHandle::Config::Peripheral::SPI_1;
  85:../../libDaisy//src/dev/oled_ssd130x.h ****             spi_config.mode   = SpiHandle::Config::Mode::MASTER;
  86:../../libDaisy//src/dev/oled_ssd130x.h ****             spi_config.direction
  87:../../libDaisy//src/dev/oled_ssd130x.h ****                 = SpiHandle::Config::Direction::TWO_LINES_TX_ONLY;
  88:../../libDaisy//src/dev/oled_ssd130x.h ****             spi_config.datasize       = 8;
  89:../../libDaisy//src/dev/oled_ssd130x.h ****             spi_config.clock_polarity = SpiHandle::Config::ClockPolarity::LOW;
  90:../../libDaisy//src/dev/oled_ssd130x.h ****             spi_config.clock_phase    = SpiHandle::Config::ClockPhase::ONE_EDGE;
  91:../../libDaisy//src/dev/oled_ssd130x.h ****             spi_config.nss            = SpiHandle::Config::NSS::HARD_OUTPUT;
  92:../../libDaisy//src/dev/oled_ssd130x.h ****             spi_config.baud_prescaler = SpiHandle::Config::BaudPrescaler::PS_8;
  93:../../libDaisy//src/dev/oled_ssd130x.h ****             // SPI pin config
  94:../../libDaisy//src/dev/oled_ssd130x.h ****             spi_config.pin_config.sclk = {DSY_GPIOG, 11};
  95:../../libDaisy//src/dev/oled_ssd130x.h ****             spi_config.pin_config.miso = {DSY_GPIOX, 0};
  96:../../libDaisy//src/dev/oled_ssd130x.h ****             spi_config.pin_config.mosi = {DSY_GPIOB, 5};
  97:../../libDaisy//src/dev/oled_ssd130x.h ****             spi_config.pin_config.nss  = {DSY_GPIOG, 10};
  98:../../libDaisy//src/dev/oled_ssd130x.h ****             // SSD130x control pin config
  99:../../libDaisy//src/dev/oled_ssd130x.h ****             pin_config.dc    = {DSY_GPIOB, 4};
 100:../../libDaisy//src/dev/oled_ssd130x.h ****             pin_config.reset = {DSY_GPIOB, 15};
 101:../../libDaisy//src/dev/oled_ssd130x.h ****         }
 102:../../libDaisy//src/dev/oled_ssd130x.h ****     };
 103:../../libDaisy//src/dev/oled_ssd130x.h ****     void Init(const Config& config)
 104:../../libDaisy//src/dev/oled_ssd130x.h ****     {
 105:../../libDaisy//src/dev/oled_ssd130x.h ****         // Initialize both GPIO
 106:../../libDaisy//src/dev/oled_ssd130x.h ****         pin_dc_.mode = DSY_GPIO_MODE_OUTPUT_PP;
 107:../../libDaisy//src/dev/oled_ssd130x.h ****         pin_dc_.pin  = config.pin_config.dc;
 108:../../libDaisy//src/dev/oled_ssd130x.h ****         dsy_gpio_init(&pin_dc_);
 109:../../libDaisy//src/dev/oled_ssd130x.h ****         pin_reset_.mode = DSY_GPIO_MODE_OUTPUT_PP;
 110:../../libDaisy//src/dev/oled_ssd130x.h ****         pin_reset_.pin  = config.pin_config.reset;
 111:../../libDaisy//src/dev/oled_ssd130x.h ****         dsy_gpio_init(&pin_reset_);
 112:../../libDaisy//src/dev/oled_ssd130x.h **** 
 113:../../libDaisy//src/dev/oled_ssd130x.h ****         // Initialize SPI
 114:../../libDaisy//src/dev/oled_ssd130x.h ****         spi_.Init(config.spi_config);
 115:../../libDaisy//src/dev/oled_ssd130x.h **** 
 116:../../libDaisy//src/dev/oled_ssd130x.h ****         // Reset and Configure OLED.
 117:../../libDaisy//src/dev/oled_ssd130x.h ****         dsy_gpio_write(&pin_reset_, 0);
 118:../../libDaisy//src/dev/oled_ssd130x.h ****         System::Delay(10);
 119:../../libDaisy//src/dev/oled_ssd130x.h ****         dsy_gpio_write(&pin_reset_, 1);
 120:../../libDaisy//src/dev/oled_ssd130x.h ****         System::Delay(10);
 121:../../libDaisy//src/dev/oled_ssd130x.h ****     };
 122:../../libDaisy//src/dev/oled_ssd130x.h ****     void SendCommand(uint8_t cmd)
 123:../../libDaisy//src/dev/oled_ssd130x.h ****     {
 124:../../libDaisy//src/dev/oled_ssd130x.h ****         dsy_gpio_write(&pin_dc_, 0);
 125:../../libDaisy//src/dev/oled_ssd130x.h ****         spi_.BlockingTransmit(&cmd, 1);
 126:../../libDaisy//src/dev/oled_ssd130x.h ****     };
 127:../../libDaisy//src/dev/oled_ssd130x.h **** 
 128:../../libDaisy//src/dev/oled_ssd130x.h ****     void SendData(uint8_t* buff, size_t size)
 129:../../libDaisy//src/dev/oled_ssd130x.h ****     {
 130:../../libDaisy//src/dev/oled_ssd130x.h ****         dsy_gpio_write(&pin_dc_, 1);
 131:../../libDaisy//src/dev/oled_ssd130x.h ****         spi_.BlockingTransmit(buff, size);
 132:../../libDaisy//src/dev/oled_ssd130x.h ****     };
 133:../../libDaisy//src/dev/oled_ssd130x.h **** 
 134:../../libDaisy//src/dev/oled_ssd130x.h ****   private:
 135:../../libDaisy//src/dev/oled_ssd130x.h ****     SpiHandle spi_;
 136:../../libDaisy//src/dev/oled_ssd130x.h ****     dsy_gpio  pin_reset_;
 137:../../libDaisy//src/dev/oled_ssd130x.h ****     dsy_gpio  pin_dc_;
 138:../../libDaisy//src/dev/oled_ssd130x.h **** };
ARM GAS  /var/folders/hl/qgbwny5j0fd895c2c41bk3tw0000gp/T//cceIFtrC.s 			page 23


 139:../../libDaisy//src/dev/oled_ssd130x.h **** 
 140:../../libDaisy//src/dev/oled_ssd130x.h **** /**
 141:../../libDaisy//src/dev/oled_ssd130x.h ****  * Soft SPI Transport for SSD1306 / SSD1309 OLED display devices
 142:../../libDaisy//src/dev/oled_ssd130x.h ****  */
 143:../../libDaisy//src/dev/oled_ssd130x.h **** class SSD130x4WireSoftSpiTransport
 144:../../libDaisy//src/dev/oled_ssd130x.h **** {
 145:../../libDaisy//src/dev/oled_ssd130x.h ****   public:
 146:../../libDaisy//src/dev/oled_ssd130x.h ****     struct Config
 147:../../libDaisy//src/dev/oled_ssd130x.h ****     {
 148:../../libDaisy//src/dev/oled_ssd130x.h ****         Config()
 149:../../libDaisy//src/dev/oled_ssd130x.h ****         {
 150:../../libDaisy//src/dev/oled_ssd130x.h ****             // Initialize using defaults
 151:../../libDaisy//src/dev/oled_ssd130x.h ****             Defaults();
 152:../../libDaisy//src/dev/oled_ssd130x.h ****         }
 153:../../libDaisy//src/dev/oled_ssd130x.h ****         struct
 154:../../libDaisy//src/dev/oled_ssd130x.h ****         {
 155:../../libDaisy//src/dev/oled_ssd130x.h ****             uint32_t     sclk_delay;
 156:../../libDaisy//src/dev/oled_ssd130x.h ****             dsy_gpio_pin sclk;
 157:../../libDaisy//src/dev/oled_ssd130x.h ****             dsy_gpio_pin mosi;
 158:../../libDaisy//src/dev/oled_ssd130x.h ****             dsy_gpio_pin dc;
 159:../../libDaisy//src/dev/oled_ssd130x.h ****             dsy_gpio_pin reset;
 160:../../libDaisy//src/dev/oled_ssd130x.h ****         } pin_config;
 161:../../libDaisy//src/dev/oled_ssd130x.h ****         void Defaults()
 162:../../libDaisy//src/dev/oled_ssd130x.h ****         {
 163:../../libDaisy//src/dev/oled_ssd130x.h ****             pin_config.sclk_delay = 0; // fast as possible?!
 164:../../libDaisy//src/dev/oled_ssd130x.h ****             // SPI peripheral config
 165:../../libDaisy//src/dev/oled_ssd130x.h ****             pin_config.sclk = {DSY_GPIOD, 3}; /**< D10 - SPI2 SCK  */
 166:../../libDaisy//src/dev/oled_ssd130x.h ****             pin_config.mosi = {DSY_GPIOC, 3}; /**< D9  - SPI2 MOSI */
 167:../../libDaisy//src/dev/oled_ssd130x.h ****             // SSD130x control pin config
 168:../../libDaisy//src/dev/oled_ssd130x.h ****             pin_config.dc    = {DSY_GPIOC, 11}; //D2
 169:../../libDaisy//src/dev/oled_ssd130x.h ****             pin_config.reset = {DSY_GPIOC, 10}; //D3
 170:../../libDaisy//src/dev/oled_ssd130x.h ****         }
 171:../../libDaisy//src/dev/oled_ssd130x.h ****     };
 172:../../libDaisy//src/dev/oled_ssd130x.h ****     void Init(const Config& config)
 173:../../libDaisy//src/dev/oled_ssd130x.h ****     {
 174:../../libDaisy//src/dev/oled_ssd130x.h ****         // Initialize both GPIO
 175:../../libDaisy//src/dev/oled_ssd130x.h ****         pin_sclk_.mode = DSY_GPIO_MODE_OUTPUT_PP;
 176:../../libDaisy//src/dev/oled_ssd130x.h ****         pin_sclk_.pin  = config.pin_config.sclk;
 177:../../libDaisy//src/dev/oled_ssd130x.h ****         dsy_gpio_init(&pin_sclk_);
 178:../../libDaisy//src/dev/oled_ssd130x.h ****         dsy_gpio_write(&pin_sclk_, 1); //ClockPolarity::LOW
 179:../../libDaisy//src/dev/oled_ssd130x.h ****         clk_delay      = config.pin_config.sclk_delay;
 180:../../libDaisy//src/dev/oled_ssd130x.h ****         pin_mosi_.mode = DSY_GPIO_MODE_OUTPUT_PP;
 181:../../libDaisy//src/dev/oled_ssd130x.h ****         pin_mosi_.pin  = config.pin_config.mosi;
 182:../../libDaisy//src/dev/oled_ssd130x.h ****         dsy_gpio_init(&pin_mosi_);
 183:../../libDaisy//src/dev/oled_ssd130x.h ****         dsy_gpio_write(&pin_mosi_, 0);
 184:../../libDaisy//src/dev/oled_ssd130x.h **** 
 185:../../libDaisy//src/dev/oled_ssd130x.h ****         pin_dc_.mode = DSY_GPIO_MODE_OUTPUT_PP;
 186:../../libDaisy//src/dev/oled_ssd130x.h ****         pin_dc_.pin  = config.pin_config.dc;
 187:../../libDaisy//src/dev/oled_ssd130x.h ****         dsy_gpio_init(&pin_dc_);
 188:../../libDaisy//src/dev/oled_ssd130x.h ****         pin_reset_.mode = DSY_GPIO_MODE_OUTPUT_PP;
 189:../../libDaisy//src/dev/oled_ssd130x.h ****         pin_reset_.pin  = config.pin_config.reset;
 190:../../libDaisy//src/dev/oled_ssd130x.h ****         dsy_gpio_init(&pin_reset_);
 191:../../libDaisy//src/dev/oled_ssd130x.h **** 
 192:../../libDaisy//src/dev/oled_ssd130x.h ****         // Reset and Configure OLED.
 193:../../libDaisy//src/dev/oled_ssd130x.h ****         dsy_gpio_write(&pin_reset_, 0);
 194:../../libDaisy//src/dev/oled_ssd130x.h ****         System::Delay(10);
 195:../../libDaisy//src/dev/oled_ssd130x.h ****         dsy_gpio_write(&pin_reset_, 1);
ARM GAS  /var/folders/hl/qgbwny5j0fd895c2c41bk3tw0000gp/T//cceIFtrC.s 			page 24


 196:../../libDaisy//src/dev/oled_ssd130x.h ****         System::Delay(10);
 197:../../libDaisy//src/dev/oled_ssd130x.h ****     };
 198:../../libDaisy//src/dev/oled_ssd130x.h ****     void SendCommand(uint8_t cmd)
 199:../../libDaisy//src/dev/oled_ssd130x.h ****     {
 200:../../libDaisy//src/dev/oled_ssd130x.h ****         dsy_gpio_write(&pin_dc_, 0);
 201:../../libDaisy//src/dev/oled_ssd130x.h ****         SoftSpiTransmit(cmd);
 202:../../libDaisy//src/dev/oled_ssd130x.h ****     };
 203:../../libDaisy//src/dev/oled_ssd130x.h **** 
 204:../../libDaisy//src/dev/oled_ssd130x.h ****     void SendData(uint8_t* buff, size_t size)
 205:../../libDaisy//src/dev/oled_ssd130x.h ****     {
 206:../../libDaisy//src/dev/oled_ssd130x.h ****         dsy_gpio_write(&pin_dc_, 1);
 207:../../libDaisy//src/dev/oled_ssd130x.h ****         for(size_t i = 0; i < size; i++)
 208:../../libDaisy//src/dev/oled_ssd130x.h ****             SoftSpiTransmit(buff[i]);
 209:../../libDaisy//src/dev/oled_ssd130x.h ****     };
 210:../../libDaisy//src/dev/oled_ssd130x.h **** 
 211:../../libDaisy//src/dev/oled_ssd130x.h ****   private:
 212:../../libDaisy//src/dev/oled_ssd130x.h ****     void SoftSpiTransmit(uint8_t val)
 213:../../libDaisy//src/dev/oled_ssd130x.h ****     {
 214:../../libDaisy//src/dev/oled_ssd130x.h ****         // bit flip
 215:../../libDaisy//src/dev/oled_ssd130x.h ****         val = ((val & 0x01) << 7) | ((val & 0x02) << 5) | ((val & 0x04) << 3)
 216:../../libDaisy//src/dev/oled_ssd130x.h ****               | ((val & 0x08) << 1) | ((val & 0x10) >> 1) | ((val & 0x20) >> 3)
 217:../../libDaisy//src/dev/oled_ssd130x.h ****               | ((val & 0x40) >> 5) | ((val & 0x80) >> 7);
 218:../../libDaisy//src/dev/oled_ssd130x.h **** 
 219:../../libDaisy//src/dev/oled_ssd130x.h ****         for(uint8_t bit = 0u; bit < 8u; bit++)
 220:../../libDaisy//src/dev/oled_ssd130x.h ****         {
 221:../../libDaisy//src/dev/oled_ssd130x.h ****             dsy_gpio_write(&pin_mosi_, ((val & (1 << bit)) ? 1 : 0));
 222:../../libDaisy//src/dev/oled_ssd130x.h **** 
 223:../../libDaisy//src/dev/oled_ssd130x.h ****             System::DelayTicks(clk_delay);
 224:../../libDaisy//src/dev/oled_ssd130x.h **** 
 225:../../libDaisy//src/dev/oled_ssd130x.h ****             dsy_gpio_toggle(&pin_sclk_);
 226:../../libDaisy//src/dev/oled_ssd130x.h **** 
 227:../../libDaisy//src/dev/oled_ssd130x.h ****             System::DelayTicks(clk_delay);
 228:../../libDaisy//src/dev/oled_ssd130x.h **** 
 229:../../libDaisy//src/dev/oled_ssd130x.h ****             dsy_gpio_toggle(&pin_sclk_);
 230:../../libDaisy//src/dev/oled_ssd130x.h ****         }
 231:../../libDaisy//src/dev/oled_ssd130x.h ****     }
 232:../../libDaisy//src/dev/oled_ssd130x.h **** 
 233:../../libDaisy//src/dev/oled_ssd130x.h ****     uint32_t clk_delay;
 234:../../libDaisy//src/dev/oled_ssd130x.h ****     dsy_gpio pin_sclk_;
 235:../../libDaisy//src/dev/oled_ssd130x.h ****     dsy_gpio pin_mosi_;
 236:../../libDaisy//src/dev/oled_ssd130x.h ****     dsy_gpio pin_reset_;
 237:../../libDaisy//src/dev/oled_ssd130x.h ****     dsy_gpio pin_dc_;
 238:../../libDaisy//src/dev/oled_ssd130x.h **** };
 239:../../libDaisy//src/dev/oled_ssd130x.h **** 
 240:../../libDaisy//src/dev/oled_ssd130x.h **** 
 241:../../libDaisy//src/dev/oled_ssd130x.h **** /**
 242:../../libDaisy//src/dev/oled_ssd130x.h ****  * A driver implementation for the SSD1306/SSD1309
 243:../../libDaisy//src/dev/oled_ssd130x.h ****  */
 244:../../libDaisy//src/dev/oled_ssd130x.h **** template <size_t width, size_t height, typename Transport>
 245:../../libDaisy//src/dev/oled_ssd130x.h **** class SSD130xDriver
 246:../../libDaisy//src/dev/oled_ssd130x.h **** {
 247:../../libDaisy//src/dev/oled_ssd130x.h ****   public:
 248:../../libDaisy//src/dev/oled_ssd130x.h ****     struct Config
 249:../../libDaisy//src/dev/oled_ssd130x.h ****     {
 250:../../libDaisy//src/dev/oled_ssd130x.h ****         typename Transport::Config transport_config;
 251:../../libDaisy//src/dev/oled_ssd130x.h ****     };
 252:../../libDaisy//src/dev/oled_ssd130x.h **** 
ARM GAS  /var/folders/hl/qgbwny5j0fd895c2c41bk3tw0000gp/T//cceIFtrC.s 			page 25


 253:../../libDaisy//src/dev/oled_ssd130x.h ****     void Init(Config config)
 254:../../libDaisy//src/dev/oled_ssd130x.h ****     {
 255:../../libDaisy//src/dev/oled_ssd130x.h ****         transport_.Init(config.transport_config);
 256:../../libDaisy//src/dev/oled_ssd130x.h **** 
 257:../../libDaisy//src/dev/oled_ssd130x.h ****         // Init routine...
 258:../../libDaisy//src/dev/oled_ssd130x.h **** 
 259:../../libDaisy//src/dev/oled_ssd130x.h ****         // Display Off
 260:../../libDaisy//src/dev/oled_ssd130x.h ****         transport_.SendCommand(0xaE);
 261:../../libDaisy//src/dev/oled_ssd130x.h ****         // Dimension dependent commands...
 262:../../libDaisy//src/dev/oled_ssd130x.h ****         switch(height)
 263:../../libDaisy//src/dev/oled_ssd130x.h ****         {
 264:../../libDaisy//src/dev/oled_ssd130x.h ****             case 16:
 265:../../libDaisy//src/dev/oled_ssd130x.h ****                 // Display Clock Divide Ratio
 266:../../libDaisy//src/dev/oled_ssd130x.h ****                 transport_.SendCommand(0xD5);
 267:../../libDaisy//src/dev/oled_ssd130x.h ****                 transport_.SendCommand(0x60);
 268:../../libDaisy//src/dev/oled_ssd130x.h ****                 // Multiplex Ratio
 269:../../libDaisy//src/dev/oled_ssd130x.h ****                 transport_.SendCommand(0xA8);
 270:../../libDaisy//src/dev/oled_ssd130x.h ****                 transport_.SendCommand(0x0F);
 271:../../libDaisy//src/dev/oled_ssd130x.h ****                 // COM Pins
 272:../../libDaisy//src/dev/oled_ssd130x.h ****                 transport_.SendCommand(0xDA);
 273:../../libDaisy//src/dev/oled_ssd130x.h ****                 transport_.SendCommand(0x02);
 274:../../libDaisy//src/dev/oled_ssd130x.h ****                 break;
 275:../../libDaisy//src/dev/oled_ssd130x.h ****             case 32:
 276:../../libDaisy//src/dev/oled_ssd130x.h ****                 // Display Clock Divide Ratio
 277:../../libDaisy//src/dev/oled_ssd130x.h ****                 transport_.SendCommand(0xD5);
 278:../../libDaisy//src/dev/oled_ssd130x.h ****                 transport_.SendCommand(0x80);
 279:../../libDaisy//src/dev/oled_ssd130x.h ****                 // Multiplex Ratio
 280:../../libDaisy//src/dev/oled_ssd130x.h ****                 transport_.SendCommand(0xA8);
 281:../../libDaisy//src/dev/oled_ssd130x.h ****                 transport_.SendCommand(0x1F);
 282:../../libDaisy//src/dev/oled_ssd130x.h ****                 // COM Pins
 283:../../libDaisy//src/dev/oled_ssd130x.h ****                 transport_.SendCommand(0xDA);
 284:../../libDaisy//src/dev/oled_ssd130x.h ****                 if(width == 64)
 285:../../libDaisy//src/dev/oled_ssd130x.h ****                 {
 286:../../libDaisy//src/dev/oled_ssd130x.h ****                     transport_.SendCommand(0x12);
 287:../../libDaisy//src/dev/oled_ssd130x.h ****                 }
 288:../../libDaisy//src/dev/oled_ssd130x.h ****                 else
 289:../../libDaisy//src/dev/oled_ssd130x.h ****                 {
 290:../../libDaisy//src/dev/oled_ssd130x.h ****                     transport_.SendCommand(0x02);
 291:../../libDaisy//src/dev/oled_ssd130x.h ****                 }
 292:../../libDaisy//src/dev/oled_ssd130x.h **** 
 293:../../libDaisy//src/dev/oled_ssd130x.h ****                 break;
 294:../../libDaisy//src/dev/oled_ssd130x.h ****             case 48:
 295:../../libDaisy//src/dev/oled_ssd130x.h ****                 // Display Clock Divide Ratio
 296:../../libDaisy//src/dev/oled_ssd130x.h ****                 transport_.SendCommand(0xD5);
 297:../../libDaisy//src/dev/oled_ssd130x.h ****                 transport_.SendCommand(0x80);
 298:../../libDaisy//src/dev/oled_ssd130x.h ****                 // Multiplex Ratio
 299:../../libDaisy//src/dev/oled_ssd130x.h ****                 transport_.SendCommand(0xA8);
 300:../../libDaisy//src/dev/oled_ssd130x.h ****                 transport_.SendCommand(0x2F);
 301:../../libDaisy//src/dev/oled_ssd130x.h ****                 // COM Pins
 302:../../libDaisy//src/dev/oled_ssd130x.h ****                 transport_.SendCommand(0xDA);
 303:../../libDaisy//src/dev/oled_ssd130x.h ****                 transport_.SendCommand(0x12);
 304:../../libDaisy//src/dev/oled_ssd130x.h ****                 break;
 305:../../libDaisy//src/dev/oled_ssd130x.h ****             default: // 128
 306:../../libDaisy//src/dev/oled_ssd130x.h ****                 // Display Clock Divide Ratio
 307:../../libDaisy//src/dev/oled_ssd130x.h ****                 transport_.SendCommand(0xD5);
 308:../../libDaisy//src/dev/oled_ssd130x.h ****                 transport_.SendCommand(0x80);
 309:../../libDaisy//src/dev/oled_ssd130x.h ****                 // Multiplex Ratio
ARM GAS  /var/folders/hl/qgbwny5j0fd895c2c41bk3tw0000gp/T//cceIFtrC.s 			page 26


 310:../../libDaisy//src/dev/oled_ssd130x.h ****                 transport_.SendCommand(0xA8);
 311:../../libDaisy//src/dev/oled_ssd130x.h ****                 transport_.SendCommand(0x3F);
 312:../../libDaisy//src/dev/oled_ssd130x.h ****                 // COM Pins
 313:../../libDaisy//src/dev/oled_ssd130x.h ****                 transport_.SendCommand(0xDA);
 314:../../libDaisy//src/dev/oled_ssd130x.h ****                 transport_.SendCommand(0x12);
 315:../../libDaisy//src/dev/oled_ssd130x.h ****                 break;
 316:../../libDaisy//src/dev/oled_ssd130x.h ****         }
 317:../../libDaisy//src/dev/oled_ssd130x.h **** 
 318:../../libDaisy//src/dev/oled_ssd130x.h ****         // Display Offset
 319:../../libDaisy//src/dev/oled_ssd130x.h ****         transport_.SendCommand(0xD3);
 320:../../libDaisy//src/dev/oled_ssd130x.h ****         transport_.SendCommand(0x00);
 321:../../libDaisy//src/dev/oled_ssd130x.h ****         // Start Line Address
 322:../../libDaisy//src/dev/oled_ssd130x.h ****         transport_.SendCommand(0x40);
 323:../../libDaisy//src/dev/oled_ssd130x.h ****         // Normal Display
 324:../../libDaisy//src/dev/oled_ssd130x.h ****         transport_.SendCommand(0xA6);
 325:../../libDaisy//src/dev/oled_ssd130x.h ****         // All On Resume
 326:../../libDaisy//src/dev/oled_ssd130x.h ****         transport_.SendCommand(0xA4);
 327:../../libDaisy//src/dev/oled_ssd130x.h ****         // Charge Pump
 328:../../libDaisy//src/dev/oled_ssd130x.h ****         transport_.SendCommand(0x8D);
 329:../../libDaisy//src/dev/oled_ssd130x.h ****         transport_.SendCommand(0x14);
 330:../../libDaisy//src/dev/oled_ssd130x.h ****         // Set Segment Remap
 331:../../libDaisy//src/dev/oled_ssd130x.h ****         transport_.SendCommand(0xA1);
 332:../../libDaisy//src/dev/oled_ssd130x.h ****         // COM Output Scan Direction
 333:../../libDaisy//src/dev/oled_ssd130x.h ****         transport_.SendCommand(0xC8);
 334:../../libDaisy//src/dev/oled_ssd130x.h ****         // Contrast Control
 335:../../libDaisy//src/dev/oled_ssd130x.h ****         transport_.SendCommand(0x81);
 336:../../libDaisy//src/dev/oled_ssd130x.h ****         transport_.SendCommand(0x8F);
 337:../../libDaisy//src/dev/oled_ssd130x.h ****         // Pre Charge
 338:../../libDaisy//src/dev/oled_ssd130x.h ****         transport_.SendCommand(0xD9);
 339:../../libDaisy//src/dev/oled_ssd130x.h ****         transport_.SendCommand(0x25);
 340:../../libDaisy//src/dev/oled_ssd130x.h ****         // VCOM Detect
 341:../../libDaisy//src/dev/oled_ssd130x.h ****         transport_.SendCommand(0xDB);
 342:../../libDaisy//src/dev/oled_ssd130x.h ****         transport_.SendCommand(0x34);
 343:../../libDaisy//src/dev/oled_ssd130x.h **** 
 344:../../libDaisy//src/dev/oled_ssd130x.h **** 
 345:../../libDaisy//src/dev/oled_ssd130x.h ****         // Display On
 346:../../libDaisy//src/dev/oled_ssd130x.h ****         transport_.SendCommand(0xAF); //--turn on oled panel
 347:../../libDaisy//src/dev/oled_ssd130x.h ****     };
 348:../../libDaisy//src/dev/oled_ssd130x.h **** 
 349:../../libDaisy//src/dev/oled_ssd130x.h ****     size_t Width() const { return width; };
 350:../../libDaisy//src/dev/oled_ssd130x.h ****     size_t Height() const { return height; };
 351:../../libDaisy//src/dev/oled_ssd130x.h **** 
 352:../../libDaisy//src/dev/oled_ssd130x.h ****     void DrawPixel(uint_fast8_t x, uint_fast8_t y, bool on)
 353:../../libDaisy//src/dev/oled_ssd130x.h ****     {
 354:../../libDaisy//src/dev/oled_ssd130x.h ****         if(x >= width || y >= height)
 355:../../libDaisy//src/dev/oled_ssd130x.h ****             return;
 356:../../libDaisy//src/dev/oled_ssd130x.h ****         if(on)
 357:../../libDaisy//src/dev/oled_ssd130x.h ****             buffer_[x + (y / 8) * width] |= (1 << (y % 8));
 358:../../libDaisy//src/dev/oled_ssd130x.h ****         else
 359:../../libDaisy//src/dev/oled_ssd130x.h ****             buffer_[x + (y / 8) * width] &= ~(1 << (y % 8));
 360:../../libDaisy//src/dev/oled_ssd130x.h ****     }
 361:../../libDaisy//src/dev/oled_ssd130x.h **** 
 362:../../libDaisy//src/dev/oled_ssd130x.h ****     void Fill(bool on)
 264              		.loc 15 362 10 view .LVU47
 265              	.LBB498:
 363:../../libDaisy//src/dev/oled_ssd130x.h ****     {
 364:../../libDaisy//src/dev/oled_ssd130x.h ****         for(size_t i = 0; i < sizeof(buffer_); i++)
ARM GAS  /var/folders/hl/qgbwny5j0fd895c2c41bk3tw0000gp/T//cceIFtrC.s 			page 27


 266              		.loc 15 364 29 view .LVU48
 365:../../libDaisy//src/dev/oled_ssd130x.h ****         {
 366:../../libDaisy//src/dev/oled_ssd130x.h ****             buffer_[i] = on ? 0xff : 0x00;
 267              		.loc 15 366 24 is_stmt 0 view .LVU49
 268 0000 4942     		rsbs	r1, r1, #0
 269              	.LVL8:
 270              		.loc 15 366 24 view .LVU50
 271 0002 4FF48062 		mov	r2, #1024
 272 0006 1030     		adds	r0, r0, #16
 273              	.LVL9:
 274              		.loc 15 366 24 view .LVU51
 275 0008 C9B2     		uxtb	r1, r1
 276 000a FFF7FEBF 		b	memset
 277              	.LVL10:
 278              		.loc 15 366 24 view .LVU52
 279              	.LBE498:
 280              	.LBE497:
 281              		.cfi_endproc
 282              	.LFE5446:
 284 000e 00BF     		.section	.text._ZN5daisy11OledDisplayINS_13SSD130xDriverILj128ELj64ENS_19SSD130xI2CTransportEEEED0
 285              		.align	1
 286              		.p2align 2,,3
 287              		.weak	_ZN5daisy11OledDisplayINS_13SSD130xDriverILj128ELj64ENS_19SSD130xI2CTransportEEEED0Ev
 288              		.syntax unified
 289              		.thumb
 290              		.thumb_func
 291              		.fpu fpv5-d16
 293              	_ZN5daisy11OledDisplayINS_13SSD130xDriverILj128ELj64ENS_19SSD130xI2CTransportEEEED0Ev:
 294              	.LVL11:
 295              	.LFB5178:
  18:../../libDaisy//src/hid/disp/oled_display.h **** 
 296              		.loc 8 18 13 is_stmt 1 view -0
 297              		.cfi_startproc
 298              		@ args = 0, pretend = 0, frame = 0
 299              		@ frame_needed = 0, uses_anonymous_args = 0
  18:../../libDaisy//src/hid/disp/oled_display.h **** 
 300              		.loc 8 18 13 is_stmt 0 view .LVU54
 301 0000 10B5     		push	{r4, lr}
 302              		.cfi_def_cfa_offset 8
 303              		.cfi_offset 4, -8
 304              		.cfi_offset 14, -4
  18:../../libDaisy//src/hid/disp/oled_display.h **** 
 305              		.loc 8 18 13 view .LVU55
 306 0002 0446     		mov	r4, r0
 307              	.LVL12:
 308              	.LBB499:
 309              	.LBI499:
  18:../../libDaisy//src/hid/disp/oled_display.h **** 
 310              		.loc 8 18 13 is_stmt 1 view .LVU56
 311              	.LBB500:
 312              	.LBI500:
 313              		.loc 9 219 13 view .LVU57
 314              	.LBB501:
 315              	.LBI501:
  23:../../libDaisy//src/hid/disp/display.h **** 
 316              		.loc 9 23 13 view .LVU58
  23:../../libDaisy//src/hid/disp/display.h **** 
ARM GAS  /var/folders/hl/qgbwny5j0fd895c2c41bk3tw0000gp/T//cceIFtrC.s 			page 28


 317              		.loc 9 23 13 is_stmt 0 view .LVU59
 318              	.LBE501:
 319              	.LBE500:
 320              	.LBE499:
  18:../../libDaisy//src/hid/disp/oled_display.h **** 
 321              		.loc 8 18 29 view .LVU60
 322 0004 4FF48261 		mov	r1, #1040
 323 0008 FFF7FEFF 		bl	_ZdlPvj
 324              	.LVL13:
  18:../../libDaisy//src/hid/disp/oled_display.h **** 
 325              		.loc 8 18 29 view .LVU61
 326 000c 2046     		mov	r0, r4
 327 000e 10BD     		pop	{r4, pc}
  18:../../libDaisy//src/hid/disp/oled_display.h **** 
 328              		.loc 8 18 29 view .LVU62
 329              		.cfi_endproc
 330              	.LFE5178:
 332              		.section	.text._ZN5daisy11OledDisplayINS_13SSD130xDriverILj128ELj64ENS_19SSD130xI2CTransportEEEE6U
 333              		.align	1
 334              		.p2align 2,,3
 335              		.weak	_ZN5daisy11OledDisplayINS_13SSD130xDriverILj128ELj64ENS_19SSD130xI2CTransportEEEE6UpdateEv
 336              		.syntax unified
 337              		.thumb
 338              		.thumb_func
 339              		.fpu fpv5-d16
 341              	_ZN5daisy11OledDisplayINS_13SSD130xDriverILj128ELj64ENS_19SSD130xI2CTransportEEEE6UpdateEv:
 342              	.LVL14:
 343              	.LFB5454:
  35:../../libDaisy//src/hid/disp/oled_display.h **** 
  36:../../libDaisy//src/hid/disp/oled_display.h ****     /**
  37:../../libDaisy//src/hid/disp/oled_display.h ****     Sets the pixel at the specified coordinate to be on/off.
  38:../../libDaisy//src/hid/disp/oled_display.h ****     \param x   x Coordinate
  39:../../libDaisy//src/hid/disp/oled_display.h ****     \param y   y coordinate
  40:../../libDaisy//src/hid/disp/oled_display.h ****     \param on  on or off
  41:../../libDaisy//src/hid/disp/oled_display.h ****     */
  42:../../libDaisy//src/hid/disp/oled_display.h ****     void DrawPixel(uint_fast8_t x, uint_fast8_t y, bool on) override
  43:../../libDaisy//src/hid/disp/oled_display.h ****     {
  44:../../libDaisy//src/hid/disp/oled_display.h ****         driver_.DrawPixel(x, y, on);
  45:../../libDaisy//src/hid/disp/oled_display.h ****     }
  46:../../libDaisy//src/hid/disp/oled_display.h **** 
  47:../../libDaisy//src/hid/disp/oled_display.h ****     /** 
  48:../../libDaisy//src/hid/disp/oled_display.h ****     Writes the current display buffer to the OLED device using SPI or I2C depending on 
  49:../../libDaisy//src/hid/disp/oled_display.h ****     how the object was initialized.
  50:../../libDaisy//src/hid/disp/oled_display.h ****     */
  51:../../libDaisy//src/hid/disp/oled_display.h ****     void Update() override { driver_.Update(); }
 344              		.loc 8 51 10 is_stmt 1 view -0
 345              		.cfi_startproc
 346              		@ args = 0, pretend = 0, frame = 8
 347              		@ frame_needed = 0, uses_anonymous_args = 0
 348              		.loc 8 51 10 is_stmt 0 view .LVU64
 349 0000 2DE9F04F 		push	{r4, r5, r6, r7, r8, r9, r10, fp, lr}
 350              		.cfi_def_cfa_offset 36
 351              		.cfi_offset 4, -36
 352              		.cfi_offset 5, -32
 353              		.cfi_offset 6, -28
 354              		.cfi_offset 7, -24
 355              		.cfi_offset 8, -20
ARM GAS  /var/folders/hl/qgbwny5j0fd895c2c41bk3tw0000gp/T//cceIFtrC.s 			page 29


 356              		.cfi_offset 9, -16
 357              		.cfi_offset 10, -12
 358              		.cfi_offset 11, -8
 359              		.cfi_offset 14, -4
 360              	.LBB514:
 361              	.LBB515:
 362              	.LBB516:
 363              	.LBB517:
  45:../../libDaisy//src/dev/oled_ssd130x.h ****     };
 364              		.loc 15 45 30 view .LVU65
 365 0004 4FF0B008 		mov	r8, #176
 366              	.LBE517:
 367              	.LBE516:
 368              	.LBE515:
 369              	.LBE514:
 370              		.loc 8 51 10 view .LVU66
 371 0008 85B0     		sub	sp, sp, #20
 372              		.cfi_def_cfa_offset 56
 373              		.loc 8 51 10 view .LVU67
 374 000a 0546     		mov	r5, r0
 375              	.LVL15:
 376              	.LBB529:
 377              	.LBI514:
 367:../../libDaisy//src/dev/oled_ssd130x.h ****         }
 368:../../libDaisy//src/dev/oled_ssd130x.h ****     };
 369:../../libDaisy//src/dev/oled_ssd130x.h **** 
 370:../../libDaisy//src/dev/oled_ssd130x.h ****     /**
 371:../../libDaisy//src/dev/oled_ssd130x.h ****      * Update the display 
 372:../../libDaisy//src/dev/oled_ssd130x.h ****     */
 373:../../libDaisy//src/dev/oled_ssd130x.h ****     void Update()
 378              		.loc 15 373 10 is_stmt 1 view .LVU68
 379              	.LBB528:
 374:../../libDaisy//src/dev/oled_ssd130x.h ****     {
 375:../../libDaisy//src/dev/oled_ssd130x.h ****         uint8_t i;
 376:../../libDaisy//src/dev/oled_ssd130x.h ****         uint8_t high_column_addr;
 377:../../libDaisy//src/dev/oled_ssd130x.h ****         switch(height)
 378:../../libDaisy//src/dev/oled_ssd130x.h ****         {
 379:../../libDaisy//src/dev/oled_ssd130x.h ****             case 32: high_column_addr = 0x12; break;
 380:../../libDaisy//src/dev/oled_ssd130x.h **** 
 381:../../libDaisy//src/dev/oled_ssd130x.h ****             default: high_column_addr = 0x10; break;
 382:../../libDaisy//src/dev/oled_ssd130x.h ****         }
 383:../../libDaisy//src/dev/oled_ssd130x.h ****         for(i = 0; i < (height / 8); i++)
 380              		.loc 15 383 22 view .LVU69
 381              	.LBB520:
 382              	.LBB518:
  45:../../libDaisy//src/dev/oled_ssd130x.h ****     };
 383              		.loc 15 45 30 is_stmt 0 view .LVU70
 384 000c 00F10807 		add	r7, r0, #8
 385              	.LVL16:
  45:../../libDaisy//src/dev/oled_ssd130x.h ****     };
 386              		.loc 15 45 30 view .LVU71
 387 0010 00F18F06 		add	r6, r0, #143
 388 0014 00F28F49 		addw	r9, r0, #1167
 389              	.LVL17:
 390              	.L12:
  45:../../libDaisy//src/dev/oled_ssd130x.h ****     };
 391              		.loc 15 45 30 view .LVU72
ARM GAS  /var/folders/hl/qgbwny5j0fd895c2c41bk3tw0000gp/T//cceIFtrC.s 			page 30


 392              	.LBE518:
 393              	.LBI516:
  42:../../libDaisy//src/dev/oled_ssd130x.h ****     {
 394              		.loc 15 42 10 is_stmt 1 view .LVU73
 395              	.LBB519:
  44:../../libDaisy//src/dev/oled_ssd130x.h ****         i2c_.TransmitBlocking(i2c_address_, buf, 2, 1000);
 396              		.loc 15 44 9 view .LVU74
  45:../../libDaisy//src/dev/oled_ssd130x.h ****     };
 397              		.loc 15 45 30 is_stmt 0 view .LVU75
 398 0018 4FF47A7B 		mov	fp, #1000
  44:../../libDaisy//src/dev/oled_ssd130x.h ****         i2c_.TransmitBlocking(i2c_address_, buf, 2, 1000);
 399              		.loc 15 44 17 view .LVU76
 400 001c 4FF0000A 		mov	r10, #0
  45:../../libDaisy//src/dev/oled_ssd130x.h ****     };
 401              		.loc 15 45 30 view .LVU77
 402 0020 297B     		ldrb	r1, [r5, #12]	@ zero_extendqisi2
 403 0022 0223     		movs	r3, #2
 404 0024 03AA     		add	r2, sp, #12
 405 0026 3846     		mov	r0, r7
 406 0028 CDF800B0 		str	fp, [sp]
 407 002c A6F18004 		sub	r4, r6, #128
  44:../../libDaisy//src/dev/oled_ssd130x.h ****         i2c_.TransmitBlocking(i2c_address_, buf, 2, 1000);
 408              		.loc 15 44 17 view .LVU78
 409 0030 8DF80CA0 		strb	r10, [sp, #12]
  44:../../libDaisy//src/dev/oled_ssd130x.h ****         i2c_.TransmitBlocking(i2c_address_, buf, 2, 1000);
 410              		.loc 15 44 36 view .LVU79
 411 0034 8DF80D80 		strb	r8, [sp, #13]
  45:../../libDaisy//src/dev/oled_ssd130x.h ****     };
 412              		.loc 15 45 9 is_stmt 1 view .LVU80
  45:../../libDaisy//src/dev/oled_ssd130x.h ****     };
 413              		.loc 15 45 30 is_stmt 0 view .LVU81
 414 0038 FFF7FEFF 		bl	_ZN5daisy9I2CHandle16TransmitBlockingEtPhtm
 415              	.LVL18:
  45:../../libDaisy//src/dev/oled_ssd130x.h ****     };
 416              		.loc 15 45 30 view .LVU82
 417              	.LBE519:
 418              	.LBE520:
 419              	.LBB521:
 420              	.LBI521:
  42:../../libDaisy//src/dev/oled_ssd130x.h ****     {
 421              		.loc 15 42 10 is_stmt 1 view .LVU83
 422              	.LBB522:
  44:../../libDaisy//src/dev/oled_ssd130x.h ****         i2c_.TransmitBlocking(i2c_address_, buf, 2, 1000);
 423              		.loc 15 44 9 view .LVU84
  45:../../libDaisy//src/dev/oled_ssd130x.h ****     };
 424              		.loc 15 45 30 is_stmt 0 view .LVU85
 425 003c 297B     		ldrb	r1, [r5, #12]	@ zero_extendqisi2
 426 003e 0223     		movs	r3, #2
 427 0040 03AA     		add	r2, sp, #12
 428 0042 3846     		mov	r0, r7
 429 0044 CDF800B0 		str	fp, [sp]
  44:../../libDaisy//src/dev/oled_ssd130x.h ****         i2c_.TransmitBlocking(i2c_address_, buf, 2, 1000);
 430              		.loc 15 44 17 view .LVU86
 431 0048 8DF80CA0 		strb	r10, [sp, #12]
  44:../../libDaisy//src/dev/oled_ssd130x.h ****         i2c_.TransmitBlocking(i2c_address_, buf, 2, 1000);
 432              		.loc 15 44 36 view .LVU87
 433 004c 8DF80DA0 		strb	r10, [sp, #13]
ARM GAS  /var/folders/hl/qgbwny5j0fd895c2c41bk3tw0000gp/T//cceIFtrC.s 			page 31


  45:../../libDaisy//src/dev/oled_ssd130x.h ****     };
 434              		.loc 15 45 9 is_stmt 1 view .LVU88
  45:../../libDaisy//src/dev/oled_ssd130x.h ****     };
 435              		.loc 15 45 30 is_stmt 0 view .LVU89
 436 0050 FFF7FEFF 		bl	_ZN5daisy9I2CHandle16TransmitBlockingEtPhtm
 437              	.LVL19:
  45:../../libDaisy//src/dev/oled_ssd130x.h ****     };
 438              		.loc 15 45 30 view .LVU90
 439              	.LBE522:
 440              	.LBE521:
 441              	.LBB523:
 442              	.LBI523:
  42:../../libDaisy//src/dev/oled_ssd130x.h ****     {
 443              		.loc 15 42 10 is_stmt 1 view .LVU91
 444              	.LBB524:
  44:../../libDaisy//src/dev/oled_ssd130x.h ****         i2c_.TransmitBlocking(i2c_address_, buf, 2, 1000);
 445              		.loc 15 44 9 view .LVU92
  44:../../libDaisy//src/dev/oled_ssd130x.h ****         i2c_.TransmitBlocking(i2c_address_, buf, 2, 1000);
 446              		.loc 15 44 36 is_stmt 0 view .LVU93
 447 0054 4FF0100C 		mov	ip, #16
  45:../../libDaisy//src/dev/oled_ssd130x.h ****     };
 448              		.loc 15 45 30 view .LVU94
 449 0058 297B     		ldrb	r1, [r5, #12]	@ zero_extendqisi2
 450 005a 0223     		movs	r3, #2
 451 005c 03AA     		add	r2, sp, #12
 452 005e 3846     		mov	r0, r7
 453 0060 CDF800B0 		str	fp, [sp]
  44:../../libDaisy//src/dev/oled_ssd130x.h ****         i2c_.TransmitBlocking(i2c_address_, buf, 2, 1000);
 454              		.loc 15 44 17 view .LVU95
 455 0064 8DF80CA0 		strb	r10, [sp, #12]
  44:../../libDaisy//src/dev/oled_ssd130x.h ****         i2c_.TransmitBlocking(i2c_address_, buf, 2, 1000);
 456              		.loc 15 44 36 view .LVU96
 457 0068 8DF80DC0 		strb	ip, [sp, #13]
  45:../../libDaisy//src/dev/oled_ssd130x.h ****     };
 458              		.loc 15 45 9 is_stmt 1 view .LVU97
  45:../../libDaisy//src/dev/oled_ssd130x.h ****     };
 459              		.loc 15 45 30 is_stmt 0 view .LVU98
 460 006c FFF7FEFF 		bl	_ZN5daisy9I2CHandle16TransmitBlockingEtPhtm
 461              	.LVL20:
  45:../../libDaisy//src/dev/oled_ssd130x.h ****     };
 462              		.loc 15 45 30 view .LVU99
 463              	.LBE524:
 464              	.LBE523:
 465              	.LBB525:
 466              	.LBI525:
  48:../../libDaisy//src/dev/oled_ssd130x.h ****     {
 467              		.loc 15 48 10 is_stmt 1 view .LVU100
 468              	.LBB526:
  50:../../libDaisy//src/dev/oled_ssd130x.h ****         {
 469              		.loc 15 50 29 view .LVU101
 470              	.L11:
 471              	.LBB527:
  52:../../libDaisy//src/dev/oled_ssd130x.h ****             i2c_.TransmitBlocking(i2c_address_, buf, 2, 1000);
 472              		.loc 15 52 13 view .LVU102
  53:../../libDaisy//src/dev/oled_ssd130x.h ****         }
 473              		.loc 15 53 34 is_stmt 0 view .LVU103
 474 0070 4FF47A70 		mov	r0, #1000
ARM GAS  /var/folders/hl/qgbwny5j0fd895c2c41bk3tw0000gp/T//cceIFtrC.s 			page 32


  52:../../libDaisy//src/dev/oled_ssd130x.h ****             i2c_.TransmitBlocking(i2c_address_, buf, 2, 1000);
 475              		.loc 15 52 44 view .LVU104
 476 0074 14F801CF 		ldrb	ip, [r4, #1]!	@ zero_extendqisi2
 477              	.LVL21:
  52:../../libDaisy//src/dev/oled_ssd130x.h ****             i2c_.TransmitBlocking(i2c_address_, buf, 2, 1000);
 478              		.loc 15 52 21 view .LVU105
 479 0078 4FF0400E 		mov	lr, #64
  53:../../libDaisy//src/dev/oled_ssd130x.h ****         }
 480              		.loc 15 53 34 view .LVU106
 481 007c 297B     		ldrb	r1, [r5, #12]	@ zero_extendqisi2
 482 007e 0223     		movs	r3, #2
 483 0080 0090     		str	r0, [sp]
 484 0082 03AA     		add	r2, sp, #12
 485 0084 3846     		mov	r0, r7
  52:../../libDaisy//src/dev/oled_ssd130x.h ****             i2c_.TransmitBlocking(i2c_address_, buf, 2, 1000);
 486              		.loc 15 52 21 view .LVU107
 487 0086 8DF80CE0 		strb	lr, [sp, #12]
  52:../../libDaisy//src/dev/oled_ssd130x.h ****             i2c_.TransmitBlocking(i2c_address_, buf, 2, 1000);
 488              		.loc 15 52 44 view .LVU108
 489 008a 8DF80DC0 		strb	ip, [sp, #13]
  53:../../libDaisy//src/dev/oled_ssd130x.h ****         }
 490              		.loc 15 53 13 is_stmt 1 view .LVU109
  53:../../libDaisy//src/dev/oled_ssd130x.h ****         }
 491              		.loc 15 53 34 is_stmt 0 view .LVU110
 492 008e FFF7FEFF 		bl	_ZN5daisy9I2CHandle16TransmitBlockingEtPhtm
 493              	.LVL22:
 494              	.LBE527:
  50:../../libDaisy//src/dev/oled_ssd130x.h ****         {
 495              		.loc 15 50 9 is_stmt 1 view .LVU111
  50:../../libDaisy//src/dev/oled_ssd130x.h ****         {
 496              		.loc 15 50 29 view .LVU112
 497 0092 B442     		cmp	r4, r6
 498 0094 ECD1     		bne	.L11
 499              	.LVL23:
  50:../../libDaisy//src/dev/oled_ssd130x.h ****         {
 500              		.loc 15 50 29 is_stmt 0 view .LVU113
 501              	.LBE526:
 502              	.LBE525:
 503              		.loc 15 383 9 is_stmt 1 view .LVU114
 504              		.loc 15 383 22 view .LVU115
 505 0096 04F18006 		add	r6, r4, #128
 506 009a 08F10108 		add	r8, r8, #1
 507              	.LVL24:
 508              		.loc 15 383 22 is_stmt 0 view .LVU116
 509 009e 4E45     		cmp	r6, r9
 510 00a0 5FFA88F8 		uxtb	r8, r8
 511 00a4 B8D1     		bne	.L12
 512              	.LBE528:
 513              	.LBE529:
 514              		.loc 8 51 48 view .LVU117
 515 00a6 05B0     		add	sp, sp, #20
 516              		.cfi_def_cfa_offset 36
 517              		@ sp needed
 518 00a8 BDE8F08F 		pop	{r4, r5, r6, r7, r8, r9, r10, fp, pc}
 519              		.loc 8 51 48 view .LVU118
 520              		.cfi_endproc
 521              	.LFE5454:
ARM GAS  /var/folders/hl/qgbwny5j0fd895c2c41bk3tw0000gp/T//cceIFtrC.s 			page 33


 523              		.section	.text._Z13AudioCallbackPKPKfPPfj,"ax",%progbits
 524              		.align	1
 525              		.p2align 2,,3
 526              		.global	_Z13AudioCallbackPKPKfPPfj
 527              		.syntax unified
 528              		.thumb
 529              		.thumb_func
 530              		.fpu fpv5-d16
 532              	_Z13AudioCallbackPKPKfPPfj:
 533              	.LVL25:
 534              	.LFB4857:
 535              		.file 16 "ifft.cpp"
   1:ifft.cpp      **** #include "daisy_patch_sm.h"
   2:ifft.cpp      **** #include "daisysp.h"
   3:ifft.cpp      **** #include "patch_bay.h"
   4:ifft.cpp      **** #include "arm_const_structs.h"
   5:ifft.cpp      **** #include "arm_math.h"
   6:ifft.cpp      **** 
   7:ifft.cpp      **** using namespace daisy;
   8:ifft.cpp      **** using namespace patch_sm;
   9:ifft.cpp      **** using namespace daisysp;
  10:ifft.cpp      **** 
  11:ifft.cpp      **** DaisyPatchSM 	hw;
  12:ifft.cpp      **** Patch_Bay		pb;
  13:ifft.cpp      **** 
  14:ifft.cpp      **** //note i used 512 and 512 like in the struct you declared!
  15:ifft.cpp      **** #define SAMPLE_BUFFER_LENGTH 1024
  16:ifft.cpp      **** #define SAMPLE_BUFFER_LENGTH_HALF 512
  17:ifft.cpp      **** 
  18:ifft.cpp      **** arm_rfft_fast_instance_f32 fft = {   //note the name of the instance here
  19:ifft.cpp      **** 	{ 512, twiddleCoef_512, armBitRevIndexTable512, ARMBITREVINDEXTABLE_512_TABLE_LENGTH },
  20:ifft.cpp      **** 	1024u,
  21:ifft.cpp      **** 	(float32_t *)twiddleCoef_rfft_1024
  22:ifft.cpp      **** };
  23:ifft.cpp      **** 
  24:ifft.cpp      **** /* -------------------------------------------------------------------
  25:ifft.cpp      **** * External Input and Output buffer Declarations for FFT Bin Example
  26:ifft.cpp      **** * ------------------------------------------------------------------- */
  27:ifft.cpp      **** static float32_t fftInput[SAMPLE_BUFFER_LENGTH];
  28:ifft.cpp      **** static float32_t fftOutput[SAMPLE_BUFFER_LENGTH];
  29:ifft.cpp      **** static float32_t ifftOutput[SAMPLE_BUFFER_LENGTH];
  30:ifft.cpp      **** 
  31:ifft.cpp      **** /* ------------------------------------------------------------------
  32:ifft.cpp      **** * Global variables for FFT Bin Example
  33:ifft.cpp      **** * ------------------------------------------------------------------- */
  34:ifft.cpp      **** // globals, so do_fft() knows when to run
  35:ifft.cpp      **** int fft_buf_index = 0;
  36:ifft.cpp      **** int ifft_buf_index = 0;
  37:ifft.cpp      **** float ps_amt;
  38:ifft.cpp      **** float output;
  39:ifft.cpp      **** 
  40:ifft.cpp      **** void fft_proc();
  41:ifft.cpp      **** void Process(float input);
  42:ifft.cpp      **** void Buffers();
  43:ifft.cpp      **** 
  44:ifft.cpp      **** void AudioCallback(AudioHandle::InputBuffer in, AudioHandle::OutputBuffer out, size_t size)
  45:ifft.cpp      **** {
ARM GAS  /var/folders/hl/qgbwny5j0fd895c2c41bk3tw0000gp/T//cceIFtrC.s 			page 34


 536              		.loc 16 45 1 is_stmt 1 view -0
 537              		.cfi_startproc
 538              		@ args = 0, pretend = 0, frame = 0
 539              		@ frame_needed = 0, uses_anonymous_args = 0
  46:ifft.cpp      **** 	hw.ProcessAllControls();
 540              		.loc 16 46 2 view .LVU120
 541              	.LBB542:
 542              	.LBI542:
  66:../../libDaisy//src/daisy_patch_sm.h **** 
  67:../../libDaisy//src/daisy_patch_sm.h ****         /** Initializes the memories, and core peripherals for the Daisy Patch SM */
  68:../../libDaisy//src/daisy_patch_sm.h ****         void Init();
  69:../../libDaisy//src/daisy_patch_sm.h **** 
  70:../../libDaisy//src/daisy_patch_sm.h ****         /** Starts a non-interleaving audio callback */
  71:../../libDaisy//src/daisy_patch_sm.h ****         void StartAudio(AudioHandle::AudioCallback cb);
  72:../../libDaisy//src/daisy_patch_sm.h **** 
  73:../../libDaisy//src/daisy_patch_sm.h ****         /** Starts an interleaving audio callback */
  74:../../libDaisy//src/daisy_patch_sm.h ****         void StartAudio(AudioHandle::InterleavingAudioCallback cb);
  75:../../libDaisy//src/daisy_patch_sm.h **** 
  76:../../libDaisy//src/daisy_patch_sm.h ****         /** Changes the callback that is executing.
  77:../../libDaisy//src/daisy_patch_sm.h ****          *  This may cause clicks if done while audio is processing.
  78:../../libDaisy//src/daisy_patch_sm.h ****          */
  79:../../libDaisy//src/daisy_patch_sm.h ****         void ChangeAudioCallback(AudioHandle::AudioCallback cb);
  80:../../libDaisy//src/daisy_patch_sm.h **** 
  81:../../libDaisy//src/daisy_patch_sm.h ****         /** Changes the callback that is executing.
  82:../../libDaisy//src/daisy_patch_sm.h ****          *  This may cause clicks if done while audio is processing.
  83:../../libDaisy//src/daisy_patch_sm.h ****          */
  84:../../libDaisy//src/daisy_patch_sm.h ****         void ChangeAudioCallback(AudioHandle::InterleavingAudioCallback cb);
  85:../../libDaisy//src/daisy_patch_sm.h **** 
  86:../../libDaisy//src/daisy_patch_sm.h ****         /** Stops the transmission of audio. */
  87:../../libDaisy//src/daisy_patch_sm.h ****         void StopAudio();
  88:../../libDaisy//src/daisy_patch_sm.h **** 
  89:../../libDaisy//src/daisy_patch_sm.h ****         /** Sets the number of samples processed in an audio callback. 
  90:../../libDaisy//src/daisy_patch_sm.h ****          *  This will only take effect on the next invocation of `StartAudio`
  91:../../libDaisy//src/daisy_patch_sm.h ****          */
  92:../../libDaisy//src/daisy_patch_sm.h ****         void SetAudioBlockSize(size_t size);
  93:../../libDaisy//src/daisy_patch_sm.h **** 
  94:../../libDaisy//src/daisy_patch_sm.h ****         /** Sets the samplerate for the audio engine 
  95:../../libDaisy//src/daisy_patch_sm.h ****          *  This will set it to the closest valid samplerate. Options being:
  96:../../libDaisy//src/daisy_patch_sm.h ****          *  8kHz, 16kHz, 32kHz, 48kHz, and 96kHz
  97:../../libDaisy//src/daisy_patch_sm.h ****          */
  98:../../libDaisy//src/daisy_patch_sm.h ****         void SetAudioSampleRate(float sr);
  99:../../libDaisy//src/daisy_patch_sm.h **** 
 100:../../libDaisy//src/daisy_patch_sm.h ****         void SetAudioSampleRate(SaiHandle::Config::SampleRate sample_rate);
 101:../../libDaisy//src/daisy_patch_sm.h **** 
 102:../../libDaisy//src/daisy_patch_sm.h ****         /** Returns the number of samples processed in an audio callback */
 103:../../libDaisy//src/daisy_patch_sm.h ****         size_t AudioBlockSize();
 104:../../libDaisy//src/daisy_patch_sm.h **** 
 105:../../libDaisy//src/daisy_patch_sm.h ****         /** Returns the audio engine's samplerate in Hz */
 106:../../libDaisy//src/daisy_patch_sm.h ****         float AudioSampleRate();
 107:../../libDaisy//src/daisy_patch_sm.h **** 
 108:../../libDaisy//src/daisy_patch_sm.h ****         /** Returns the rate at which the audio callback will be called in Hz */
 109:../../libDaisy//src/daisy_patch_sm.h ****         float AudioCallbackRate();
 110:../../libDaisy//src/daisy_patch_sm.h **** 
 111:../../libDaisy//src/daisy_patch_sm.h ****         /** Starts the Control ADCs 
 112:../../libDaisy//src/daisy_patch_sm.h ****          * 
 113:../../libDaisy//src/daisy_patch_sm.h ****          *  This is started automatically when Init() is called.
 114:../../libDaisy//src/daisy_patch_sm.h ****          */
ARM GAS  /var/folders/hl/qgbwny5j0fd895c2c41bk3tw0000gp/T//cceIFtrC.s 			page 35


 115:../../libDaisy//src/daisy_patch_sm.h ****         void StartAdc();
 116:../../libDaisy//src/daisy_patch_sm.h **** 
 117:../../libDaisy//src/daisy_patch_sm.h ****         /** Stops the Control ADCs */
 118:../../libDaisy//src/daisy_patch_sm.h ****         void StopAdc();
 119:../../libDaisy//src/daisy_patch_sm.h **** 
 120:../../libDaisy//src/daisy_patch_sm.h ****         /** Reads and filters all of the analog control inputs */
 121:../../libDaisy//src/daisy_patch_sm.h ****         void ProcessAnalogControls();
 122:../../libDaisy//src/daisy_patch_sm.h **** 
 123:../../libDaisy//src/daisy_patch_sm.h ****         /** Reads and debounces any of the digital control inputs 
 124:../../libDaisy//src/daisy_patch_sm.h ****          *  This does nothing on this board at this time.
 125:../../libDaisy//src/daisy_patch_sm.h ****          */
 126:../../libDaisy//src/daisy_patch_sm.h ****         void ProcessDigitalControls();
 127:../../libDaisy//src/daisy_patch_sm.h **** 
 128:../../libDaisy//src/daisy_patch_sm.h ****         /** Does both of the above */
 129:../../libDaisy//src/daisy_patch_sm.h ****         void ProcessAllControls()
 543              		.loc 1 129 14 view .LVU121
 544              	.LBB543:
 130:../../libDaisy//src/daisy_patch_sm.h ****         {
 131:../../libDaisy//src/daisy_patch_sm.h ****             ProcessAnalogControls();
 545              		.loc 1 131 13 view .LVU122
 546              	.LBE543:
 547              	.LBE542:
  45:ifft.cpp      **** 	hw.ProcessAllControls();
 548              		.loc 16 45 1 is_stmt 0 view .LVU123
 549 0000 2DE9F84F 		push	{r3, r4, r5, r6, r7, r8, r9, r10, fp, lr}
 550              		.cfi_def_cfa_offset 40
 551              		.cfi_offset 3, -40
 552              		.cfi_offset 4, -36
 553              		.cfi_offset 5, -32
 554              		.cfi_offset 6, -28
 555              		.cfi_offset 7, -24
 556              		.cfi_offset 8, -20
 557              		.cfi_offset 9, -16
 558              		.cfi_offset 10, -12
 559              		.cfi_offset 11, -8
 560              		.cfi_offset 14, -4
  45:ifft.cpp      **** 	hw.ProcessAllControls();
 561              		.loc 16 45 1 view .LVU124
 562 0004 8046     		mov	r8, r0
 563              	.LBB546:
 564              	.LBB544:
 565              		.loc 1 131 34 view .LVU125
 566 0006 3248     		ldr	r0, .L35
 567              	.LVL26:
 568              		.loc 1 131 34 view .LVU126
 569              	.LBE544:
 570              	.LBE546:
  45:ifft.cpp      **** 	hw.ProcessAllControls();
 571              		.loc 16 45 1 view .LVU127
 572 0008 0F46     		mov	r7, r1
 573 000a 1646     		mov	r6, r2
 574              	.LBB547:
 575              	.LBB545:
 576              		.loc 1 131 34 view .LVU128
 577 000c FFF7FEFF 		bl	_ZN5daisy8patch_sm12DaisyPatchSM21ProcessAnalogControlsEv
 578              	.LVL27:
 132:../../libDaisy//src/daisy_patch_sm.h ****             ProcessDigitalControls();
ARM GAS  /var/folders/hl/qgbwny5j0fd895c2c41bk3tw0000gp/T//cceIFtrC.s 			page 36


 579              		.loc 1 132 13 is_stmt 1 view .LVU129
 580              		.loc 1 132 35 is_stmt 0 view .LVU130
 581 0010 2F48     		ldr	r0, .L35
 582 0012 FFF7FEFF 		bl	_ZN5daisy8patch_sm12DaisyPatchSM22ProcessDigitalControlsEv
 583              	.LVL28:
 584              		.loc 1 132 35 view .LVU131
 585              	.LBE545:
 586              	.LBE547:
  47:ifft.cpp      **** 	ps_amt = fmap(hw.GetAdcValue(CV_1), 0.f, 10.f);
 587              		.loc 16 47 2 is_stmt 1 view .LVU132
 588              		.loc 16 47 15 is_stmt 0 view .LVU133
 589 0016 0021     		movs	r1, #0
 590 0018 2D48     		ldr	r0, .L35
 591 001a FFF7FEFF 		bl	_ZN5daisy8patch_sm12DaisyPatchSM11GetAdcValueEi
 592              	.LVL29:
 593              	.LBB548:
 594              	.LBI548:
 595              		.file 17 "../../DaisySP//Source/Utility/dsp.h"
   1:../../DaisySP//Source/Utility/dsp.h **** /** Helpful defines, functions, and other utilities for use in/with daisysp modules.
   2:../../DaisySP//Source/Utility/dsp.h **** */
   3:../../DaisySP//Source/Utility/dsp.h **** #pragma once
   4:../../DaisySP//Source/Utility/dsp.h **** #ifndef DSY_CORE_DSP
   5:../../DaisySP//Source/Utility/dsp.h **** #define DSY_CORE_DSP
   6:../../DaisySP//Source/Utility/dsp.h **** #include <cassert>
   7:../../DaisySP//Source/Utility/dsp.h **** #include <cstdint>
   8:../../DaisySP//Source/Utility/dsp.h **** #include <random>
   9:../../DaisySP//Source/Utility/dsp.h **** #include <cmath>
  10:../../DaisySP//Source/Utility/dsp.h **** 
  11:../../DaisySP//Source/Utility/dsp.h **** /** PIs
  12:../../DaisySP//Source/Utility/dsp.h **** */
  13:../../DaisySP//Source/Utility/dsp.h **** #define PI_F 3.1415927410125732421875f
  14:../../DaisySP//Source/Utility/dsp.h **** #define TWOPI_F (2.0f * PI_F)
  15:../../DaisySP//Source/Utility/dsp.h **** #define HALFPI_F (PI_F * 0.5f)
  16:../../DaisySP//Source/Utility/dsp.h **** #define DSY_MIN(in, mn) (in < mn ? in : mn)
  17:../../DaisySP//Source/Utility/dsp.h **** #define DSY_MAX(in, mx) (in > mx ? in : mx)
  18:../../DaisySP//Source/Utility/dsp.h **** #define DSY_CLAMP(in, mn, mx) (DSY_MIN(DSY_MAX(in, mn), mx))
  19:../../DaisySP//Source/Utility/dsp.h **** #define DSY_COUNTOF(_arr) (sizeof(_arr) / sizeof(_arr[0]))
  20:../../DaisySP//Source/Utility/dsp.h **** 
  21:../../DaisySP//Source/Utility/dsp.h **** namespace daisysp
  22:../../DaisySP//Source/Utility/dsp.h **** {
  23:../../DaisySP//Source/Utility/dsp.h **** //Avoids division for random floats. e.g. rand() * kRandFrac
  24:../../DaisySP//Source/Utility/dsp.h **** static constexpr float kRandFrac = 1.f / (float)RAND_MAX;
  25:../../DaisySP//Source/Utility/dsp.h **** 
  26:../../DaisySP//Source/Utility/dsp.h **** //Convert from semitones to other units. e.g. 2 ^ (kOneTwelfth * x)
  27:../../DaisySP//Source/Utility/dsp.h **** static constexpr float kOneTwelfth = 1.f / 12.f;
  28:../../DaisySP//Source/Utility/dsp.h **** 
  29:../../DaisySP//Source/Utility/dsp.h **** /** efficient floating point min/max
  30:../../DaisySP//Source/Utility/dsp.h **** c/o stephen mccaul
  31:../../DaisySP//Source/Utility/dsp.h **** */
  32:../../DaisySP//Source/Utility/dsp.h **** inline float fmax(float a, float b)
  33:../../DaisySP//Source/Utility/dsp.h **** {
  34:../../DaisySP//Source/Utility/dsp.h ****     float r;
  35:../../DaisySP//Source/Utility/dsp.h **** #ifdef __arm__
  36:../../DaisySP//Source/Utility/dsp.h ****     asm("vmaxnm.f32 %[d], %[n], %[m]" : [d] "=t"(r) : [n] "t"(a), [m] "t"(b) :);
  37:../../DaisySP//Source/Utility/dsp.h **** #else
  38:../../DaisySP//Source/Utility/dsp.h ****     r = (a > b) ? a : b;
  39:../../DaisySP//Source/Utility/dsp.h **** #endif // __arm__
ARM GAS  /var/folders/hl/qgbwny5j0fd895c2c41bk3tw0000gp/T//cceIFtrC.s 			page 37


  40:../../DaisySP//Source/Utility/dsp.h ****     return r;
  41:../../DaisySP//Source/Utility/dsp.h **** }
  42:../../DaisySP//Source/Utility/dsp.h **** 
  43:../../DaisySP//Source/Utility/dsp.h **** inline float fmin(float a, float b)
  44:../../DaisySP//Source/Utility/dsp.h **** {
  45:../../DaisySP//Source/Utility/dsp.h ****     float r;
  46:../../DaisySP//Source/Utility/dsp.h **** #ifdef __arm__
  47:../../DaisySP//Source/Utility/dsp.h ****     asm("vminnm.f32 %[d], %[n], %[m]" : [d] "=t"(r) : [n] "t"(a), [m] "t"(b) :);
  48:../../DaisySP//Source/Utility/dsp.h **** #else
  49:../../DaisySP//Source/Utility/dsp.h ****     r = (a < b) ? a : b;
  50:../../DaisySP//Source/Utility/dsp.h **** #endif // __arm__
  51:../../DaisySP//Source/Utility/dsp.h ****     return r;
  52:../../DaisySP//Source/Utility/dsp.h **** }
  53:../../DaisySP//Source/Utility/dsp.h **** 
  54:../../DaisySP//Source/Utility/dsp.h **** /** quick fp clamp
  55:../../DaisySP//Source/Utility/dsp.h **** */
  56:../../DaisySP//Source/Utility/dsp.h **** inline float fclamp(float in, float min, float max)
  57:../../DaisySP//Source/Utility/dsp.h **** {
  58:../../DaisySP//Source/Utility/dsp.h ****     return fmin(fmax(in, min), max);
  59:../../DaisySP//Source/Utility/dsp.h **** }
  60:../../DaisySP//Source/Utility/dsp.h **** 
  61:../../DaisySP//Source/Utility/dsp.h **** /** From Musicdsp.org "Fast power and root estimates for 32bit floats)
  62:../../DaisySP//Source/Utility/dsp.h **** Original code by Stefan Stenzel
  63:../../DaisySP//Source/Utility/dsp.h **** These are approximations
  64:../../DaisySP//Source/Utility/dsp.h **** */
  65:../../DaisySP//Source/Utility/dsp.h **** inline float fastpower(float f, int n)
  66:../../DaisySP//Source/Utility/dsp.h **** {
  67:../../DaisySP//Source/Utility/dsp.h ****     long *lp, l;
  68:../../DaisySP//Source/Utility/dsp.h ****     lp = (long *)(&f);
  69:../../DaisySP//Source/Utility/dsp.h ****     l  = *lp;
  70:../../DaisySP//Source/Utility/dsp.h ****     l -= 0x3F800000;
  71:../../DaisySP//Source/Utility/dsp.h ****     l <<= (n - 1);
  72:../../DaisySP//Source/Utility/dsp.h ****     l += 0x3F800000;
  73:../../DaisySP//Source/Utility/dsp.h ****     *lp = l;
  74:../../DaisySP//Source/Utility/dsp.h ****     return f;
  75:../../DaisySP//Source/Utility/dsp.h **** }
  76:../../DaisySP//Source/Utility/dsp.h **** 
  77:../../DaisySP//Source/Utility/dsp.h **** inline float fastroot(float f, int n)
  78:../../DaisySP//Source/Utility/dsp.h **** {
  79:../../DaisySP//Source/Utility/dsp.h ****     long *lp, l;
  80:../../DaisySP//Source/Utility/dsp.h ****     lp = (long *)(&f);
  81:../../DaisySP//Source/Utility/dsp.h ****     l  = *lp;
  82:../../DaisySP//Source/Utility/dsp.h ****     l -= 0x3F800000;
  83:../../DaisySP//Source/Utility/dsp.h ****     l >>= (n = 1);
  84:../../DaisySP//Source/Utility/dsp.h ****     l += 0x3F800000;
  85:../../DaisySP//Source/Utility/dsp.h ****     *lp = l;
  86:../../DaisySP//Source/Utility/dsp.h ****     return f;
  87:../../DaisySP//Source/Utility/dsp.h **** }
  88:../../DaisySP//Source/Utility/dsp.h **** 
  89:../../DaisySP//Source/Utility/dsp.h **** /** From http://openaudio.blogspot.com/2017/02/faster-log10-and-pow.html
  90:../../DaisySP//Source/Utility/dsp.h **** No approximation, pow10f(x) gives a 90% speed increase over powf(10.f, x)
  91:../../DaisySP//Source/Utility/dsp.h **** */
  92:../../DaisySP//Source/Utility/dsp.h **** inline float pow10f(float f)
  93:../../DaisySP//Source/Utility/dsp.h **** {
  94:../../DaisySP//Source/Utility/dsp.h ****     return expf(2.302585092994046f * f);
  95:../../DaisySP//Source/Utility/dsp.h **** }
  96:../../DaisySP//Source/Utility/dsp.h **** 
ARM GAS  /var/folders/hl/qgbwny5j0fd895c2c41bk3tw0000gp/T//cceIFtrC.s 			page 38


  97:../../DaisySP//Source/Utility/dsp.h **** /* Original code for fastlog2f by Dr. Paul Beckmann from the ARM community forum, adapted from the 
  98:../../DaisySP//Source/Utility/dsp.h **** About 25% performance increase over std::log10f
  99:../../DaisySP//Source/Utility/dsp.h **** */
 100:../../DaisySP//Source/Utility/dsp.h **** inline float fastlog2f(float f)
 101:../../DaisySP//Source/Utility/dsp.h **** {
 102:../../DaisySP//Source/Utility/dsp.h ****     float frac;
 103:../../DaisySP//Source/Utility/dsp.h ****     int   exp;
 104:../../DaisySP//Source/Utility/dsp.h ****     frac = frexpf(fabsf(f), &exp);
 105:../../DaisySP//Source/Utility/dsp.h ****     f    = 1.23149591368684f;
 106:../../DaisySP//Source/Utility/dsp.h ****     f *= frac;
 107:../../DaisySP//Source/Utility/dsp.h ****     f += -4.11852516267426f;
 108:../../DaisySP//Source/Utility/dsp.h ****     f *= frac;
 109:../../DaisySP//Source/Utility/dsp.h ****     f += 6.02197014179219f;
 110:../../DaisySP//Source/Utility/dsp.h ****     f *= frac;
 111:../../DaisySP//Source/Utility/dsp.h ****     f += -3.13396450166353f;
 112:../../DaisySP//Source/Utility/dsp.h ****     f += exp;
 113:../../DaisySP//Source/Utility/dsp.h ****     return (f);
 114:../../DaisySP//Source/Utility/dsp.h **** }
 115:../../DaisySP//Source/Utility/dsp.h **** 
 116:../../DaisySP//Source/Utility/dsp.h **** inline float fastlog10f(float f)
 117:../../DaisySP//Source/Utility/dsp.h **** {
 118:../../DaisySP//Source/Utility/dsp.h ****     return fastlog2f(f) * 0.3010299956639812f;
 119:../../DaisySP//Source/Utility/dsp.h **** }
 120:../../DaisySP//Source/Utility/dsp.h **** 
 121:../../DaisySP//Source/Utility/dsp.h **** /** Midi to frequency helper
 122:../../DaisySP//Source/Utility/dsp.h **** */
 123:../../DaisySP//Source/Utility/dsp.h **** inline float mtof(float m)
 124:../../DaisySP//Source/Utility/dsp.h **** {
 125:../../DaisySP//Source/Utility/dsp.h ****     return powf(2, (m - 69.0f) / 12.0f) * 440.0f;
 126:../../DaisySP//Source/Utility/dsp.h **** }
 127:../../DaisySP//Source/Utility/dsp.h **** 
 128:../../DaisySP//Source/Utility/dsp.h **** 
 129:../../DaisySP//Source/Utility/dsp.h **** /** one pole lpf
 130:../../DaisySP//Source/Utility/dsp.h **** out is passed by reference, and must be retained between
 131:../../DaisySP//Source/Utility/dsp.h **** calls to properly filter the signal
 132:../../DaisySP//Source/Utility/dsp.h **** coeff can be calculated:
 133:../../DaisySP//Source/Utility/dsp.h **** coeff = 1.0 / (time * sample_rate) ; where time is in seconds
 134:../../DaisySP//Source/Utility/dsp.h **** */
 135:../../DaisySP//Source/Utility/dsp.h **** inline void fonepole(float &out, float in, float coeff)
 136:../../DaisySP//Source/Utility/dsp.h **** {
 137:../../DaisySP//Source/Utility/dsp.h ****     out += coeff * (in - out);
 138:../../DaisySP//Source/Utility/dsp.h **** }
 139:../../DaisySP//Source/Utility/dsp.h **** 
 140:../../DaisySP//Source/Utility/dsp.h **** /** Curves to use with the fmap function */
 141:../../DaisySP//Source/Utility/dsp.h **** enum class Mapping
 142:../../DaisySP//Source/Utility/dsp.h **** {
 143:../../DaisySP//Source/Utility/dsp.h ****     LINEAR,
 144:../../DaisySP//Source/Utility/dsp.h ****     EXP,
 145:../../DaisySP//Source/Utility/dsp.h ****     LOG,
 146:../../DaisySP//Source/Utility/dsp.h **** };
 147:../../DaisySP//Source/Utility/dsp.h **** 
 148:../../DaisySP//Source/Utility/dsp.h **** /** Maps a float between a specified range, using a specified curve. 
 149:../../DaisySP//Source/Utility/dsp.h ****  * 
 150:../../DaisySP//Source/Utility/dsp.h ****  *  \param in a value between 0 to 1 that will be mapped to the new range.
 151:../../DaisySP//Source/Utility/dsp.h ****  *  \param min the new minimum value
 152:../../DaisySP//Source/Utility/dsp.h ****  *  \param max the new maxmimum value
 153:../../DaisySP//Source/Utility/dsp.h ****  *  \param curve a Mapping Value to adjust the response curve of the transformation
ARM GAS  /var/folders/hl/qgbwny5j0fd895c2c41bk3tw0000gp/T//cceIFtrC.s 			page 39


 154:../../DaisySP//Source/Utility/dsp.h ****  *               defaults to Linear. @see Mapping
 155:../../DaisySP//Source/Utility/dsp.h ****  * 
 156:../../DaisySP//Source/Utility/dsp.h ****  *  When using the log curve min and max, must be greater than zero.
 157:../../DaisySP//Source/Utility/dsp.h ****  * 
 158:../../DaisySP//Source/Utility/dsp.h ****  *  \retval returns the transformed float within the new range.
 159:../../DaisySP//Source/Utility/dsp.h **** */
 160:../../DaisySP//Source/Utility/dsp.h **** inline float
 161:../../DaisySP//Source/Utility/dsp.h **** fmap(float in, float min, float max, Mapping curve = Mapping::LINEAR)
 596              		.loc 17 161 1 is_stmt 1 view .LVU134
 597              	.LBE548:
 162:../../DaisySP//Source/Utility/dsp.h **** {
 163:../../DaisySP//Source/Utility/dsp.h ****     switch(curve)
 598              		.loc 17 163 5 view .LVU135
 599              	.LBB558:
 600              	.LBB549:
 164:../../DaisySP//Source/Utility/dsp.h ****     {
 165:../../DaisySP//Source/Utility/dsp.h ****         case Mapping::EXP:
 166:../../DaisySP//Source/Utility/dsp.h ****             return fclamp(min + (in * in) * (max - min), min, max);
 167:../../DaisySP//Source/Utility/dsp.h ****         case Mapping::LOG:
 168:../../DaisySP//Source/Utility/dsp.h ****         {
 169:../../DaisySP//Source/Utility/dsp.h ****             const float a = 1.f / log10f(max / min);
 170:../../DaisySP//Source/Utility/dsp.h ****             return fclamp(min * powf(10, in / a), min, max);
 171:../../DaisySP//Source/Utility/dsp.h ****         }
 172:../../DaisySP//Source/Utility/dsp.h ****         case Mapping::LINEAR:
 601              		.loc 17 172 9 view .LVU136
 173:../../DaisySP//Source/Utility/dsp.h ****         default: return fclamp(min + in * (max - min), min, max);
 602              		.loc 17 173 9 view .LVU137
 603              		.loc 17 173 18 view .LVU138
 604              		.loc 17 173 31 is_stmt 0 view .LVU139
 605 001e DFED2D6A 		vldr.32	s13, .L35+4
 606 0022 B2EE047A 		vmov.f32	s14, #1.0e+1
 607              	.LBE549:
 608              	.LBE558:
 609              		.loc 16 47 9 view .LVU140
 610 0026 2C4B     		ldr	r3, .L35+8
 611              	.LBB559:
 612              	.LBB556:
 613              		.loc 17 173 31 view .LVU141
 614 0028 F0EE667A 		vmov.f32	s15, s13
 615 002c E0EE077A 		vfma.f32	s15, s0, s14
 616              	.LVL30:
 617              	.LBB550:
 618              	.LBI550:
  56:../../DaisySP//Source/Utility/dsp.h **** {
 619              		.loc 17 56 14 is_stmt 1 view .LVU142
 620              	.LBE550:
 621              	.LBE556:
 622              	.LBE559:
  58:../../DaisySP//Source/Utility/dsp.h **** }
 623              		.loc 17 58 5 view .LVU143
 624              	.LBB560:
 625              	.LBB557:
 626              	.LBB555:
 627              	.LBB551:
 628              	.LBI551:
  32:../../DaisySP//Source/Utility/dsp.h **** {
 629              		.loc 17 32 14 view .LVU144
ARM GAS  /var/folders/hl/qgbwny5j0fd895c2c41bk3tw0000gp/T//cceIFtrC.s 			page 40


 630              	.LBB552:
  34:../../DaisySP//Source/Utility/dsp.h **** #ifdef __arm__
 631              		.loc 17 34 5 view .LVU145
  36:../../DaisySP//Source/Utility/dsp.h **** #else
 632              		.loc 17 36 5 view .LVU146
 633              		.syntax unified
 634              	@ 36 "../../DaisySP//Source/Utility/dsp.h" 1
 635 0030 C7FEA67A 		vmaxnm.f32 s15, s15, s13
 636              	@ 0 "" 2
 637              	.LVL31:
  40:../../DaisySP//Source/Utility/dsp.h **** }
 638              		.loc 17 40 5 view .LVU147
  40:../../DaisySP//Source/Utility/dsp.h **** }
 639              		.loc 17 40 5 is_stmt 0 view .LVU148
 640              		.thumb
 641              		.syntax unified
 642              	.LBE552:
 643              	.LBE551:
 644              	.LBB553:
 645              	.LBI553:
  43:../../DaisySP//Source/Utility/dsp.h **** {
 646              		.loc 17 43 14 is_stmt 1 view .LVU149
 647              	.LBB554:
  45:../../DaisySP//Source/Utility/dsp.h **** #ifdef __arm__
 648              		.loc 17 45 5 view .LVU150
  47:../../DaisySP//Source/Utility/dsp.h **** #else
 649              		.loc 17 47 5 view .LVU151
 650              		.syntax unified
 651              	@ 47 "../../DaisySP//Source/Utility/dsp.h" 1
 652 0034 C7FEC77A 		vminnm.f32 s15, s15, s14
 653              	@ 0 "" 2
 654              	.LVL32:
  51:../../DaisySP//Source/Utility/dsp.h **** }
 655              		.loc 17 51 5 view .LVU152
  51:../../DaisySP//Source/Utility/dsp.h **** }
 656              		.loc 17 51 5 is_stmt 0 view .LVU153
 657              		.thumb
 658              		.syntax unified
 659              	.LBE554:
 660              	.LBE553:
 661              	.LBE555:
 662              	.LBE557:
 663              	.LBE560:
 664              		.loc 16 47 9 view .LVU154
 665 0038 C3ED007A 		vstr.32	s15, [r3]
  48:ifft.cpp      **** 	for (size_t i = 0; i < size; i++)
 666              		.loc 16 48 2 is_stmt 1 view .LVU155
 667              	.LVL33:
 668              	.LBB561:
 669              		.loc 16 48 23 view .LVU156
 670 003c 002E     		cmp	r6, #0
 671 003e 45D0     		beq	.L16
 672 0040 DFF8A090 		ldr	r9, .L35+20
  49:ifft.cpp      **** 	{
  50:ifft.cpp      **** 		Process(IN_L[i] + IN_R[i]);
  51:ifft.cpp      **** 		OUT_L[i] = output;
  52:ifft.cpp      **** 		OUT_R[i] = output;
ARM GAS  /var/folders/hl/qgbwny5j0fd895c2c41bk3tw0000gp/T//cceIFtrC.s 			page 41


 673              		.loc 16 52 3 is_stmt 0 view .LVU157
 674 0044 4FF0000E 		mov	lr, #0
 675 0048 DFF89CA0 		ldr	r10, .L35+24
 676 004c D9F80050 		ldr	r5, [r9]
 677 0050 DAF80020 		ldr	r2, [r10]
 678 0054 2148     		ldr	r0, .L35+12
 679 0056 D7E90047 		ldrd	r4, r7, [r7]
 680              	.LVL34:
 681              		.loc 16 52 3 view .LVU158
 682 005a 04EB860C 		add	ip, r4, r6, lsl #2
 683 005e D8E90061 		ldrd	r6, r1, [r8]
 684              	.LVL35:
 685              		.loc 16 52 3 view .LVU159
 686 0062 F046     		mov	r8, lr
 687              	.LVL36:
 688              		.loc 16 52 3 view .LVU160
 689 0064 0AE0     		b	.L22
 690              	.LVL37:
 691              	.L34:
  51:ifft.cpp      **** 		OUT_R[i] = output;
 692              		.loc 16 51 12 view .LVU161
 693 0066 0368     		ldr	r3, [r0]	@ float
 694              	.L21:
  51:ifft.cpp      **** 		OUT_R[i] = output;
 695              		.loc 16 51 3 is_stmt 1 view .LVU162
  51:ifft.cpp      **** 		OUT_R[i] = output;
 696              		.loc 16 51 12 is_stmt 0 view .LVU163
 697 0068 44F8043B 		str	r3, [r4], #4	@ float
 698              		.loc 16 52 3 is_stmt 1 view .LVU164
  48:ifft.cpp      **** 	for (size_t i = 0; i < size; i++)
 699              		.loc 16 48 23 is_stmt 0 view .LVU165
 700 006c 6445     		cmp	r4, ip
 701 006e 06F10406 		add	r6, r6, #4
 702 0072 01F10401 		add	r1, r1, #4
 703              		.loc 16 52 12 view .LVU166
 704 0076 47F8043B 		str	r3, [r7], #4	@ float
  48:ifft.cpp      **** 	for (size_t i = 0; i < size; i++)
 705              		.loc 16 48 2 is_stmt 1 view .LVU167
  48:ifft.cpp      **** 	for (size_t i = 0; i < size; i++)
 706              		.loc 16 48 23 view .LVU168
 707 007a 1DD0     		beq	.L33
 708              	.L22:
  50:ifft.cpp      **** 		OUT_L[i] = output;
 709              		.loc 16 50 3 discriminator 2 view .LVU169
 710              	.LBB562:
 711              	.LBI562:
  53:ifft.cpp      **** 	}
  54:ifft.cpp      **** }
  55:ifft.cpp      **** 
  56:ifft.cpp      **** int main(void)
  57:ifft.cpp      **** {
  58:ifft.cpp      **** 	hw.Init();
  59:ifft.cpp      **** 	hw.SetAudioBlockSize(64); // number of samples handled per callback
  60:ifft.cpp      **** 
  61:ifft.cpp      **** 	pb.Init();
  62:ifft.cpp      **** 
  63:ifft.cpp      **** 	hw.SetAudioSampleRate(SaiHandle::Config::SampleRate::SAI_48KHZ);
ARM GAS  /var/folders/hl/qgbwny5j0fd895c2c41bk3tw0000gp/T//cceIFtrC.s 			page 42


  64:ifft.cpp      **** 	hw.StartAudio(AudioCallback);
  65:ifft.cpp      **** 	while(1)
  66:ifft.cpp      **** 	{
  67:ifft.cpp      **** 		Buffers();
  68:ifft.cpp      **** 	}
  69:ifft.cpp      **** }
  70:ifft.cpp      **** 
  71:ifft.cpp      **** void fft_proc()
  72:ifft.cpp      **** {
  73:ifft.cpp      **** 	arm_rfft_fast_f32(&fft,fftInput, fftOutput, 0);
  74:ifft.cpp      **** 	arm_rfft_fast_f32(&fft,fftOutput, ifftOutput, 1);
  75:ifft.cpp      **** }
  76:ifft.cpp      **** 
  77:ifft.cpp      **** void Process(float input)
 712              		.loc 16 77 6 discriminator 2 view .LVU170
 713              	.LBB563:
  78:ifft.cpp      **** {
  79:ifft.cpp      **** 	if (fft_buf_index < SAMPLE_BUFFER_LENGTH) 
 714              		.loc 16 79 2 discriminator 2 view .LVU171
  80:ifft.cpp      **** 	{
  81:ifft.cpp      **** 		fftInput[fft_buf_index++] = input;
 715              		.loc 16 81 3 discriminator 2 view .LVU172
  82:ifft.cpp      **** 	}
  83:ifft.cpp      **** 
  84:ifft.cpp      **** 	if(ifft_buf_index < SAMPLE_BUFFER_LENGTH)
 716              		.loc 16 84 2 discriminator 2 view .LVU173
  85:ifft.cpp      **** 	{
  86:ifft.cpp      **** 		output = ifftOutput[ifft_buf_index++];
 717              		.loc 16 86 3 discriminator 2 view .LVU174
 718              		.loc 16 86 39 is_stmt 0 discriminator 2 view .LVU175
 719 007c 184B     		ldr	r3, .L35+16
  79:ifft.cpp      **** 	{
 720              		.loc 16 79 2 discriminator 2 view .LVU176
 721 007e B5F5806F 		cmp	r5, #1024
  81:ifft.cpp      **** 	}
 722              		.loc 16 81 29 discriminator 2 view .LVU177
 723 0082 DFF868B0 		ldr	fp, .L35+28
 724              		.loc 16 86 39 discriminator 2 view .LVU178
 725 0086 03EB8203 		add	r3, r3, r2, lsl #2
  81:ifft.cpp      **** 	}
 726              		.loc 16 81 29 discriminator 2 view .LVU179
 727 008a 0BEB850B 		add	fp, fp, r5, lsl #2
  79:ifft.cpp      **** 	{
 728              		.loc 16 79 2 discriminator 2 view .LVU180
 729 008e 0ADA     		bge	.L19
 730              	.LBE563:
 731              	.LBE562:
  50:ifft.cpp      **** 		OUT_L[i] = output;
 732              		.loc 16 50 10 view .LVU181
 733 0090 D6ED007A 		vldr.32	s15, [r6]
 734              	.LBB567:
 735              	.LBB564:
  81:ifft.cpp      **** 	}
 736              		.loc 16 81 25 view .LVU182
 737 0094 0135     		adds	r5, r5, #1
 738              	.LBE564:
 739              	.LBE567:
ARM GAS  /var/folders/hl/qgbwny5j0fd895c2c41bk3tw0000gp/T//cceIFtrC.s 			page 43


  50:ifft.cpp      **** 		OUT_L[i] = output;
 740              		.loc 16 50 10 view .LVU183
 741 0096 91ED007A 		vldr.32	s14, [r1]
 742              	.LBB568:
 743              	.LBB565:
 744 009a 4FF00108 		mov	r8, #1
 745              	.LBE565:
 746              	.LBE568:
 747 009e 77EE877A 		vadd.f32	s15, s15, s14
 748              	.LBB569:
 749              	.LBB566:
  81:ifft.cpp      **** 	}
 750              		.loc 16 81 29 view .LVU184
 751 00a2 CBED007A 		vstr.32	s15, [fp]
 752              	.L19:
  84:ifft.cpp      **** 	{
 753              		.loc 16 84 2 view .LVU185
 754 00a6 B2F5806F 		cmp	r2, #1024
 755 00aa DCDA     		bge	.L34
 756              		.loc 16 86 39 view .LVU186
 757 00ac 1B68     		ldr	r3, [r3]	@ float
 758              		.loc 16 86 37 view .LVU187
 759 00ae 0132     		adds	r2, r2, #1
 760 00b0 4FF0010E 		mov	lr, #1
 761              		.loc 16 86 10 view .LVU188
 762 00b4 0360     		str	r3, [r0]	@ float
 763 00b6 D7E7     		b	.L21
 764              	.L33:
 765              		.loc 16 86 10 view .LVU189
 766 00b8 B8F1000F 		cmp	r8, #0
 767 00bc 01D0     		beq	.L23
 768 00be C9F80050 		str	r5, [r9]
 769              	.L23:
 770 00c2 BEF1000F 		cmp	lr, #0
 771 00c6 01D0     		beq	.L16
 772 00c8 CAF80020 		str	r2, [r10]
 773              	.L16:
 774              	.LBE566:
 775              	.LBE569:
 776              	.LBE561:
  54:ifft.cpp      **** 
 777              		.loc 16 54 1 view .LVU190
 778 00cc BDE8F88F 		pop	{r3, r4, r5, r6, r7, r8, r9, r10, fp, pc}
 779              	.L36:
 780              		.align	2
 781              	.L35:
 782 00d0 00000000 		.word	.LANCHOR0
 783 00d4 00000000 		.word	0
 784 00d8 00000000 		.word	.LANCHOR1
 785 00dc 00000000 		.word	.LANCHOR4
 786 00e0 00000000 		.word	_ZL10ifftOutput
 787 00e4 00000000 		.word	.LANCHOR2
 788 00e8 00000000 		.word	.LANCHOR3
 789 00ec 00000000 		.word	_ZL8fftInput
 790              		.cfi_endproc
 791              	.LFE4857:
 793              		.section	.text._ZN5daisy25OneBitGraphicsDisplayImplINS_11OledDisplayINS_13SSD130xDriverILj128ELj64
ARM GAS  /var/folders/hl/qgbwny5j0fd895c2c41bk3tw0000gp/T//cceIFtrC.s 			page 44


 794              		.align	1
 795              		.p2align 2,,3
 796              		.weak	_ZN5daisy25OneBitGraphicsDisplayImplINS_11OledDisplayINS_13SSD130xDriverILj128ELj64ENS_19SSD
 797              		.syntax unified
 798              		.thumb
 799              		.thumb_func
 800              		.fpu fpv5-d16
 802              	_ZN5daisy25OneBitGraphicsDisplayImplINS_11OledDisplayINS_13SSD130xDriverILj128ELj64ENS_19SSD130xI2C
 803              	.LVL38:
 804              	.LFB5452:
 220:../../libDaisy//src/hid/disp/display.h **** 
 221:../../libDaisy//src/hid/disp/display.h ****     void DrawLine(uint_fast8_t x1,
 222:../../libDaisy//src/hid/disp/display.h ****                   uint_fast8_t y1,
 223:../../libDaisy//src/hid/disp/display.h ****                   uint_fast8_t x2,
 224:../../libDaisy//src/hid/disp/display.h ****                   uint_fast8_t y2,
 225:../../libDaisy//src/hid/disp/display.h ****                   bool         on) override
 226:../../libDaisy//src/hid/disp/display.h ****     {
 227:../../libDaisy//src/hid/disp/display.h ****         int_fast16_t deltaX = abs((int_fast16_t)x2 - (int_fast16_t)x1);
 228:../../libDaisy//src/hid/disp/display.h ****         int_fast16_t deltaY = abs((int_fast16_t)y2 - (int_fast16_t)y1);
 229:../../libDaisy//src/hid/disp/display.h ****         int_fast16_t signX  = ((x1 < x2) ? 1 : -1);
 230:../../libDaisy//src/hid/disp/display.h ****         int_fast16_t signY  = ((y1 < y2) ? 1 : -1);
 231:../../libDaisy//src/hid/disp/display.h ****         int_fast16_t error  = deltaX - deltaY;
 232:../../libDaisy//src/hid/disp/display.h ****         int_fast16_t error2;
 233:../../libDaisy//src/hid/disp/display.h **** 
 234:../../libDaisy//src/hid/disp/display.h ****         // If we write "ChildType::DrawPixel(x2, y2, on);", we end up with
 235:../../libDaisy//src/hid/disp/display.h ****         // all sorts of weird compiler errors when the Child class is a template
 236:../../libDaisy//src/hid/disp/display.h ****         // class. The only way around this is to use this very verbose syntax:
 237:../../libDaisy//src/hid/disp/display.h ****         ((ChildType*)(this))->ChildType::DrawPixel(x2, y2, on);
 238:../../libDaisy//src/hid/disp/display.h **** 
 239:../../libDaisy//src/hid/disp/display.h ****         while((x1 != x2) || (y1 != y2))
 240:../../libDaisy//src/hid/disp/display.h ****         {
 241:../../libDaisy//src/hid/disp/display.h ****             ((ChildType*)(this))->ChildType::DrawPixel(x1, y1, on);
 242:../../libDaisy//src/hid/disp/display.h ****             error2 = error * 2;
 243:../../libDaisy//src/hid/disp/display.h ****             if(error2 > -deltaY)
 244:../../libDaisy//src/hid/disp/display.h ****             {
 245:../../libDaisy//src/hid/disp/display.h ****                 error -= deltaY;
 246:../../libDaisy//src/hid/disp/display.h ****                 x1 += signX;
 247:../../libDaisy//src/hid/disp/display.h ****             }
 248:../../libDaisy//src/hid/disp/display.h **** 
 249:../../libDaisy//src/hid/disp/display.h ****             if(error2 < deltaX)
 250:../../libDaisy//src/hid/disp/display.h ****             {
 251:../../libDaisy//src/hid/disp/display.h ****                 error += deltaX;
 252:../../libDaisy//src/hid/disp/display.h ****                 y1 += signY;
 253:../../libDaisy//src/hid/disp/display.h ****             }
 254:../../libDaisy//src/hid/disp/display.h ****         }
 255:../../libDaisy//src/hid/disp/display.h ****     }
 256:../../libDaisy//src/hid/disp/display.h **** 
 257:../../libDaisy//src/hid/disp/display.h ****     void DrawRect(uint_fast8_t x1,
 258:../../libDaisy//src/hid/disp/display.h ****                   uint_fast8_t y1,
 259:../../libDaisy//src/hid/disp/display.h ****                   uint_fast8_t x2,
 260:../../libDaisy//src/hid/disp/display.h ****                   uint_fast8_t y2,
 261:../../libDaisy//src/hid/disp/display.h ****                   bool         on,
 262:../../libDaisy//src/hid/disp/display.h ****                   bool         fill = false) override
 263:../../libDaisy//src/hid/disp/display.h ****     {
 264:../../libDaisy//src/hid/disp/display.h ****         if(fill)
 265:../../libDaisy//src/hid/disp/display.h ****         {
 266:../../libDaisy//src/hid/disp/display.h ****             for(uint_fast8_t x = x1; x <= x2; x++)
ARM GAS  /var/folders/hl/qgbwny5j0fd895c2c41bk3tw0000gp/T//cceIFtrC.s 			page 45


 267:../../libDaisy//src/hid/disp/display.h ****             {
 268:../../libDaisy//src/hid/disp/display.h ****                 for(uint_fast8_t y = y1; y <= y2; y++)
 269:../../libDaisy//src/hid/disp/display.h ****                 {
 270:../../libDaisy//src/hid/disp/display.h ****                     ((ChildType*)(this))->ChildType::DrawPixel(x, y, on);
 271:../../libDaisy//src/hid/disp/display.h ****                 }
 272:../../libDaisy//src/hid/disp/display.h ****             }
 273:../../libDaisy//src/hid/disp/display.h ****         }
 274:../../libDaisy//src/hid/disp/display.h ****         else
 275:../../libDaisy//src/hid/disp/display.h ****         {
 276:../../libDaisy//src/hid/disp/display.h ****             ((ChildType*)(this))->ChildType::DrawLine(x1, y1, x2, y1, on);
 277:../../libDaisy//src/hid/disp/display.h ****             ((ChildType*)(this))->ChildType::DrawLine(x2, y1, x2, y2, on);
 278:../../libDaisy//src/hid/disp/display.h ****             ((ChildType*)(this))->ChildType::DrawLine(x2, y2, x1, y2, on);
 279:../../libDaisy//src/hid/disp/display.h ****             ((ChildType*)(this))->ChildType::DrawLine(x1, y2, x1, y1, on);
 280:../../libDaisy//src/hid/disp/display.h ****         }
 281:../../libDaisy//src/hid/disp/display.h ****     }
 282:../../libDaisy//src/hid/disp/display.h **** 
 283:../../libDaisy//src/hid/disp/display.h ****     void DrawArc(uint_fast8_t x,
 284:../../libDaisy//src/hid/disp/display.h ****                  uint_fast8_t y,
 285:../../libDaisy//src/hid/disp/display.h ****                  uint_fast8_t radius,
 286:../../libDaisy//src/hid/disp/display.h ****                  int_fast16_t start_angle,
 287:../../libDaisy//src/hid/disp/display.h ****                  int_fast16_t sweep,
 288:../../libDaisy//src/hid/disp/display.h ****                  bool         on) override
 289:../../libDaisy//src/hid/disp/display.h ****     {
 290:../../libDaisy//src/hid/disp/display.h ****         // Values to calculate the circle
 291:../../libDaisy//src/hid/disp/display.h ****         int_fast16_t t_x, t_y, err, e2;
 292:../../libDaisy//src/hid/disp/display.h **** 
 293:../../libDaisy//src/hid/disp/display.h ****         // Temporary values to speed up comparisons
 294:../../libDaisy//src/hid/disp/display.h ****         float t_sxy, t_syx, t_sxny, t_synx;
 295:../../libDaisy//src/hid/disp/display.h ****         float t_exy, t_eyx, t_exny, t_eynx;
 296:../../libDaisy//src/hid/disp/display.h **** 
 297:../../libDaisy//src/hid/disp/display.h ****         float start_angle_rad, end_angle_rad;
 298:../../libDaisy//src/hid/disp/display.h ****         float start_x, start_y, end_x, end_y;
 299:../../libDaisy//src/hid/disp/display.h **** 
 300:../../libDaisy//src/hid/disp/display.h ****         bool d1, d2, d3, d4;
 301:../../libDaisy//src/hid/disp/display.h **** 
 302:../../libDaisy//src/hid/disp/display.h ****         d1 = d2 = d3 = d4 = true;
 303:../../libDaisy//src/hid/disp/display.h **** 
 304:../../libDaisy//src/hid/disp/display.h ****         bool circle = false;
 305:../../libDaisy//src/hid/disp/display.h **** 
 306:../../libDaisy//src/hid/disp/display.h ****         if(sweep < 0)
 307:../../libDaisy//src/hid/disp/display.h ****         {
 308:../../libDaisy//src/hid/disp/display.h ****             start_angle += sweep;
 309:../../libDaisy//src/hid/disp/display.h ****             sweep = -sweep;
 310:../../libDaisy//src/hid/disp/display.h ****         }
 311:../../libDaisy//src/hid/disp/display.h **** 
 312:../../libDaisy//src/hid/disp/display.h ****         start_angle_rad = deg2rad(start_angle);
 313:../../libDaisy//src/hid/disp/display.h ****         end_angle_rad   = deg2rad(start_angle + sweep);
 314:../../libDaisy//src/hid/disp/display.h **** 
 315:../../libDaisy//src/hid/disp/display.h ****         start_x = cos(start_angle_rad) * radius;
 316:../../libDaisy//src/hid/disp/display.h ****         start_y = -sin(start_angle_rad) * radius;
 317:../../libDaisy//src/hid/disp/display.h ****         end_x   = cos(end_angle_rad) * radius;
 318:../../libDaisy//src/hid/disp/display.h ****         end_y   = -sin(end_angle_rad) * radius;
 319:../../libDaisy//src/hid/disp/display.h **** 
 320:../../libDaisy//src/hid/disp/display.h ****         // Check if start and endpoint are very near
 321:../../libDaisy//src/hid/disp/display.h ****         if((end_x - start_x) * (end_x - start_x)
 322:../../libDaisy//src/hid/disp/display.h ****                + (end_y - start_y) * (end_y - start_y)
 323:../../libDaisy//src/hid/disp/display.h ****            < 2.0f)
ARM GAS  /var/folders/hl/qgbwny5j0fd895c2c41bk3tw0000gp/T//cceIFtrC.s 			page 46


 324:../../libDaisy//src/hid/disp/display.h ****         {
 325:../../libDaisy//src/hid/disp/display.h ****             if(sweep > 180)
 326:../../libDaisy//src/hid/disp/display.h ****                 circle = true;
 327:../../libDaisy//src/hid/disp/display.h ****             else
 328:../../libDaisy//src/hid/disp/display.h ****                 // Nothing to draw
 329:../../libDaisy//src/hid/disp/display.h ****                 return;
 330:../../libDaisy//src/hid/disp/display.h ****         }
 331:../../libDaisy//src/hid/disp/display.h **** 
 332:../../libDaisy//src/hid/disp/display.h ****         t_x = -radius;
 333:../../libDaisy//src/hid/disp/display.h ****         t_y = 0;
 334:../../libDaisy//src/hid/disp/display.h ****         err = 2 - 2 * radius;
 335:../../libDaisy//src/hid/disp/display.h **** 
 336:../../libDaisy//src/hid/disp/display.h ****         do
 337:../../libDaisy//src/hid/disp/display.h ****         {
 338:../../libDaisy//src/hid/disp/display.h ****             if(!circle)
 339:../../libDaisy//src/hid/disp/display.h ****             {
 340:../../libDaisy//src/hid/disp/display.h ****                 t_sxy  = start_x * t_y;
 341:../../libDaisy//src/hid/disp/display.h ****                 t_syx  = start_y * t_x;
 342:../../libDaisy//src/hid/disp/display.h ****                 t_sxny = start_x * -t_y;
 343:../../libDaisy//src/hid/disp/display.h ****                 t_synx = start_y * -t_x;
 344:../../libDaisy//src/hid/disp/display.h ****                 t_exy  = end_x * t_y;
 345:../../libDaisy//src/hid/disp/display.h ****                 t_eyx  = end_y * t_x;
 346:../../libDaisy//src/hid/disp/display.h ****                 t_exny = end_x * -t_y;
 347:../../libDaisy//src/hid/disp/display.h ****                 t_eynx = end_y * -t_x;
 348:../../libDaisy//src/hid/disp/display.h **** 
 349:../../libDaisy//src/hid/disp/display.h ****                 if(sweep > 180)
 350:../../libDaisy//src/hid/disp/display.h ****                 {
 351:../../libDaisy//src/hid/disp/display.h ****                     d1 = (t_sxy - t_synx < 0 || t_exy - t_eynx > 0);
 352:../../libDaisy//src/hid/disp/display.h ****                     d2 = (t_sxy - t_syx < 0 || t_exy - t_eyx > 0);
 353:../../libDaisy//src/hid/disp/display.h ****                     d3 = (t_sxny - t_syx < 0 || t_exny - t_eyx > 0);
 354:../../libDaisy//src/hid/disp/display.h ****                     d4 = (t_sxny - t_synx < 0 || t_exny - t_eynx > 0);
 355:../../libDaisy//src/hid/disp/display.h ****                 }
 356:../../libDaisy//src/hid/disp/display.h ****                 else
 357:../../libDaisy//src/hid/disp/display.h ****                 {
 358:../../libDaisy//src/hid/disp/display.h ****                     d1 = (t_sxy - t_synx < 0 && t_exy - t_eynx > 0);
 359:../../libDaisy//src/hid/disp/display.h ****                     d2 = (t_sxy - t_syx < 0 && t_exy - t_eyx > 0);
 360:../../libDaisy//src/hid/disp/display.h ****                     d3 = (t_sxny - t_syx < 0 && t_exny - t_eyx > 0);
 361:../../libDaisy//src/hid/disp/display.h ****                     d4 = (t_sxny - t_synx < 0 && t_exny - t_eynx > 0);
 362:../../libDaisy//src/hid/disp/display.h ****                 }
 363:../../libDaisy//src/hid/disp/display.h ****             }
 364:../../libDaisy//src/hid/disp/display.h **** 
 365:../../libDaisy//src/hid/disp/display.h ****             if(d1)
 366:../../libDaisy//src/hid/disp/display.h ****                 ((ChildType*)(this))
 367:../../libDaisy//src/hid/disp/display.h ****                     ->ChildType::DrawPixel(x - t_x, y + t_y, on);
 368:../../libDaisy//src/hid/disp/display.h ****             if(d2)
 369:../../libDaisy//src/hid/disp/display.h ****                 ((ChildType*)(this))
 370:../../libDaisy//src/hid/disp/display.h ****                     ->ChildType::DrawPixel(x + t_x, y + t_y, on);
 371:../../libDaisy//src/hid/disp/display.h ****             if(d3)
 372:../../libDaisy//src/hid/disp/display.h ****                 ((ChildType*)(this))
 373:../../libDaisy//src/hid/disp/display.h ****                     ->ChildType::DrawPixel(x + t_x, y - t_y, on);
 374:../../libDaisy//src/hid/disp/display.h ****             if(d4)
 375:../../libDaisy//src/hid/disp/display.h ****                 ((ChildType*)(this))
 376:../../libDaisy//src/hid/disp/display.h ****                     ->ChildType::DrawPixel(x - t_x, y - t_y, on);
 377:../../libDaisy//src/hid/disp/display.h **** 
 378:../../libDaisy//src/hid/disp/display.h ****             e2 = err;
 379:../../libDaisy//src/hid/disp/display.h ****             if(e2 <= t_y)
 380:../../libDaisy//src/hid/disp/display.h ****             {
ARM GAS  /var/folders/hl/qgbwny5j0fd895c2c41bk3tw0000gp/T//cceIFtrC.s 			page 47


 381:../../libDaisy//src/hid/disp/display.h ****                 t_y++;
 382:../../libDaisy//src/hid/disp/display.h ****                 err = err + (t_y * 2 + 1);
 383:../../libDaisy//src/hid/disp/display.h ****                 if(-t_x == t_y && e2 <= t_x)
 384:../../libDaisy//src/hid/disp/display.h ****                 {
 385:../../libDaisy//src/hid/disp/display.h ****                     e2 = 0;
 386:../../libDaisy//src/hid/disp/display.h ****                 }
 387:../../libDaisy//src/hid/disp/display.h ****             }
 388:../../libDaisy//src/hid/disp/display.h ****             if(e2 > t_x)
 389:../../libDaisy//src/hid/disp/display.h ****             {
 390:../../libDaisy//src/hid/disp/display.h ****                 t_x++;
 391:../../libDaisy//src/hid/disp/display.h ****                 err = err + (t_x * 2 + 1);
 392:../../libDaisy//src/hid/disp/display.h ****             }
 393:../../libDaisy//src/hid/disp/display.h ****         } while(t_x <= 0);
 394:../../libDaisy//src/hid/disp/display.h ****     }
 395:../../libDaisy//src/hid/disp/display.h **** 
 396:../../libDaisy//src/hid/disp/display.h ****     char WriteChar(char ch, FontDef font, bool on) override
 397:../../libDaisy//src/hid/disp/display.h ****     {
 398:../../libDaisy//src/hid/disp/display.h ****         uint32_t i, b, j;
 399:../../libDaisy//src/hid/disp/display.h **** 
 400:../../libDaisy//src/hid/disp/display.h ****         // Check if character is valid
 401:../../libDaisy//src/hid/disp/display.h ****         if(ch < 32 || ch > 126)
 402:../../libDaisy//src/hid/disp/display.h ****             return 0;
 403:../../libDaisy//src/hid/disp/display.h **** 
 404:../../libDaisy//src/hid/disp/display.h ****         // Check remaining space on current line
 405:../../libDaisy//src/hid/disp/display.h ****         if(Width() < (currentX_ + font.FontWidth)
 406:../../libDaisy//src/hid/disp/display.h ****            || Height() < (currentY_ + font.FontHeight))
 407:../../libDaisy//src/hid/disp/display.h ****         {
 408:../../libDaisy//src/hid/disp/display.h ****             // Not enough space on current line
 409:../../libDaisy//src/hid/disp/display.h ****             return 0;
 410:../../libDaisy//src/hid/disp/display.h ****         }
 411:../../libDaisy//src/hid/disp/display.h **** 
 412:../../libDaisy//src/hid/disp/display.h ****         // Use the font to write
 413:../../libDaisy//src/hid/disp/display.h ****         for(i = 0; i < font.FontHeight; i++)
 414:../../libDaisy//src/hid/disp/display.h ****         {
 415:../../libDaisy//src/hid/disp/display.h ****             b = font.data[(ch - 32) * font.FontHeight + i];
 416:../../libDaisy//src/hid/disp/display.h ****             for(j = 0; j < font.FontWidth; j++)
 417:../../libDaisy//src/hid/disp/display.h ****             {
 418:../../libDaisy//src/hid/disp/display.h ****                 if((b << j) & 0x8000)
 419:../../libDaisy//src/hid/disp/display.h ****                 {
 420:../../libDaisy//src/hid/disp/display.h ****                     ((ChildType*)(this))
 421:../../libDaisy//src/hid/disp/display.h ****                         ->ChildType::DrawPixel(
 422:../../libDaisy//src/hid/disp/display.h ****                             currentX_ + j, (currentY_ + i), on);
 423:../../libDaisy//src/hid/disp/display.h ****                 }
 424:../../libDaisy//src/hid/disp/display.h ****                 else
 425:../../libDaisy//src/hid/disp/display.h ****                 {
 426:../../libDaisy//src/hid/disp/display.h ****                     ((ChildType*)(this))
 427:../../libDaisy//src/hid/disp/display.h ****                         ->ChildType::DrawPixel(
 428:../../libDaisy//src/hid/disp/display.h ****                             currentX_ + j, (currentY_ + i), !on);
 429:../../libDaisy//src/hid/disp/display.h ****                 }
 430:../../libDaisy//src/hid/disp/display.h ****             }
 431:../../libDaisy//src/hid/disp/display.h ****         }
 432:../../libDaisy//src/hid/disp/display.h **** 
 433:../../libDaisy//src/hid/disp/display.h ****         // The current space is now taken
 434:../../libDaisy//src/hid/disp/display.h ****         SetCursor(currentX_ + font.FontWidth, currentY_);
 435:../../libDaisy//src/hid/disp/display.h **** 
 436:../../libDaisy//src/hid/disp/display.h ****         // Return written char for validation
 437:../../libDaisy//src/hid/disp/display.h ****         return ch;
ARM GAS  /var/folders/hl/qgbwny5j0fd895c2c41bk3tw0000gp/T//cceIFtrC.s 			page 48


 438:../../libDaisy//src/hid/disp/display.h ****     }
 439:../../libDaisy//src/hid/disp/display.h **** 
 440:../../libDaisy//src/hid/disp/display.h ****     char WriteString(const char* str, FontDef font, bool on) override
 805              		.loc 9 440 10 is_stmt 1 view -0
 806              		.cfi_startproc
 807              		@ args = 4, pretend = 0, frame = 32
 808              		@ frame_needed = 0, uses_anonymous_args = 0
 809              		.loc 9 440 10 is_stmt 0 view .LVU192
 810 0000 2DE9F04F 		push	{r4, r5, r6, r7, r8, r9, r10, fp, lr}
 811              		.cfi_def_cfa_offset 36
 812              		.cfi_offset 4, -36
 813              		.cfi_offset 5, -32
 814              		.cfi_offset 6, -28
 815              		.cfi_offset 7, -24
 816              		.cfi_offset 8, -20
 817              		.cfi_offset 9, -16
 818              		.cfi_offset 10, -12
 819              		.cfi_offset 11, -8
 820              		.cfi_offset 14, -4
 821 0004 89B0     		sub	sp, sp, #36
 822              		.cfi_def_cfa_offset 72
 823              		.loc 9 440 10 view .LVU193
 824 0006 08AC     		add	r4, sp, #32
 825 0008 9DF84870 		ldrb	r7, [sp, #72]	@ zero_extendqisi2
 826 000c 0191     		str	r1, [sp, #4]
 827 000e 04E90C00 		stmdb	r4, {r2, r3}
 441:../../libDaisy//src/hid/disp/display.h ****     {
 442:../../libDaisy//src/hid/disp/display.h ****         // Write until null-byte
 443:../../libDaisy//src/hid/disp/display.h ****         while(*str)
 828              		.loc 9 443 9 is_stmt 1 view .LVU194
 829 0012 0B78     		ldrb	r3, [r1]	@ zero_extendqisi2
 830 0014 002B     		cmp	r3, #0
 831 0016 00F0AB80 		beq	.L61
 832 001a 1A46     		mov	r2, r3
 833 001c 9DF81880 		ldrb	r8, [sp, #24]	@ zero_extendqisi2
 834 0020 9DF81930 		ldrb	r3, [sp, #25]	@ zero_extendqisi2
 835 0024 0646     		mov	r6, r0
 836 0026 4546     		mov	r5, r8
 837 0028 9046     		mov	r8, r2
 838 002a 0393     		str	r3, [sp, #12]
 839 002c 079B     		ldr	r3, [sp, #28]
 840 002e 0593     		str	r3, [sp, #20]
 841              	.LVL39:
 842              	.L62:
 843              	.LBB598:
 844              	.LBI598:
 396:../../libDaisy//src/hid/disp/display.h ****     {
 845              		.loc 9 396 10 view .LVU195
 846              	.LBB599:
 401:../../libDaisy//src/hid/disp/display.h ****             return 0;
 847              		.loc 9 401 20 is_stmt 0 view .LVU196
 848 0030 A8F12004 		sub	r4, r8, #32
 401:../../libDaisy//src/hid/disp/display.h ****             return 0;
 849              		.loc 9 401 9 view .LVU197
 850 0034 E3B2     		uxtb	r3, r4
 851 0036 5E2B     		cmp	r3, #94
 852 0038 00F29E80 		bhi	.L43
ARM GAS  /var/folders/hl/qgbwny5j0fd895c2c41bk3tw0000gp/T//cceIFtrC.s 			page 49


 405:../../libDaisy//src/hid/disp/display.h ****            || Height() < (currentY_ + font.FontHeight))
 853              		.loc 9 405 17 view .LVU198
 854 003c 3368     		ldr	r3, [r6]
 855 003e 5E4A     		ldr	r2, .L83
 856 0040 DB68     		ldr	r3, [r3, #12]
 857 0042 9342     		cmp	r3, r2
 858 0044 40F09B80 		bne	.L76
 859 0048 8020     		movs	r0, #128
 860              	.L42:
 405:../../libDaisy//src/hid/disp/display.h ****            || Height() < (currentY_ + font.FontHeight))
 861              		.loc 9 405 23 view .LVU199
 862 004a B388     		ldrh	r3, [r6, #4]
 405:../../libDaisy//src/hid/disp/display.h ****            || Height() < (currentY_ + font.FontHeight))
 863              		.loc 9 405 33 view .LVU200
 864 004c 2B44     		add	r3, r3, r5
 406:../../libDaisy//src/hid/disp/display.h ****         {
 865              		.loc 9 406 12 view .LVU201
 866 004e 8342     		cmp	r3, r0
 867 0050 00F39280 		bgt	.L43
 406:../../libDaisy//src/hid/disp/display.h ****         {
 868              		.loc 9 406 21 view .LVU202
 869 0054 3368     		ldr	r3, [r6]
 870 0056 594A     		ldr	r2, .L83+4
 871 0058 9B68     		ldr	r3, [r3, #8]
 872 005a 9342     		cmp	r3, r2
 873 005c 40F09280 		bne	.L77
 874 0060 4020     		movs	r0, #64
 875              	.L44:
 406:../../libDaisy//src/hid/disp/display.h ****         {
 876              		.loc 9 406 27 view .LVU203
 877 0062 F188     		ldrh	r1, [r6, #6]
 406:../../libDaisy//src/hid/disp/display.h ****         {
 878              		.loc 9 406 37 view .LVU204
 879 0064 039A     		ldr	r2, [sp, #12]
 406:../../libDaisy//src/hid/disp/display.h ****         {
 880              		.loc 9 406 27 view .LVU205
 881 0066 0291     		str	r1, [sp, #8]
 406:../../libDaisy//src/hid/disp/display.h ****         {
 882              		.loc 9 406 37 view .LVU206
 883 0068 8B18     		adds	r3, r1, r2
 406:../../libDaisy//src/hid/disp/display.h ****         {
 884              		.loc 9 406 12 view .LVU207
 885 006a 8342     		cmp	r3, r0
 886 006c 00F38480 		bgt	.L43
 887              	.LVL40:
 413:../../libDaisy//src/hid/disp/display.h ****         {
 888              		.loc 9 413 22 is_stmt 1 view .LVU208
 889 0070 002A     		cmp	r2, #0
 890 0072 00F09180 		beq	.L45
 415:../../libDaisy//src/hid/disp/display.h ****             for(j = 0; j < font.FontWidth; j++)
 891              		.loc 9 415 37 is_stmt 0 view .LVU209
 892 0076 02FB04F4 		mul	r4, r2, r4
 893 007a 6FF00049 		mvn	r9, #-2147483648
 894 007e 059B     		ldr	r3, [sp, #20]
 895 0080 A144     		add	r9, r9, r4
 896 0082 1444     		add	r4, r4, r2
 434:../../libDaisy//src/hid/disp/display.h **** 
ARM GAS  /var/folders/hl/qgbwny5j0fd895c2c41bk3tw0000gp/T//cceIFtrC.s 			page 50


 897              		.loc 9 434 19 view .LVU210
 898 0084 B6F804B0 		ldrh	fp, [r6, #4]
 899 0088 03EB4909 		add	r9, r3, r9, lsl #1
 900 008c 023B     		subs	r3, r3, #2
 901 008e CDF81080 		str	r8, [sp, #16]
 902 0092 03EB4403 		add	r3, r3, r4, lsl #1
 903 0096 0C46     		mov	r4, r1
 904 0098 9A46     		mov	r10, r3
 905              	.LVL41:
 906              	.L48:
 415:../../libDaisy//src/hid/disp/display.h ****             for(j = 0; j < font.FontWidth; j++)
 907              		.loc 9 415 15 view .LVU211
 908 009a 39F802CF 		ldrh	ip, [r9, #2]!
 909              	.LVL42:
 416:../../libDaisy//src/hid/disp/display.h ****             {
 910              		.loc 9 416 26 is_stmt 1 view .LVU212
 911 009e A5B3     		cbz	r5, .L53
 912              	.LBB600:
 913              	.LBB601:
 914              	.LBB602:
 915              	.LBB603:
 916              	.LBB604:
 359:../../libDaisy//src/dev/oled_ssd130x.h ****     }
 917              		.loc 15 359 55 is_stmt 0 view .LVU213
 918 00a0 04F00703 		and	r3, r4, #7
 359:../../libDaisy//src/dev/oled_ssd130x.h ****     }
 919              		.loc 15 359 49 view .LVU214
 920 00a4 4FF0010E 		mov	lr, #1
 359:../../libDaisy//src/dev/oled_ssd130x.h ****     }
 921              		.loc 15 359 28 view .LVU215
 922 00a8 E208     		lsrs	r2, r4, #3
 923 00aa 5946     		mov	r1, fp
 359:../../libDaisy//src/dev/oled_ssd130x.h ****     }
 924              		.loc 15 359 49 view .LVU216
 925 00ac 0EFA03FE 		lsl	lr, lr, r3
 926 00b0 0BF11003 		add	r3, fp, #16
 359:../../libDaisy//src/dev/oled_ssd130x.h ****     }
 927              		.loc 15 359 42 view .LVU217
 928 00b4 4FFA8EFE 		sxtb	lr, lr
 929 00b8 03EBC212 		add	r2, r3, r2, lsl #7
 930              	.LBE604:
 931              	.LBE603:
 932              	.LBE602:
 933              	.LBE601:
 934              	.LBE600:
 416:../../libDaisy//src/hid/disp/display.h ****             {
 935              		.loc 9 416 19 view .LVU218
 936 00bc 0023     		movs	r3, #0
 937              	.LBB622:
 938              	.LBB617:
 939              	.LBB612:
 940              	.LBB608:
 941              	.LBB605:
 359:../../libDaisy//src/dev/oled_ssd130x.h ****     }
 942              		.loc 15 359 42 view .LVU219
 943 00be 6FEA0E08 		mvn	r8, lr
 944 00c2 3244     		add	r2, r2, r6
ARM GAS  /var/folders/hl/qgbwny5j0fd895c2c41bk3tw0000gp/T//cceIFtrC.s 			page 51


 945 00c4 0DE0     		b	.L54
 946              	.LVL43:
 947              	.L78:
 359:../../libDaisy//src/dev/oled_ssd130x.h ****     }
 948              		.loc 15 359 42 view .LVU220
 949              	.LBE605:
 950              	.LBE608:
 951              	.LBE612:
 952              	.LBE617:
 953              	.LBE622:
 954              	.LBB623:
 955              	.LBI623:
  42:../../libDaisy//src/hid/disp/oled_display.h ****     {
 956              		.loc 8 42 10 is_stmt 1 view .LVU221
 957              	.LBB624:
 958              	.LBI624:
 352:../../libDaisy//src/dev/oled_ssd130x.h ****     {
 959              		.loc 15 352 10 view .LVU222
 960              	.LBB625:
 354:../../libDaisy//src/dev/oled_ssd130x.h ****             return;
 961              		.loc 15 354 9 is_stmt 0 view .LVU223
 962 00c6 7F29     		cmp	r1, #127
 963 00c8 06D8     		bhi	.L50
 964 00ca 3F2C     		cmp	r4, #63
 965 00cc 04D8     		bhi	.L50
 357:../../libDaisy//src/dev/oled_ssd130x.h ****         else
 966              		.loc 15 357 42 view .LVU224
 967 00ce 1078     		ldrb	r0, [r2]	@ zero_extendqisi2
 356:../../libDaisy//src/dev/oled_ssd130x.h ****             buffer_[x + (y / 8) * width] |= (1 << (y % 8));
 968              		.loc 15 356 9 view .LVU225
 969 00d0 97B1     		cbz	r7, .L52
 970              	.L75:
 356:../../libDaisy//src/dev/oled_ssd130x.h ****             buffer_[x + (y / 8) * width] |= (1 << (y % 8));
 971              		.loc 15 356 9 view .LVU226
 972              	.LBE625:
 973              	.LBE624:
 974              	.LBE623:
 975              	.LBB626:
 976              	.LBB618:
 977              	.LBB613:
 357:../../libDaisy//src/dev/oled_ssd130x.h ****         else
 978              		.loc 15 357 42 view .LVU227
 979 00d2 4EEA0000 		orr	r0, lr, r0
 980 00d6 1070     		strb	r0, [r2]
 981              	.L50:
 982              	.LBE613:
 983              	.LBE618:
 984              	.LBE626:
 416:../../libDaisy//src/hid/disp/display.h ****             {
 985              		.loc 9 416 13 is_stmt 1 view .LVU228
 986 00d8 0133     		adds	r3, r3, #1
 987              	.LVL44:
 416:../../libDaisy//src/hid/disp/display.h ****             {
 988              		.loc 9 416 26 view .LVU229
 989 00da 0132     		adds	r2, r2, #1
 990 00dc 0131     		adds	r1, r1, #1
 991 00de AB42     		cmp	r3, r5
ARM GAS  /var/folders/hl/qgbwny5j0fd895c2c41bk3tw0000gp/T//cceIFtrC.s 			page 52


 992 00e0 13D0     		beq	.L53
 993              	.LVL45:
 994              	.L54:
 418:../../libDaisy//src/hid/disp/display.h ****                 {
 995              		.loc 9 418 23 is_stmt 0 view .LVU230
 996 00e2 0CFA03F0 		lsl	r0, ip, r3
 418:../../libDaisy//src/hid/disp/display.h ****                 {
 997              		.loc 9 418 17 view .LVU231
 998 00e6 0004     		lsls	r0, r0, #16
 999 00e8 EDD4     		bmi	.L78
 1000              	.LVL46:
 1001              	.LBB627:
 1002              	.LBI600:
  42:../../libDaisy//src/hid/disp/oled_display.h ****     {
 1003              		.loc 8 42 10 is_stmt 1 view .LVU232
 1004              	.LBB619:
 1005              	.LBI601:
 352:../../libDaisy//src/dev/oled_ssd130x.h ****     {
 1006              		.loc 15 352 10 view .LVU233
 1007              	.LBB614:
 354:../../libDaisy//src/dev/oled_ssd130x.h ****             return;
 1008              		.loc 15 354 9 is_stmt 0 view .LVU234
 1009 00ea 7F29     		cmp	r1, #127
 1010 00ec F4D8     		bhi	.L50
 1011 00ee 3F2C     		cmp	r4, #63
 1012 00f0 F2D8     		bhi	.L50
 357:../../libDaisy//src/dev/oled_ssd130x.h ****         else
 1013              		.loc 15 357 42 view .LVU235
 1014 00f2 1078     		ldrb	r0, [r2]	@ zero_extendqisi2
 356:../../libDaisy//src/dev/oled_ssd130x.h ****             buffer_[x + (y / 8) * width] |= (1 << (y % 8));
 1015              		.loc 15 356 9 view .LVU236
 1016 00f4 002F     		cmp	r7, #0
 1017 00f6 ECD0     		beq	.L75
 1018              	.L52:
 1019              	.LVL47:
 1020              	.LBB609:
 1021              	.LBI603:
 352:../../libDaisy//src/dev/oled_ssd130x.h ****     {
 1022              		.loc 15 352 10 is_stmt 1 view .LVU237
 352:../../libDaisy//src/dev/oled_ssd130x.h ****     {
 1023              		.loc 15 352 10 is_stmt 0 view .LVU238
 1024              	.LBE609:
 1025              	.LBE614:
 1026              	.LBE619:
 1027              	.LBE627:
 416:../../libDaisy//src/hid/disp/display.h ****             {
 1028              		.loc 9 416 13 view .LVU239
 1029 00f8 0133     		adds	r3, r3, #1
 1030              	.LVL48:
 1031              	.LBB628:
 1032              	.LBB620:
 1033              	.LBB615:
 1034              	.LBB610:
 1035              	.LBB606:
 359:../../libDaisy//src/dev/oled_ssd130x.h ****     }
 1036              		.loc 15 359 42 view .LVU240
 1037 00fa 08EA0000 		and	r0, r8, r0
ARM GAS  /var/folders/hl/qgbwny5j0fd895c2c41bk3tw0000gp/T//cceIFtrC.s 			page 53


 1038              	.LBE606:
 1039              	.LBE610:
 1040              	.LBE615:
 1041              	.LBE620:
 1042              	.LBE628:
 416:../../libDaisy//src/hid/disp/display.h ****             {
 1043              		.loc 9 416 26 view .LVU241
 1044 00fe 0132     		adds	r2, r2, #1
 1045 0100 0131     		adds	r1, r1, #1
 1046 0102 AB42     		cmp	r3, r5
 1047              	.LBB629:
 1048              	.LBB621:
 1049              	.LBB616:
 1050              	.LBB611:
 1051              	.LBB607:
 359:../../libDaisy//src/dev/oled_ssd130x.h ****     }
 1052              		.loc 15 359 42 view .LVU242
 1053 0104 02F8010C 		strb	r0, [r2, #-1]
 359:../../libDaisy//src/dev/oled_ssd130x.h ****     }
 1054              		.loc 15 359 42 view .LVU243
 1055              	.LBE607:
 1056              	.LBE611:
 1057              	.LBE616:
 1058              	.LBE621:
 1059              	.LBE629:
 416:../../libDaisy//src/hid/disp/display.h ****             {
 1060              		.loc 9 416 13 is_stmt 1 view .LVU244
 1061              	.LVL49:
 416:../../libDaisy//src/hid/disp/display.h ****             {
 1062              		.loc 9 416 26 view .LVU245
 1063 0108 EBD1     		bne	.L54
 1064              	.LVL50:
 1065              	.L53:
 413:../../libDaisy//src/hid/disp/display.h ****         {
 1066              		.loc 9 413 9 view .LVU246
 413:../../libDaisy//src/hid/disp/display.h ****         {
 1067              		.loc 9 413 22 view .LVU247
 1068 010a D145     		cmp	r9, r10
 1069 010c 04F10104 		add	r4, r4, #1
 1070 0110 C3D1     		bne	.L48
 1071 0112 DDF81080 		ldr	r8, [sp, #16]
 1072              	.LVL51:
 1073              	.L47:
 1074              	.LBB630:
 1075              	.LBB631:
 173:../../libDaisy//src/hid/disp/display.h ****         currentY_ = (y >= Height()) ? Height() - 1 : y;
 1076              		.loc 9 173 33 is_stmt 0 view .LVU248
 1077 0116 3268     		ldr	r2, [r6]
 1078              	.LBE631:
 1079              	.LBE630:
 434:../../libDaisy//src/hid/disp/display.h **** 
 1080              		.loc 9 434 18 view .LVU249
 1081 0118 0BEB0504 		add	r4, fp, r5
 1082 011c 2649     		ldr	r1, .L83
 1083              	.LBB636:
 1084              	.LBB632:
 173:../../libDaisy//src/hid/disp/display.h ****         currentY_ = (y >= Height()) ? Height() - 1 : y;
ARM GAS  /var/folders/hl/qgbwny5j0fd895c2c41bk3tw0000gp/T//cceIFtrC.s 			page 54


 1085              		.loc 9 173 33 view .LVU250
 1086 011e D368     		ldr	r3, [r2, #12]
 1087              	.LBE632:
 1088              	.LBE636:
 434:../../libDaisy//src/hid/disp/display.h **** 
 1089              		.loc 9 434 18 view .LVU251
 1090 0120 A4B2     		uxth	r4, r4
 1091              	.LVL52:
 1092              	.LBB637:
 1093              	.LBI630:
 171:../../libDaisy//src/hid/disp/display.h ****     {
 1094              		.loc 9 171 10 is_stmt 1 view .LVU252
 1095              	.LBB633:
 173:../../libDaisy//src/hid/disp/display.h ****         currentY_ = (y >= Height()) ? Height() - 1 : y;
 1096              		.loc 9 173 9 view .LVU253
 1097 0122 8B42     		cmp	r3, r1
 1098 0124 34D1     		bne	.L79
 173:../../libDaisy//src/hid/disp/display.h ****         currentY_ = (y >= Height()) ? Height() - 1 : y;
 1099              		.loc 9 173 33 is_stmt 0 view .LVU254
 1100 0126 8020     		movs	r0, #128
 1101              	.L55:
 173:../../libDaisy//src/hid/disp/display.h ****         currentY_ = (y >= Height()) ? Height() - 1 : y;
 1102              		.loc 9 173 19 view .LVU255
 1103 0128 8442     		cmp	r4, r0
 1104 012a 04D3     		bcc	.L56
 173:../../libDaisy//src/hid/disp/display.h ****         currentY_ = (y >= Height()) ? Height() - 1 : y;
 1105              		.loc 9 173 44 view .LVU256
 1106 012c D368     		ldr	r3, [r2, #12]
 1107 012e 2249     		ldr	r1, .L83
 1108 0130 8B42     		cmp	r3, r1
 1109 0132 3AD1     		bne	.L80
 1110 0134 7F24     		movs	r4, #127
 1111              	.LVL53:
 1112              	.L56:
 174:../../libDaisy//src/hid/disp/display.h ****     }
 1113              		.loc 9 174 34 view .LVU257
 1114 0136 9368     		ldr	r3, [r2, #8]
 1115 0138 204A     		ldr	r2, .L83+4
 173:../../libDaisy//src/hid/disp/display.h ****         currentY_ = (y >= Height()) ? Height() - 1 : y;
 1116              		.loc 9 173 19 view .LVU258
 1117 013a B480     		strh	r4, [r6, #4]	@ movhi
 174:../../libDaisy//src/hid/disp/display.h ****     }
 1118              		.loc 9 174 9 is_stmt 1 view .LVU259
 1119 013c 9342     		cmp	r3, r2
 1120 013e 24D1     		bne	.L81
 174:../../libDaisy//src/hid/disp/display.h ****     }
 1121              		.loc 9 174 34 is_stmt 0 view .LVU260
 1122 0140 4020     		movs	r0, #64
 1123              	.L58:
 174:../../libDaisy//src/hid/disp/display.h ****     }
 1124              		.loc 9 174 19 view .LVU261
 1125 0142 029B     		ldr	r3, [sp, #8]
 1126 0144 8342     		cmp	r3, r0
 1127 0146 06D3     		bcc	.L59
 174:../../libDaisy//src/hid/disp/display.h ****     }
 1128              		.loc 9 174 46 view .LVU262
 1129 0148 3368     		ldr	r3, [r6]
ARM GAS  /var/folders/hl/qgbwny5j0fd895c2c41bk3tw0000gp/T//cceIFtrC.s 			page 55


 1130 014a 1C4A     		ldr	r2, .L83+4
 1131 014c 9B68     		ldr	r3, [r3, #8]
 1132 014e 9342     		cmp	r3, r2
 1133 0150 25D1     		bne	.L82
 1134 0152 3F23     		movs	r3, #63
 1135 0154 0293     		str	r3, [sp, #8]
 1136              	.LVL54:
 1137              	.L59:
 174:../../libDaisy//src/hid/disp/display.h ****     }
 1138              		.loc 9 174 19 view .LVU263
 1139 0156 029B     		ldr	r3, [sp, #8]
 1140 0158 F380     		strh	r3, [r6, #6]	@ movhi
 1141              	.LVL55:
 1142              	.L41:
 174:../../libDaisy//src/hid/disp/display.h ****     }
 1143              		.loc 9 174 19 view .LVU264
 1144              	.LBE633:
 1145              	.LBE637:
 1146              	.LBE599:
 1147              	.LBE598:
 444:../../libDaisy//src/hid/disp/display.h ****         {
 445:../../libDaisy//src/hid/disp/display.h ****             if(((ChildType*)(this))->ChildType::WriteChar(*str, font, on)
 446:../../libDaisy//src/hid/disp/display.h ****                != *str)
 1148              		.loc 9 446 16 view .LVU265
 1149 015a 019B     		ldr	r3, [sp, #4]
 1150 015c 1878     		ldrb	r0, [r3]	@ zero_extendqisi2
 445:../../libDaisy//src/hid/disp/display.h ****                != *str)
 1151              		.loc 9 445 13 view .LVU266
 1152 015e 4045     		cmp	r0, r8
 1153 0160 07D1     		bne	.L39
 1154              	.LVL56:
 443:../../libDaisy//src/hid/disp/display.h ****         {
 1155              		.loc 9 443 9 is_stmt 1 view .LVU267
 1156 0162 13F8018F 		ldrb	r8, [r3, #1]!	@ zero_extendqisi2
 1157              	.LVL57:
 443:../../libDaisy//src/hid/disp/display.h ****         {
 1158              		.loc 9 443 9 is_stmt 0 view .LVU268
 1159 0166 0193     		str	r3, [sp, #4]
 1160 0168 B8F1000F 		cmp	r8, #0
 1161 016c 7FF460AF 		bne	.L62
 1162              	.LVL58:
 1163              	.L61:
 1164              	.LBB642:
 1165              	.LBB640:
 402:../../libDaisy//src/hid/disp/display.h **** 
 1166              		.loc 9 402 20 view .LVU269
 1167 0170 0020     		movs	r0, #0
 1168              	.L39:
 1169              	.LBE640:
 1170              	.LBE642:
 447:../../libDaisy//src/hid/disp/display.h ****             {
 448:../../libDaisy//src/hid/disp/display.h ****                 // Char could not be written
 449:../../libDaisy//src/hid/disp/display.h ****                 return *str;
 450:../../libDaisy//src/hid/disp/display.h ****             }
 451:../../libDaisy//src/hid/disp/display.h **** 
 452:../../libDaisy//src/hid/disp/display.h ****             // Next char
 453:../../libDaisy//src/hid/disp/display.h ****             str++;
ARM GAS  /var/folders/hl/qgbwny5j0fd895c2c41bk3tw0000gp/T//cceIFtrC.s 			page 56


 454:../../libDaisy//src/hid/disp/display.h ****         }
 455:../../libDaisy//src/hid/disp/display.h **** 
 456:../../libDaisy//src/hid/disp/display.h ****         // Everything ok
 457:../../libDaisy//src/hid/disp/display.h ****         return *str;
 458:../../libDaisy//src/hid/disp/display.h ****     }
 1171              		.loc 9 458 5 view .LVU270
 1172 0172 09B0     		add	sp, sp, #36
 1173              		.cfi_remember_state
 1174              		.cfi_def_cfa_offset 36
 1175              		@ sp needed
 1176 0174 BDE8F08F 		pop	{r4, r5, r6, r7, r8, r9, r10, fp, pc}
 1177              	.LVL59:
 1178              	.L43:
 1179              		.cfi_restore_state
 1180              	.LBB643:
 1181              	.LBB641:
 402:../../libDaisy//src/hid/disp/display.h **** 
 1182              		.loc 9 402 20 view .LVU271
 1183 0178 4FF00008 		mov	r8, #0
 1184              	.LVL60:
 402:../../libDaisy//src/hid/disp/display.h **** 
 1185              		.loc 9 402 20 view .LVU272
 1186 017c EDE7     		b	.L41
 1187              	.LVL61:
 1188              	.L76:
 405:../../libDaisy//src/hid/disp/display.h ****            || Height() < (currentY_ + font.FontHeight))
 1189              		.loc 9 405 17 view .LVU273
 1190 017e 3046     		mov	r0, r6
 1191 0180 9847     		blx	r3
 1192              	.LVL62:
 1193 0182 62E7     		b	.L42
 1194              	.L77:
 406:../../libDaisy//src/hid/disp/display.h ****         {
 1195              		.loc 9 406 21 view .LVU274
 1196 0184 3046     		mov	r0, r6
 1197 0186 9847     		blx	r3
 1198              	.LVL63:
 1199 0188 6BE7     		b	.L44
 1200              	.LVL64:
 1201              	.L81:
 1202              	.LBB638:
 1203              	.LBB634:
 174:../../libDaisy//src/hid/disp/display.h ****     }
 1204              		.loc 9 174 33 view .LVU275
 1205 018a 3046     		mov	r0, r6
 1206 018c 9847     		blx	r3
 1207              	.LVL65:
 1208 018e D8E7     		b	.L58
 1209              	.LVL66:
 1210              	.L79:
 173:../../libDaisy//src/hid/disp/display.h ****         currentY_ = (y >= Height()) ? Height() - 1 : y;
 1211              		.loc 9 173 32 view .LVU276
 1212 0190 3046     		mov	r0, r6
 1213 0192 9847     		blx	r3
 1214              	.LVL67:
 173:../../libDaisy//src/hid/disp/display.h ****         currentY_ = (y >= Height()) ? Height() - 1 : y;
 1215              		.loc 9 173 44 view .LVU277
ARM GAS  /var/folders/hl/qgbwny5j0fd895c2c41bk3tw0000gp/T//cceIFtrC.s 			page 57


 1216 0194 3268     		ldr	r2, [r6]
 1217 0196 C7E7     		b	.L55
 1218              	.LVL68:
 1219              	.L45:
 173:../../libDaisy//src/hid/disp/display.h ****         currentY_ = (y >= Height()) ? Height() - 1 : y;
 1220              		.loc 9 173 44 view .LVU278
 1221              	.LBE634:
 1222              	.LBE638:
 434:../../libDaisy//src/hid/disp/display.h **** 
 1223              		.loc 9 434 19 view .LVU279
 1224 0198 B6F804B0 		ldrh	fp, [r6, #4]
 1225 019c BBE7     		b	.L47
 1226              	.LVL69:
 1227              	.L82:
 1228              	.LBB639:
 1229              	.LBB635:
 174:../../libDaisy//src/hid/disp/display.h ****     }
 1230              		.loc 9 174 45 view .LVU280
 1231 019e 3046     		mov	r0, r6
 1232 01a0 9847     		blx	r3
 1233              	.LVL70:
 174:../../libDaisy//src/hid/disp/display.h ****     }
 1234              		.loc 9 174 19 view .LVU281
 1235 01a2 0138     		subs	r0, r0, #1
 1236 01a4 83B2     		uxth	r3, r0
 1237 01a6 0293     		str	r3, [sp, #8]
 1238              	.LVL71:
 174:../../libDaisy//src/hid/disp/display.h ****     }
 1239              		.loc 9 174 19 view .LVU282
 1240 01a8 D5E7     		b	.L59
 1241              	.LVL72:
 1242              	.L80:
 173:../../libDaisy//src/hid/disp/display.h ****         currentY_ = (y >= Height()) ? Height() - 1 : y;
 1243              		.loc 9 173 43 view .LVU283
 1244 01aa 3046     		mov	r0, r6
 1245 01ac 9847     		blx	r3
 1246              	.LVL73:
 173:../../libDaisy//src/hid/disp/display.h ****         currentY_ = (y >= Height()) ? Height() - 1 : y;
 1247              		.loc 9 173 19 view .LVU284
 1248 01ae 0138     		subs	r0, r0, #1
 174:../../libDaisy//src/hid/disp/display.h ****     }
 1249              		.loc 9 174 34 view .LVU285
 1250 01b0 3268     		ldr	r2, [r6]
 173:../../libDaisy//src/hid/disp/display.h ****         currentY_ = (y >= Height()) ? Height() - 1 : y;
 1251              		.loc 9 173 19 view .LVU286
 1252 01b2 84B2     		uxth	r4, r0
 1253              	.LVL74:
 173:../../libDaisy//src/hid/disp/display.h ****         currentY_ = (y >= Height()) ? Height() - 1 : y;
 1254              		.loc 9 173 19 view .LVU287
 1255 01b4 BFE7     		b	.L56
 1256              	.L84:
 1257 01b6 00BF     		.align	2
 1258              	.L83:
 1259 01b8 00000000 		.word	_ZNK5daisy11OledDisplayINS_13SSD130xDriverILj128ELj64ENS_19SSD130xI2CTransportEEEE5WidthEv
 1260 01bc 00000000 		.word	_ZNK5daisy11OledDisplayINS_13SSD130xDriverILj128ELj64ENS_19SSD130xI2CTransportEEEE6HeightEv
 1261              	.LBE635:
 1262              	.LBE639:
ARM GAS  /var/folders/hl/qgbwny5j0fd895c2c41bk3tw0000gp/T//cceIFtrC.s 			page 58


 1263              	.LBE641:
 1264              	.LBE643:
 1265              		.cfi_endproc
 1266              	.LFE5452:
 1268              		.section	.text._ZN5daisy25OneBitGraphicsDisplayImplINS_11OledDisplayINS_13SSD130xDriverILj128ELj64
 1269              		.align	1
 1270              		.p2align 2,,3
 1271              		.weak	_ZN5daisy25OneBitGraphicsDisplayImplINS_11OledDisplayINS_13SSD130xDriverILj128ELj64ENS_19SSD
 1272              		.syntax unified
 1273              		.thumb
 1274              		.thumb_func
 1275              		.fpu fpv5-d16
 1277              	_ZN5daisy25OneBitGraphicsDisplayImplINS_11OledDisplayINS_13SSD130xDriverILj128ELj64ENS_19SSD130xI2C
 1278              	.LVL75:
 1279              	.LFB5451:
 396:../../libDaisy//src/hid/disp/display.h ****     {
 1280              		.loc 9 396 10 is_stmt 1 view -0
 1281              		.cfi_startproc
 1282              		@ args = 4, pretend = 0, frame = 16
 1283              		@ frame_needed = 0, uses_anonymous_args = 0
 396:../../libDaisy//src/hid/disp/display.h ****     {
 1284              		.loc 9 396 10 is_stmt 0 view .LVU289
 1285 0000 2DE9F04F 		push	{r4, r5, r6, r7, r8, r9, r10, fp, lr}
 1286              		.cfi_def_cfa_offset 36
 1287              		.cfi_offset 4, -36
 1288              		.cfi_offset 5, -32
 1289              		.cfi_offset 6, -28
 1290              		.cfi_offset 7, -24
 1291              		.cfi_offset 8, -20
 1292              		.cfi_offset 9, -16
 1293              		.cfi_offset 10, -12
 1294              		.cfi_offset 11, -8
 1295              		.cfi_offset 14, -4
 1296 0004 85B0     		sub	sp, sp, #20
 1297              		.cfi_def_cfa_offset 56
 1298              	.LVL76:
 401:../../libDaisy//src/hid/disp/display.h ****             return 0;
 1299              		.loc 9 401 20 view .LVU290
 1300 0006 A1F12005 		sub	r5, r1, #32
 396:../../libDaisy//src/hid/disp/display.h ****     {
 1301              		.loc 9 396 10 view .LVU291
 1302 000a 04AC     		add	r4, sp, #16
 1303 000c 9DF83870 		ldrb	r7, [sp, #56]	@ zero_extendqisi2
 1304 0010 0091     		str	r1, [sp]
 1305 0012 04E90C00 		stmdb	r4, {r2, r3}
 1306              	.LVL77:
 401:../../libDaisy//src/hid/disp/display.h ****             return 0;
 1307              		.loc 9 401 9 view .LVU292
 1308 0016 EBB2     		uxtb	r3, r5
 1309 0018 5E2B     		cmp	r3, #94
 1310 001a 00F29580 		bhi	.L89
 405:../../libDaisy//src/hid/disp/display.h ****            || Height() < (currentY_ + font.FontHeight))
 1311              		.loc 9 405 17 view .LVU293
 1312 001e 0368     		ldr	r3, [r0]
 1313 0020 8046     		mov	r8, r0
 1314 0022 5D4A     		ldr	r2, .L124
 1315 0024 DB68     		ldr	r3, [r3, #12]
ARM GAS  /var/folders/hl/qgbwny5j0fd895c2c41bk3tw0000gp/T//cceIFtrC.s 			page 59


 1316 0026 9DF80840 		ldrb	r4, [sp, #8]	@ zero_extendqisi2
 1317 002a 9342     		cmp	r3, r2
 1318 002c 9DF80960 		ldrb	r6, [sp, #9]	@ zero_extendqisi2
 1319 0030 40F09480 		bne	.L116
 1320 0034 8020     		movs	r0, #128
 1321              	.LVL78:
 1322              	.L88:
 405:../../libDaisy//src/hid/disp/display.h ****            || Height() < (currentY_ + font.FontHeight))
 1323              		.loc 9 405 23 view .LVU294
 1324 0036 B8F80430 		ldrh	r3, [r8, #4]
 405:../../libDaisy//src/hid/disp/display.h ****            || Height() < (currentY_ + font.FontHeight))
 1325              		.loc 9 405 33 view .LVU295
 1326 003a 2344     		add	r3, r3, r4
 406:../../libDaisy//src/hid/disp/display.h ****         {
 1327              		.loc 9 406 12 view .LVU296
 1328 003c 8342     		cmp	r3, r0
 1329 003e 00F38380 		bgt	.L89
 406:../../libDaisy//src/hid/disp/display.h ****         {
 1330              		.loc 9 406 21 discriminator 2 view .LVU297
 1331 0042 D8F80030 		ldr	r3, [r8]
 1332 0046 554A     		ldr	r2, .L124+4
 1333 0048 9B68     		ldr	r3, [r3, #8]
 1334 004a 9342     		cmp	r3, r2
 1335 004c 40F08880 		bne	.L117
 406:../../libDaisy//src/hid/disp/display.h ****         {
 1336              		.loc 9 406 21 view .LVU298
 1337 0050 4020     		movs	r0, #64
 1338              	.L90:
 406:../../libDaisy//src/hid/disp/display.h ****         {
 1339              		.loc 9 406 27 discriminator 2 view .LVU299
 1340 0052 B8F80620 		ldrh	r2, [r8, #6]
 406:../../libDaisy//src/hid/disp/display.h ****         {
 1341              		.loc 9 406 37 discriminator 2 view .LVU300
 1342 0056 9319     		adds	r3, r2, r6
 406:../../libDaisy//src/hid/disp/display.h ****         {
 1343              		.loc 9 406 27 discriminator 2 view .LVU301
 1344 0058 0192     		str	r2, [sp, #4]
 406:../../libDaisy//src/hid/disp/display.h ****         {
 1345              		.loc 9 406 12 discriminator 2 view .LVU302
 1346 005a 8342     		cmp	r3, r0
 1347 005c 74DC     		bgt	.L89
 1348              	.LVL79:
 413:../../libDaisy//src/hid/disp/display.h ****         {
 1349              		.loc 9 413 22 is_stmt 1 view .LVU303
 1350 005e 002E     		cmp	r6, #0
 1351 0060 00F08980 		beq	.L91
 415:../../libDaisy//src/hid/disp/display.h ****             for(j = 0; j < font.FontWidth; j++)
 1352              		.loc 9 415 37 is_stmt 0 view .LVU304
 1353 0064 06FB05F5 		mul	r5, r6, r5
 1354 0068 6FF00040 		mvn	r0, #-2147483648
 415:../../libDaisy//src/hid/disp/display.h ****             for(j = 0; j < font.FontWidth; j++)
 1355              		.loc 9 415 22 view .LVU305
 1356 006c 039B     		ldr	r3, [sp, #12]
 1357 006e 9646     		mov	lr, r2
 1358 0070 2844     		add	r0, r0, r5
 1359 0072 2E44     		add	r6, r6, r5
 434:../../libDaisy//src/hid/disp/display.h **** 
ARM GAS  /var/folders/hl/qgbwny5j0fd895c2c41bk3tw0000gp/T//cceIFtrC.s 			page 60


 1360              		.loc 9 434 19 view .LVU306
 1361 0074 B8F804A0 		ldrh	r10, [r8, #4]
 1362 0078 03EB4000 		add	r0, r3, r0, lsl #1
 1363 007c 023B     		subs	r3, r3, #2
 1364 007e 03EB460B 		add	fp, r3, r6, lsl #1
 1365              	.LVL80:
 1366              	.L94:
 415:../../libDaisy//src/hid/disp/display.h ****             for(j = 0; j < font.FontWidth; j++)
 1367              		.loc 9 415 15 view .LVU307
 1368 0082 30F8026F 		ldrh	r6, [r0, #2]!
 1369              	.LVL81:
 416:../../libDaisy//src/hid/disp/display.h ****             {
 1370              		.loc 9 416 26 is_stmt 1 view .LVU308
 1371 0086 BCB3     		cbz	r4, .L99
 1372              	.LBB674:
 1373              	.LBB675:
 1374              	.LBB676:
 1375              	.LBB677:
 1376              	.LBB678:
 359:../../libDaisy//src/dev/oled_ssd130x.h ****     }
 1377              		.loc 15 359 55 is_stmt 0 view .LVU309
 1378 0088 0EF00703 		and	r3, lr, #7
 359:../../libDaisy//src/dev/oled_ssd130x.h ****     }
 1379              		.loc 15 359 49 view .LVU310
 1380 008c 4FF0010C 		mov	ip, #1
 359:../../libDaisy//src/dev/oled_ssd130x.h ****     }
 1381              		.loc 15 359 28 view .LVU311
 1382 0090 4FEADE02 		lsr	r2, lr, #3
 1383 0094 5146     		mov	r1, r10
 359:../../libDaisy//src/dev/oled_ssd130x.h ****     }
 1384              		.loc 15 359 49 view .LVU312
 1385 0096 0CFA03FC 		lsl	ip, ip, r3
 1386 009a 0AF11003 		add	r3, r10, #16
 359:../../libDaisy//src/dev/oled_ssd130x.h ****     }
 1387              		.loc 15 359 42 view .LVU313
 1388 009e 4FFA8CFC 		sxtb	ip, ip
 1389 00a2 03EBC212 		add	r2, r3, r2, lsl #7
 1390              	.LBE678:
 1391              	.LBE677:
 1392              	.LBE676:
 1393              	.LBE675:
 1394              	.LBE674:
 416:../../libDaisy//src/hid/disp/display.h ****             {
 1395              		.loc 9 416 19 view .LVU314
 1396 00a6 0023     		movs	r3, #0
 1397              	.LBB696:
 1398              	.LBB691:
 1399              	.LBB686:
 1400              	.LBB682:
 1401              	.LBB679:
 359:../../libDaisy//src/dev/oled_ssd130x.h ****     }
 1402              		.loc 15 359 42 view .LVU315
 1403 00a8 6FEA0C09 		mvn	r9, ip
 1404 00ac 4244     		add	r2, r2, r8
 1405 00ae 0EE0     		b	.L100
 1406              	.LVL82:
 1407              	.L118:
ARM GAS  /var/folders/hl/qgbwny5j0fd895c2c41bk3tw0000gp/T//cceIFtrC.s 			page 61


 359:../../libDaisy//src/dev/oled_ssd130x.h ****     }
 1408              		.loc 15 359 42 view .LVU316
 1409              	.LBE679:
 1410              	.LBE682:
 1411              	.LBE686:
 1412              	.LBE691:
 1413              	.LBE696:
 1414              	.LBB697:
 1415              	.LBI697:
  42:../../libDaisy//src/hid/disp/oled_display.h ****     {
 1416              		.loc 8 42 10 is_stmt 1 view .LVU317
 1417              	.LBB698:
 1418              	.LBI698:
 352:../../libDaisy//src/dev/oled_ssd130x.h ****     {
 1419              		.loc 15 352 10 view .LVU318
 1420              	.LBB699:
 354:../../libDaisy//src/dev/oled_ssd130x.h ****             return;
 1421              		.loc 15 354 9 is_stmt 0 view .LVU319
 1422 00b0 7F29     		cmp	r1, #127
 1423 00b2 07D8     		bhi	.L96
 1424 00b4 BEF13F0F 		cmp	lr, #63
 1425 00b8 04D8     		bhi	.L96
 357:../../libDaisy//src/dev/oled_ssd130x.h ****         else
 1426              		.loc 15 357 42 view .LVU320
 1427 00ba 1578     		ldrb	r5, [r2]	@ zero_extendqisi2
 356:../../libDaisy//src/dev/oled_ssd130x.h ****             buffer_[x + (y / 8) * width] |= (1 << (y % 8));
 1428              		.loc 15 356 9 view .LVU321
 1429 00bc 9FB1     		cbz	r7, .L98
 1430              	.L115:
 356:../../libDaisy//src/dev/oled_ssd130x.h ****             buffer_[x + (y / 8) * width] |= (1 << (y % 8));
 1431              		.loc 15 356 9 view .LVU322
 1432              	.LBE699:
 1433              	.LBE698:
 1434              	.LBE697:
 1435              	.LBB700:
 1436              	.LBB692:
 1437              	.LBB687:
 357:../../libDaisy//src/dev/oled_ssd130x.h ****         else
 1438              		.loc 15 357 42 view .LVU323
 1439 00be 4CEA0505 		orr	r5, ip, r5
 1440 00c2 1570     		strb	r5, [r2]
 1441              	.L96:
 1442              	.LBE687:
 1443              	.LBE692:
 1444              	.LBE700:
 416:../../libDaisy//src/hid/disp/display.h ****             {
 1445              		.loc 9 416 13 is_stmt 1 discriminator 2 view .LVU324
 1446 00c4 0133     		adds	r3, r3, #1
 1447              	.LVL83:
 416:../../libDaisy//src/hid/disp/display.h ****             {
 1448              		.loc 9 416 26 discriminator 2 view .LVU325
 1449 00c6 0132     		adds	r2, r2, #1
 1450 00c8 0131     		adds	r1, r1, #1
 1451 00ca 9C42     		cmp	r4, r3
 1452 00cc 14D0     		beq	.L99
 1453              	.LVL84:
 1454              	.L100:
ARM GAS  /var/folders/hl/qgbwny5j0fd895c2c41bk3tw0000gp/T//cceIFtrC.s 			page 62


 418:../../libDaisy//src/hid/disp/display.h ****                 {
 1455              		.loc 9 418 23 is_stmt 0 view .LVU326
 1456 00ce 06FA03F5 		lsl	r5, r6, r3
 418:../../libDaisy//src/hid/disp/display.h ****                 {
 1457              		.loc 9 418 17 view .LVU327
 1458 00d2 2D04     		lsls	r5, r5, #16
 1459 00d4 ECD4     		bmi	.L118
 1460              	.LVL85:
 1461              	.LBB701:
 1462              	.LBI674:
  42:../../libDaisy//src/hid/disp/oled_display.h ****     {
 1463              		.loc 8 42 10 is_stmt 1 view .LVU328
 1464              	.LBB693:
 1465              	.LBI675:
 352:../../libDaisy//src/dev/oled_ssd130x.h ****     {
 1466              		.loc 15 352 10 view .LVU329
 1467              	.LBB688:
 354:../../libDaisy//src/dev/oled_ssd130x.h ****             return;
 1468              		.loc 15 354 9 is_stmt 0 view .LVU330
 1469 00d6 7F29     		cmp	r1, #127
 1470 00d8 F4D8     		bhi	.L96
 1471 00da BEF13F0F 		cmp	lr, #63
 1472 00de F1D8     		bhi	.L96
 357:../../libDaisy//src/dev/oled_ssd130x.h ****         else
 1473              		.loc 15 357 42 view .LVU331
 1474 00e0 1578     		ldrb	r5, [r2]	@ zero_extendqisi2
 356:../../libDaisy//src/dev/oled_ssd130x.h ****             buffer_[x + (y / 8) * width] |= (1 << (y % 8));
 1475              		.loc 15 356 9 view .LVU332
 1476 00e2 002F     		cmp	r7, #0
 1477 00e4 EBD0     		beq	.L115
 1478              	.L98:
 1479              	.LVL86:
 1480              	.LBB683:
 1481              	.LBI677:
 352:../../libDaisy//src/dev/oled_ssd130x.h ****     {
 1482              		.loc 15 352 10 is_stmt 1 view .LVU333
 352:../../libDaisy//src/dev/oled_ssd130x.h ****     {
 1483              		.loc 15 352 10 is_stmt 0 view .LVU334
 1484              	.LBE683:
 1485              	.LBE688:
 1486              	.LBE693:
 1487              	.LBE701:
 416:../../libDaisy//src/hid/disp/display.h ****             {
 1488              		.loc 9 416 13 view .LVU335
 1489 00e6 0133     		adds	r3, r3, #1
 1490              	.LVL87:
 1491              	.LBB702:
 1492              	.LBB694:
 1493              	.LBB689:
 1494              	.LBB684:
 1495              	.LBB680:
 359:../../libDaisy//src/dev/oled_ssd130x.h ****     }
 1496              		.loc 15 359 42 view .LVU336
 1497 00e8 09EA0505 		and	r5, r9, r5
 1498              	.LBE680:
 1499              	.LBE684:
 1500              	.LBE689:
ARM GAS  /var/folders/hl/qgbwny5j0fd895c2c41bk3tw0000gp/T//cceIFtrC.s 			page 63


 1501              	.LBE694:
 1502              	.LBE702:
 416:../../libDaisy//src/hid/disp/display.h ****             {
 1503              		.loc 9 416 26 view .LVU337
 1504 00ec 0132     		adds	r2, r2, #1
 1505 00ee 0131     		adds	r1, r1, #1
 1506 00f0 9C42     		cmp	r4, r3
 1507              	.LBB703:
 1508              	.LBB695:
 1509              	.LBB690:
 1510              	.LBB685:
 1511              	.LBB681:
 359:../../libDaisy//src/dev/oled_ssd130x.h ****     }
 1512              		.loc 15 359 42 view .LVU338
 1513 00f2 02F8015C 		strb	r5, [r2, #-1]
 359:../../libDaisy//src/dev/oled_ssd130x.h ****     }
 1514              		.loc 15 359 42 view .LVU339
 1515              	.LBE681:
 1516              	.LBE685:
 1517              	.LBE690:
 1518              	.LBE695:
 1519              	.LBE703:
 416:../../libDaisy//src/hid/disp/display.h ****             {
 1520              		.loc 9 416 13 is_stmt 1 view .LVU340
 1521              	.LVL88:
 416:../../libDaisy//src/hid/disp/display.h ****             {
 1522              		.loc 9 416 26 view .LVU341
 1523 00f6 EAD1     		bne	.L100
 1524              	.LVL89:
 1525              	.L99:
 413:../../libDaisy//src/hid/disp/display.h ****         {
 1526              		.loc 9 413 9 view .LVU342
 413:../../libDaisy//src/hid/disp/display.h ****         {
 1527              		.loc 9 413 22 view .LVU343
 1528 00f8 5845     		cmp	r0, fp
 1529 00fa 0EF1010E 		add	lr, lr, #1
 1530 00fe C0D1     		bne	.L94
 1531              	.LVL90:
 1532              	.L93:
 1533              	.LBB704:
 1534              	.LBB705:
 173:../../libDaisy//src/hid/disp/display.h ****         currentY_ = (y >= Height()) ? Height() - 1 : y;
 1535              		.loc 9 173 33 is_stmt 0 view .LVU344
 1536 0100 D8F80030 		ldr	r3, [r8]
 1537              	.LBE705:
 1538              	.LBE704:
 434:../../libDaisy//src/hid/disp/display.h **** 
 1539              		.loc 9 434 18 view .LVU345
 1540 0104 5444     		add	r4, r4, r10
 1541 0106 2449     		ldr	r1, .L124
 1542              	.LBB711:
 1543              	.LBB706:
 173:../../libDaisy//src/hid/disp/display.h ****         currentY_ = (y >= Height()) ? Height() - 1 : y;
 1544              		.loc 9 173 33 view .LVU346
 1545 0108 DA68     		ldr	r2, [r3, #12]
 1546              	.LBE706:
 1547              	.LBE711:
ARM GAS  /var/folders/hl/qgbwny5j0fd895c2c41bk3tw0000gp/T//cceIFtrC.s 			page 64


 434:../../libDaisy//src/hid/disp/display.h **** 
 1548              		.loc 9 434 18 view .LVU347
 1549 010a A4B2     		uxth	r4, r4
 1550              	.LVL91:
 1551              	.LBB712:
 1552              	.LBI704:
 171:../../libDaisy//src/hid/disp/display.h ****     {
 1553              		.loc 9 171 10 is_stmt 1 view .LVU348
 1554              	.LBB707:
 173:../../libDaisy//src/hid/disp/display.h ****         currentY_ = (y >= Height()) ? Height() - 1 : y;
 1555              		.loc 9 173 9 view .LVU349
 1556 010c 8A42     		cmp	r2, r1
 1557 010e 2DD1     		bne	.L119
 173:../../libDaisy//src/hid/disp/display.h ****         currentY_ = (y >= Height()) ? Height() - 1 : y;
 1558              		.loc 9 173 33 is_stmt 0 view .LVU350
 1559 0110 8020     		movs	r0, #128
 1560              	.L101:
 173:../../libDaisy//src/hid/disp/display.h ****         currentY_ = (y >= Height()) ? Height() - 1 : y;
 1561              		.loc 9 173 19 view .LVU351
 1562 0112 8442     		cmp	r4, r0
 1563 0114 1CD2     		bcs	.L120
 1564              	.LVL92:
 1565              	.L102:
 174:../../libDaisy//src/hid/disp/display.h ****     }
 1566              		.loc 9 174 34 view .LVU352
 1567 0116 9B68     		ldr	r3, [r3, #8]
 1568 0118 204A     		ldr	r2, .L124+4
 173:../../libDaisy//src/hid/disp/display.h ****         currentY_ = (y >= Height()) ? Height() - 1 : y;
 1569              		.loc 9 173 19 view .LVU353
 1570 011a A8F80440 		strh	r4, [r8, #4]	@ movhi
 174:../../libDaisy//src/hid/disp/display.h ****     }
 1571              		.loc 9 174 9 is_stmt 1 view .LVU354
 1572 011e 9342     		cmp	r3, r2
 1573 0120 21D1     		bne	.L121
 174:../../libDaisy//src/hid/disp/display.h ****     }
 1574              		.loc 9 174 34 is_stmt 0 view .LVU355
 1575 0122 4020     		movs	r0, #64
 1576              	.L104:
 174:../../libDaisy//src/hid/disp/display.h ****     }
 1577              		.loc 9 174 19 view .LVU356
 1578 0124 019B     		ldr	r3, [sp, #4]
 1579 0126 8342     		cmp	r3, r0
 1580 0128 07D3     		bcc	.L105
 174:../../libDaisy//src/hid/disp/display.h ****     }
 1581              		.loc 9 174 46 view .LVU357
 1582 012a D8F80030 		ldr	r3, [r8]
 1583 012e 1B4A     		ldr	r2, .L124+4
 1584 0130 9B68     		ldr	r3, [r3, #8]
 1585 0132 9342     		cmp	r3, r2
 1586 0134 29D1     		bne	.L122
 1587 0136 3F23     		movs	r3, #63
 1588 0138 0193     		str	r3, [sp, #4]
 1589              	.LVL93:
 1590              	.L105:
 174:../../libDaisy//src/hid/disp/display.h ****     }
 1591              		.loc 9 174 19 view .LVU358
 1592 013a DDE90003 		ldrd	r0, r3, [sp]
ARM GAS  /var/folders/hl/qgbwny5j0fd895c2c41bk3tw0000gp/T//cceIFtrC.s 			page 65


 1593 013e A8F80630 		strh	r3, [r8, #6]	@ movhi
 1594              	.LVL94:
 174:../../libDaisy//src/hid/disp/display.h ****     }
 1595              		.loc 9 174 19 view .LVU359
 1596              	.LBE707:
 1597              	.LBE712:
 438:../../libDaisy//src/hid/disp/display.h **** 
 1598              		.loc 9 438 5 view .LVU360
 1599 0142 05B0     		add	sp, sp, #20
 1600              		.cfi_remember_state
 1601              		.cfi_def_cfa_offset 36
 1602              		@ sp needed
 1603 0144 BDE8F08F 		pop	{r4, r5, r6, r7, r8, r9, r10, fp, pc}
 1604              	.LVL95:
 1605              	.L89:
 1606              		.cfi_restore_state
 402:../../libDaisy//src/hid/disp/display.h **** 
 1607              		.loc 9 402 20 view .LVU361
 1608 0148 0020     		movs	r0, #0
 438:../../libDaisy//src/hid/disp/display.h **** 
 1609              		.loc 9 438 5 view .LVU362
 1610 014a 05B0     		add	sp, sp, #20
 1611              		.cfi_remember_state
 1612              		.cfi_def_cfa_offset 36
 1613              		@ sp needed
 1614 014c BDE8F08F 		pop	{r4, r5, r6, r7, r8, r9, r10, fp, pc}
 1615              	.LVL96:
 1616              	.L120:
 1617              		.cfi_restore_state
 1618              	.LBB713:
 1619              	.LBB708:
 173:../../libDaisy//src/hid/disp/display.h ****         currentY_ = (y >= Height()) ? Height() - 1 : y;
 1620              		.loc 9 173 44 view .LVU363
 1621 0150 DA68     		ldr	r2, [r3, #12]
 1622 0152 1149     		ldr	r1, .L124
 1623 0154 8A42     		cmp	r2, r1
 1624 0156 11D1     		bne	.L123
 1625 0158 7F24     		movs	r4, #127
 1626              	.LVL97:
 173:../../libDaisy//src/hid/disp/display.h ****         currentY_ = (y >= Height()) ? Height() - 1 : y;
 1627              		.loc 9 173 44 view .LVU364
 1628 015a DCE7     		b	.L102
 1629              	.LVL98:
 1630              	.L116:
 173:../../libDaisy//src/hid/disp/display.h ****         currentY_ = (y >= Height()) ? Height() - 1 : y;
 1631              		.loc 9 173 44 view .LVU365
 1632              	.LBE708:
 1633              	.LBE713:
 405:../../libDaisy//src/hid/disp/display.h ****            || Height() < (currentY_ + font.FontHeight))
 1634              		.loc 9 405 17 view .LVU366
 1635 015c 9847     		blx	r3
 1636              	.LVL99:
 405:../../libDaisy//src/hid/disp/display.h ****            || Height() < (currentY_ + font.FontHeight))
 1637              		.loc 9 405 17 view .LVU367
 1638 015e 6AE7     		b	.L88
 1639              	.L117:
 406:../../libDaisy//src/hid/disp/display.h ****         {
ARM GAS  /var/folders/hl/qgbwny5j0fd895c2c41bk3tw0000gp/T//cceIFtrC.s 			page 66


 1640              		.loc 9 406 21 discriminator 2 view .LVU368
 1641 0160 4046     		mov	r0, r8
 1642 0162 9847     		blx	r3
 1643              	.LVL100:
 1644 0164 75E7     		b	.L90
 1645              	.LVL101:
 1646              	.L121:
 1647              	.LBB714:
 1648              	.LBB709:
 174:../../libDaisy//src/hid/disp/display.h ****     }
 1649              		.loc 9 174 33 view .LVU369
 1650 0166 4046     		mov	r0, r8
 1651 0168 9847     		blx	r3
 1652              	.LVL102:
 1653 016a DBE7     		b	.L104
 1654              	.LVL103:
 1655              	.L119:
 173:../../libDaisy//src/hid/disp/display.h ****         currentY_ = (y >= Height()) ? Height() - 1 : y;
 1656              		.loc 9 173 32 view .LVU370
 1657 016c 4046     		mov	r0, r8
 1658 016e 9047     		blx	r2
 1659              	.LVL104:
 173:../../libDaisy//src/hid/disp/display.h ****         currentY_ = (y >= Height()) ? Height() - 1 : y;
 1660              		.loc 9 173 44 view .LVU371
 1661 0170 D8F80030 		ldr	r3, [r8]
 1662 0174 CDE7     		b	.L101
 1663              	.LVL105:
 1664              	.L91:
 173:../../libDaisy//src/hid/disp/display.h ****         currentY_ = (y >= Height()) ? Height() - 1 : y;
 1665              		.loc 9 173 44 view .LVU372
 1666              	.LBE709:
 1667              	.LBE714:
 434:../../libDaisy//src/hid/disp/display.h **** 
 1668              		.loc 9 434 19 view .LVU373
 1669 0176 B8F804A0 		ldrh	r10, [r8, #4]
 1670 017a C1E7     		b	.L93
 1671              	.LVL106:
 1672              	.L123:
 1673              	.LBB715:
 1674              	.LBB710:
 173:../../libDaisy//src/hid/disp/display.h ****         currentY_ = (y >= Height()) ? Height() - 1 : y;
 1675              		.loc 9 173 43 view .LVU374
 1676 017c 4046     		mov	r0, r8
 1677 017e 9047     		blx	r2
 1678              	.LVL107:
 173:../../libDaisy//src/hid/disp/display.h ****         currentY_ = (y >= Height()) ? Height() - 1 : y;
 1679              		.loc 9 173 19 view .LVU375
 1680 0180 0138     		subs	r0, r0, #1
 174:../../libDaisy//src/hid/disp/display.h ****     }
 1681              		.loc 9 174 34 view .LVU376
 1682 0182 D8F80030 		ldr	r3, [r8]
 173:../../libDaisy//src/hid/disp/display.h ****         currentY_ = (y >= Height()) ? Height() - 1 : y;
 1683              		.loc 9 173 19 view .LVU377
 1684 0186 84B2     		uxth	r4, r0
 1685              	.LVL108:
 173:../../libDaisy//src/hid/disp/display.h ****         currentY_ = (y >= Height()) ? Height() - 1 : y;
 1686              		.loc 9 173 19 view .LVU378
ARM GAS  /var/folders/hl/qgbwny5j0fd895c2c41bk3tw0000gp/T//cceIFtrC.s 			page 67


 1687 0188 C5E7     		b	.L102
 1688              	.L122:
 174:../../libDaisy//src/hid/disp/display.h ****     }
 1689              		.loc 9 174 45 view .LVU379
 1690 018a 4046     		mov	r0, r8
 1691 018c 9847     		blx	r3
 1692              	.LVL109:
 174:../../libDaisy//src/hid/disp/display.h ****     }
 1693              		.loc 9 174 19 view .LVU380
 1694 018e 0138     		subs	r0, r0, #1
 1695 0190 83B2     		uxth	r3, r0
 1696 0192 0193     		str	r3, [sp, #4]
 1697              	.LVL110:
 174:../../libDaisy//src/hid/disp/display.h ****     }
 1698              		.loc 9 174 19 view .LVU381
 1699 0194 D1E7     		b	.L105
 1700              	.L125:
 1701 0196 00BF     		.align	2
 1702              	.L124:
 1703 0198 00000000 		.word	_ZNK5daisy11OledDisplayINS_13SSD130xDriverILj128ELj64ENS_19SSD130xI2CTransportEEEE5WidthEv
 1704 019c 00000000 		.word	_ZNK5daisy11OledDisplayINS_13SSD130xDriverILj128ELj64ENS_19SSD130xI2CTransportEEEE6HeightEv
 1705              	.LBE710:
 1706              	.LBE715:
 1707              		.cfi_endproc
 1708              	.LFE5451:
 1710              		.section	.text._ZN5daisy25OneBitGraphicsDisplayImplINS_11OledDisplayINS_13SSD130xDriverILj128ELj64
 1711              		.align	1
 1712              		.p2align 2,,3
 1713              		.weak	_ZN5daisy25OneBitGraphicsDisplayImplINS_11OledDisplayINS_13SSD130xDriverILj128ELj64ENS_19SSD
 1714              		.syntax unified
 1715              		.thumb
 1716              		.thumb_func
 1717              		.fpu fpv5-d16
 1719              	_ZN5daisy25OneBitGraphicsDisplayImplINS_11OledDisplayINS_13SSD130xDriverILj128ELj64ENS_19SSD130xI2C
 1720              	.LVL111:
 1721              	.LFB5453:
 459:../../libDaisy//src/hid/disp/display.h **** 
 460:../../libDaisy//src/hid/disp/display.h ****     Rectangle WriteStringAligned(const char*    str,
 1722              		.loc 9 460 15 is_stmt 1 view -0
 1723              		.cfi_startproc
 1724              		@ args = 12, pretend = 0, frame = 32
 1725              		@ frame_needed = 0, uses_anonymous_args = 0
 1726              		.loc 9 460 15 is_stmt 0 view .LVU383
 1727 0000 2DE9F04F 		push	{r4, r5, r6, r7, r8, r9, r10, fp, lr}
 1728              		.cfi_def_cfa_offset 36
 1729              		.cfi_offset 4, -36
 1730              		.cfi_offset 5, -32
 1731              		.cfi_offset 6, -28
 1732              		.cfi_offset 7, -24
 1733              		.cfi_offset 8, -20
 1734              		.cfi_offset 9, -16
 1735              		.cfi_offset 10, -12
 1736              		.cfi_offset 11, -8
 1737              		.cfi_offset 14, -4
 1738 0004 89B0     		sub	sp, sp, #36
 1739              		.cfi_def_cfa_offset 72
 1740              		.loc 9 460 15 view .LVU384
ARM GAS  /var/folders/hl/qgbwny5j0fd895c2c41bk3tw0000gp/T//cceIFtrC.s 			page 68


 1741 0006 1D46     		mov	r5, r3
 1742 0008 8846     		mov	r8, r1
 1743              	.LVL112:
 1744              	.LBB854:
 1745              	.LBI854:
 461:../../libDaisy//src/hid/disp/display.h ****                                  const FontDef& font,
 462:../../libDaisy//src/hid/disp/display.h ****                                  Rectangle      boundingBox,
 463:../../libDaisy//src/hid/disp/display.h ****                                  Alignment      alignment,
 464:../../libDaisy//src/hid/disp/display.h ****                                  bool           on) override
 465:../../libDaisy//src/hid/disp/display.h ****     {
 466:../../libDaisy//src/hid/disp/display.h ****         const auto alignedRect
 467:../../libDaisy//src/hid/disp/display.h ****             = GetTextRect(str, font).AlignedWithin(boundingBox, alignment);
 468:../../libDaisy//src/hid/disp/display.h ****         SetCursor(alignedRect.GetX(), alignedRect.GetY());
 469:../../libDaisy//src/hid/disp/display.h ****         ((ChildType*)(this))->ChildType::WriteString(str, font, on);
 470:../../libDaisy//src/hid/disp/display.h ****         return alignedRect;
 471:../../libDaisy//src/hid/disp/display.h ****     }
 472:../../libDaisy//src/hid/disp/display.h **** 
 473:../../libDaisy//src/hid/disp/display.h ****   private:
 474:../../libDaisy//src/hid/disp/display.h ****     uint32_t strlen(const char* string)
 475:../../libDaisy//src/hid/disp/display.h ****     {
 476:../../libDaisy//src/hid/disp/display.h ****         uint32_t result = 0;
 477:../../libDaisy//src/hid/disp/display.h ****         while(*string++ != '\0')
 478:../../libDaisy//src/hid/disp/display.h ****             result++;
 479:../../libDaisy//src/hid/disp/display.h ****         return result;
 480:../../libDaisy//src/hid/disp/display.h ****     }
 481:../../libDaisy//src/hid/disp/display.h **** 
 482:../../libDaisy//src/hid/disp/display.h ****     Rectangle GetTextRect(const char* text, const FontDef& font)
 1746              		.loc 9 482 15 is_stmt 1 view .LVU385
 1747              	.LBB855:
 1748              	.LBB856:
 1749              	.LBI856:
 474:../../libDaisy//src/hid/disp/display.h ****     {
 1750              		.loc 9 474 14 view .LVU386
 1751              	.LBB857:
 477:../../libDaisy//src/hid/disp/display.h ****             result++;
 1752              		.loc 9 477 25 view .LVU387
 1753              	.LBE857:
 1754              	.LBE856:
 1755              	.LBE855:
 1756              	.LBE854:
 460:../../libDaisy//src/hid/disp/display.h ****                                  const FontDef& font,
 1757              		.loc 9 460 15 is_stmt 0 view .LVU388
 1758 000a 0690     		str	r0, [sp, #24]
 1759              	.LBB872:
 1760              	.LBB868:
 1761              	.LBB861:
 1762              	.LBB858:
 477:../../libDaisy//src/hid/disp/display.h ****             result++;
 1763              		.loc 9 477 25 view .LVU389
 1764 000c 1046     		mov	r0, r2
 1765              	.LVL113:
 477:../../libDaisy//src/hid/disp/display.h ****             result++;
 1766              		.loc 9 477 25 view .LVU390
 1767              	.LBE858:
 1768              	.LBE861:
 1769              	.LBE868:
 1770              	.LBE872:
ARM GAS  /var/folders/hl/qgbwny5j0fd895c2c41bk3tw0000gp/T//cceIFtrC.s 			page 69


 460:../../libDaisy//src/hid/disp/display.h ****                                  const FontDef& font,
 1771              		.loc 9 460 15 view .LVU391
 1772 000e 129C     		ldr	r4, [sp, #72]
 1773              	.LBB873:
 1774              	.LBB869:
 1775              	.LBB862:
 1776              	.LBB859:
 477:../../libDaisy//src/hid/disp/display.h ****             result++;
 1777              		.loc 9 477 25 view .LVU392
 1778 0010 10F8013B 		ldrb	r3, [r0], #1	@ zero_extendqisi2
 1779              	.LVL114:
 477:../../libDaisy//src/hid/disp/display.h ****             result++;
 1780              		.loc 9 477 25 view .LVU393
 1781              	.LBE859:
 1782              	.LBE862:
 1783              	.LBE869:
 1784              	.LBE873:
 460:../../libDaisy//src/hid/disp/display.h ****                                  const FontDef& font,
 1785              		.loc 9 460 15 view .LVU394
 1786 0014 1399     		ldr	r1, [sp, #76]
 1787              	.LVL115:
 460:../../libDaisy//src/hid/disp/display.h ****                                  const FontDef& font,
 1788              		.loc 9 460 15 view .LVU395
 1789 0016 9DF85060 		ldrb	r6, [sp, #80]	@ zero_extendqisi2
 1790 001a 0092     		str	r2, [sp]
 1791              	.LBB874:
 1792              	.LBB870:
 1793              	.LBB863:
 1794              	.LBB860:
 477:../../libDaisy//src/hid/disp/display.h ****             result++;
 1795              		.loc 9 477 25 view .LVU396
 1796 001c 33B1     		cbz	r3, .L127
 476:../../libDaisy//src/hid/disp/display.h ****         while(*string++ != '\0')
 1797              		.loc 9 476 18 view .LVU397
 1798 001e 0022     		movs	r2, #0
 1799              	.LVL116:
 1800              	.L128:
 477:../../libDaisy//src/hid/disp/display.h ****             result++;
 1801              		.loc 9 477 25 view .LVU398
 1802 0020 10F8013B 		ldrb	r3, [r0], #1	@ zero_extendqisi2
 1803              	.LVL117:
 478:../../libDaisy//src/hid/disp/display.h ****         return result;
 1804              		.loc 9 478 13 view .LVU399
 1805 0024 0132     		adds	r2, r2, #1
 1806              	.LVL118:
 477:../../libDaisy//src/hid/disp/display.h ****             result++;
 1807              		.loc 9 477 25 is_stmt 1 view .LVU400
 1808 0026 002B     		cmp	r3, #0
 1809 0028 FAD1     		bne	.L128
 1810              	.LBE860:
 1811              	.LBE863:
 483:../../libDaisy//src/hid/disp/display.h ****     {
 484:../../libDaisy//src/hid/disp/display.h ****         const auto numChars = strlen(text);
 485:../../libDaisy//src/hid/disp/display.h ****         return {int16_t(numChars * font.FontWidth), font.FontHeight};
 1812              		.loc 9 485 68 is_stmt 0 view .LVU401
 1813 002a 93B2     		uxth	r3, r2
 1814              	.LVL119:
ARM GAS  /var/folders/hl/qgbwny5j0fd895c2c41bk3tw0000gp/T//cceIFtrC.s 			page 70


 1815              	.L127:
 1816              		.loc 9 485 68 view .LVU402
 1817 002c 2A78     		ldrb	r2, [r5]	@ zero_extendqisi2
 1818              		.loc 9 485 58 view .LVU403
 1819 002e 6878     		ldrb	r0, [r5, #1]	@ zero_extendqisi2
 1820              		.loc 9 485 68 view .LVU404
 1821 0030 12FB03F3 		smulbb	r3, r2, r3
 1822 0034 02B2     		sxth	r2, r0
 1823              	.LVL120:
 1824              	.LBB864:
 1825              	.LBI864:
 1826              		.file 18 "../../libDaisy//src/hid/disp/graphics_common.h"
   1:../../libDaisy//src/hid/disp/graphics_common.h **** #pragma once
   2:../../libDaisy//src/hid/disp/graphics_common.h **** 
   3:../../libDaisy//src/hid/disp/graphics_common.h **** #include <cstdint>
   4:../../libDaisy//src/hid/disp/graphics_common.h **** 
   5:../../libDaisy//src/hid/disp/graphics_common.h **** namespace daisy
   6:../../libDaisy//src/hid/disp/graphics_common.h **** {
   7:../../libDaisy//src/hid/disp/graphics_common.h **** /** Justifications */
   8:../../libDaisy//src/hid/disp/graphics_common.h **** enum class Alignment
   9:../../libDaisy//src/hid/disp/graphics_common.h **** {
  10:../../libDaisy//src/hid/disp/graphics_common.h ****     centered,
  11:../../libDaisy//src/hid/disp/graphics_common.h ****     topLeft,
  12:../../libDaisy//src/hid/disp/graphics_common.h ****     topCentered,
  13:../../libDaisy//src/hid/disp/graphics_common.h ****     topRight,
  14:../../libDaisy//src/hid/disp/graphics_common.h ****     bottomLeft,
  15:../../libDaisy//src/hid/disp/graphics_common.h ****     bottomCentered,
  16:../../libDaisy//src/hid/disp/graphics_common.h ****     bottomRight,
  17:../../libDaisy//src/hid/disp/graphics_common.h ****     centeredLeft,
  18:../../libDaisy//src/hid/disp/graphics_common.h ****     centeredRight
  19:../../libDaisy//src/hid/disp/graphics_common.h **** };
  20:../../libDaisy//src/hid/disp/graphics_common.h **** 
  21:../../libDaisy//src/hid/disp/graphics_common.h **** class Rectangle
  22:../../libDaisy//src/hid/disp/graphics_common.h **** {
  23:../../libDaisy//src/hid/disp/graphics_common.h ****   public:
  24:../../libDaisy//src/hid/disp/graphics_common.h ****     Rectangle() : x_(0), y_(0), width_(0), height_(0) {}
  25:../../libDaisy//src/hid/disp/graphics_common.h **** 
  26:../../libDaisy//src/hid/disp/graphics_common.h ****     Rectangle(int16_t width, int16_t height)
 1827              		.loc 18 26 5 is_stmt 1 view .LVU405
 1828              	.LBB865:
 1829              	.LBI865:
  27:../../libDaisy//src/hid/disp/graphics_common.h ****     : x_(0), y_(0), width_(max(0, width)), height_(max(0, height))
  28:../../libDaisy//src/hid/disp/graphics_common.h ****     {
  29:../../libDaisy//src/hid/disp/graphics_common.h ****     }
  30:../../libDaisy//src/hid/disp/graphics_common.h **** 
  31:../../libDaisy//src/hid/disp/graphics_common.h ****     Rectangle(int16_t x, int16_t y, int16_t width, int16_t height)
  32:../../libDaisy//src/hid/disp/graphics_common.h ****     : x_(x), y_(y), width_(max(0, width)), height_(max(0, height))
  33:../../libDaisy//src/hid/disp/graphics_common.h ****     {
  34:../../libDaisy//src/hid/disp/graphics_common.h ****     }
  35:../../libDaisy//src/hid/disp/graphics_common.h **** 
  36:../../libDaisy//src/hid/disp/graphics_common.h ****     Rectangle(const Rectangle& other) { *this = other; }
  37:../../libDaisy//src/hid/disp/graphics_common.h **** 
  38:../../libDaisy//src/hid/disp/graphics_common.h ****     Rectangle& operator=(const Rectangle& other)
  39:../../libDaisy//src/hid/disp/graphics_common.h ****     {
  40:../../libDaisy//src/hid/disp/graphics_common.h ****         x_      = other.x_;
  41:../../libDaisy//src/hid/disp/graphics_common.h ****         y_      = other.y_;
  42:../../libDaisy//src/hid/disp/graphics_common.h ****         width_  = other.width_;
ARM GAS  /var/folders/hl/qgbwny5j0fd895c2c41bk3tw0000gp/T//cceIFtrC.s 			page 71


  43:../../libDaisy//src/hid/disp/graphics_common.h ****         height_ = other.height_;
  44:../../libDaisy//src/hid/disp/graphics_common.h ****         return *this;
  45:../../libDaisy//src/hid/disp/graphics_common.h ****     }
  46:../../libDaisy//src/hid/disp/graphics_common.h **** 
  47:../../libDaisy//src/hid/disp/graphics_common.h ****     bool operator==(const Rectangle& other) const
  48:../../libDaisy//src/hid/disp/graphics_common.h ****     {
  49:../../libDaisy//src/hid/disp/graphics_common.h ****         return (x_ == other.x_) && (y_ == other.y_) && (width_ == other.width_)
  50:../../libDaisy//src/hid/disp/graphics_common.h ****                && (height_ == other.height_);
  51:../../libDaisy//src/hid/disp/graphics_common.h ****     }
  52:../../libDaisy//src/hid/disp/graphics_common.h ****     bool operator!=(const Rectangle& other) const { return !(*this == other); }
  53:../../libDaisy//src/hid/disp/graphics_common.h **** 
  54:../../libDaisy//src/hid/disp/graphics_common.h ****     bool IsEmpty() const { return (width_ <= 0) || (height_ <= 0); }
  55:../../libDaisy//src/hid/disp/graphics_common.h **** 
  56:../../libDaisy//src/hid/disp/graphics_common.h ****     int16_t GetX() const { return x_; }
  57:../../libDaisy//src/hid/disp/graphics_common.h ****     int16_t GetY() const { return y_; }
  58:../../libDaisy//src/hid/disp/graphics_common.h ****     int16_t GetWidth() const { return width_; }
  59:../../libDaisy//src/hid/disp/graphics_common.h ****     int16_t GetHeight() const { return height_; }
  60:../../libDaisy//src/hid/disp/graphics_common.h ****     int16_t GetRight() const { return x_ + width_; }
  61:../../libDaisy//src/hid/disp/graphics_common.h ****     int16_t GetBottom() const { return y_ + height_; }
  62:../../libDaisy//src/hid/disp/graphics_common.h ****     int16_t GetCenterX() const { return x_ + width_ / 2; }
  63:../../libDaisy//src/hid/disp/graphics_common.h ****     int16_t GetCenterY() const { return y_ + height_ / 2; }
  64:../../libDaisy//src/hid/disp/graphics_common.h **** 
  65:../../libDaisy//src/hid/disp/graphics_common.h ****     Rectangle WithX(int16_t x) const { return {x, y_, width_, height_}; }
  66:../../libDaisy//src/hid/disp/graphics_common.h ****     Rectangle WithY(int16_t y) const { return {x_, y, width_, height_}; }
  67:../../libDaisy//src/hid/disp/graphics_common.h ****     Rectangle WithWidth(int16_t width) const
  68:../../libDaisy//src/hid/disp/graphics_common.h ****     {
  69:../../libDaisy//src/hid/disp/graphics_common.h ****         return {x_, y_, width, height_};
  70:../../libDaisy//src/hid/disp/graphics_common.h ****     }
  71:../../libDaisy//src/hid/disp/graphics_common.h ****     Rectangle WithHeight(int16_t height) const
  72:../../libDaisy//src/hid/disp/graphics_common.h ****     {
  73:../../libDaisy//src/hid/disp/graphics_common.h ****         return {x_, y_, width_, height};
  74:../../libDaisy//src/hid/disp/graphics_common.h ****     }
  75:../../libDaisy//src/hid/disp/graphics_common.h ****     Rectangle WithSize(int16_t width, int16_t height) const
  76:../../libDaisy//src/hid/disp/graphics_common.h ****     {
  77:../../libDaisy//src/hid/disp/graphics_common.h ****         return {x_, y_, width, height};
  78:../../libDaisy//src/hid/disp/graphics_common.h ****     }
  79:../../libDaisy//src/hid/disp/graphics_common.h ****     Rectangle WithWidthKeepingCenter(int16_t width) const
  80:../../libDaisy//src/hid/disp/graphics_common.h ****     {
  81:../../libDaisy//src/hid/disp/graphics_common.h ****         return Rectangle(x_, y_, width, height_)
  82:../../libDaisy//src/hid/disp/graphics_common.h ****             .WithCenter(GetCenterX(), GetCenterY());
  83:../../libDaisy//src/hid/disp/graphics_common.h ****     }
  84:../../libDaisy//src/hid/disp/graphics_common.h ****     Rectangle WithHeightKeepingCenter(int16_t height) const
  85:../../libDaisy//src/hid/disp/graphics_common.h ****     {
  86:../../libDaisy//src/hid/disp/graphics_common.h ****         return Rectangle(x_, y_, width_, height)
  87:../../libDaisy//src/hid/disp/graphics_common.h ****             .WithCenter(GetCenterX(), GetCenterY());
  88:../../libDaisy//src/hid/disp/graphics_common.h ****     }
  89:../../libDaisy//src/hid/disp/graphics_common.h ****     Rectangle WithSizeKeepingCenter(int16_t width, int16_t height) const
  90:../../libDaisy//src/hid/disp/graphics_common.h ****     {
  91:../../libDaisy//src/hid/disp/graphics_common.h ****         return Rectangle(x_, y_, width, height)
  92:../../libDaisy//src/hid/disp/graphics_common.h ****             .WithCenter(GetCenterX(), GetCenterY());
  93:../../libDaisy//src/hid/disp/graphics_common.h ****     }
  94:../../libDaisy//src/hid/disp/graphics_common.h **** 
  95:../../libDaisy//src/hid/disp/graphics_common.h ****     Rectangle Reduced(int16_t sizeToReduce) const
  96:../../libDaisy//src/hid/disp/graphics_common.h ****     {
  97:../../libDaisy//src/hid/disp/graphics_common.h ****         return {int16_t(x_ + sizeToReduce),
  98:../../libDaisy//src/hid/disp/graphics_common.h ****                 int16_t(y_ + sizeToReduce),
  99:../../libDaisy//src/hid/disp/graphics_common.h ****                 int16_t(width_ - 2 * sizeToReduce),
ARM GAS  /var/folders/hl/qgbwny5j0fd895c2c41bk3tw0000gp/T//cceIFtrC.s 			page 72


 100:../../libDaisy//src/hid/disp/graphics_common.h ****                 int16_t(height_ - 2 * sizeToReduce)};
 101:../../libDaisy//src/hid/disp/graphics_common.h ****     }
 102:../../libDaisy//src/hid/disp/graphics_common.h ****     Rectangle Reduced(int16_t xToReduce, int16_t yToReduce) const
 103:../../libDaisy//src/hid/disp/graphics_common.h ****     {
 104:../../libDaisy//src/hid/disp/graphics_common.h ****         return {int16_t(x_ + xToReduce),
 105:../../libDaisy//src/hid/disp/graphics_common.h ****                 int16_t(y_ + yToReduce),
 106:../../libDaisy//src/hid/disp/graphics_common.h ****                 int16_t(width_ - 2 * xToReduce),
 107:../../libDaisy//src/hid/disp/graphics_common.h ****                 int16_t(height_ - 2 * yToReduce)};
 108:../../libDaisy//src/hid/disp/graphics_common.h ****     }
 109:../../libDaisy//src/hid/disp/graphics_common.h **** 
 110:../../libDaisy//src/hid/disp/graphics_common.h ****     Rectangle Translated(int16_t x, int16_t y) const
 111:../../libDaisy//src/hid/disp/graphics_common.h ****     {
 112:../../libDaisy//src/hid/disp/graphics_common.h ****         return {int16_t(x_ + x), int16_t(y_ + y), width_, height_};
 113:../../libDaisy//src/hid/disp/graphics_common.h ****     }
 114:../../libDaisy//src/hid/disp/graphics_common.h **** 
 115:../../libDaisy//src/hid/disp/graphics_common.h ****     Rectangle WithLeft(int16_t left) const
 116:../../libDaisy//src/hid/disp/graphics_common.h ****     {
 117:../../libDaisy//src/hid/disp/graphics_common.h ****         const auto newWidth = int16_t((x_ - left) + width_);
 118:../../libDaisy//src/hid/disp/graphics_common.h ****         return {left, y_, newWidth, height_};
 119:../../libDaisy//src/hid/disp/graphics_common.h ****     }
 120:../../libDaisy//src/hid/disp/graphics_common.h **** 
 121:../../libDaisy//src/hid/disp/graphics_common.h ****     Rectangle WithRight(int16_t right) const
 122:../../libDaisy//src/hid/disp/graphics_common.h ****     {
 123:../../libDaisy//src/hid/disp/graphics_common.h ****         const auto newWidth = int16_t(right - x_);
 124:../../libDaisy//src/hid/disp/graphics_common.h ****         return {x_, y_, newWidth, height_};
 125:../../libDaisy//src/hid/disp/graphics_common.h ****     }
 126:../../libDaisy//src/hid/disp/graphics_common.h **** 
 127:../../libDaisy//src/hid/disp/graphics_common.h ****     Rectangle WithTop(int16_t top) const
 128:../../libDaisy//src/hid/disp/graphics_common.h ****     {
 129:../../libDaisy//src/hid/disp/graphics_common.h ****         const auto newHeight = int16_t((y_ - top) + height_);
 130:../../libDaisy//src/hid/disp/graphics_common.h ****         return {x_, top, width_, newHeight};
 131:../../libDaisy//src/hid/disp/graphics_common.h ****     }
 132:../../libDaisy//src/hid/disp/graphics_common.h **** 
 133:../../libDaisy//src/hid/disp/graphics_common.h ****     Rectangle WithBottom(int16_t bottom) const
 134:../../libDaisy//src/hid/disp/graphics_common.h ****     {
 135:../../libDaisy//src/hid/disp/graphics_common.h ****         const auto newHeight = int16_t(bottom - y_);
 136:../../libDaisy//src/hid/disp/graphics_common.h ****         return {x_, y_, width_, newHeight};
 137:../../libDaisy//src/hid/disp/graphics_common.h ****     }
 138:../../libDaisy//src/hid/disp/graphics_common.h **** 
 139:../../libDaisy//src/hid/disp/graphics_common.h ****     Rectangle WithTrimmedLeft(int16_t pxToTrim) const
 140:../../libDaisy//src/hid/disp/graphics_common.h ****     {
 141:../../libDaisy//src/hid/disp/graphics_common.h ****         return {
 142:../../libDaisy//src/hid/disp/graphics_common.h ****             int16_t(x_ + pxToTrim), y_, int16_t(width_ - pxToTrim), height_};
 143:../../libDaisy//src/hid/disp/graphics_common.h ****     }
 144:../../libDaisy//src/hid/disp/graphics_common.h **** 
 145:../../libDaisy//src/hid/disp/graphics_common.h ****     Rectangle WithTrimmedRight(int16_t pxToTrim) const
 146:../../libDaisy//src/hid/disp/graphics_common.h ****     {
 147:../../libDaisy//src/hid/disp/graphics_common.h ****         return {x_, y_, int16_t(width_ - pxToTrim), height_};
 148:../../libDaisy//src/hid/disp/graphics_common.h ****     }
 149:../../libDaisy//src/hid/disp/graphics_common.h **** 
 150:../../libDaisy//src/hid/disp/graphics_common.h ****     Rectangle WithTrimmedTop(int16_t pxToTrim) const
 151:../../libDaisy//src/hid/disp/graphics_common.h ****     {
 152:../../libDaisy//src/hid/disp/graphics_common.h ****         return {
 153:../../libDaisy//src/hid/disp/graphics_common.h ****             x_, int16_t(y_ + pxToTrim), width_, int16_t(height_ - pxToTrim)};
 154:../../libDaisy//src/hid/disp/graphics_common.h ****     }
 155:../../libDaisy//src/hid/disp/graphics_common.h **** 
 156:../../libDaisy//src/hid/disp/graphics_common.h ****     Rectangle WithTrimmedBottom(int16_t pxToTrim) const
ARM GAS  /var/folders/hl/qgbwny5j0fd895c2c41bk3tw0000gp/T//cceIFtrC.s 			page 73


 157:../../libDaisy//src/hid/disp/graphics_common.h ****     {
 158:../../libDaisy//src/hid/disp/graphics_common.h ****         return {x_, y_, width_, int16_t(height_ - pxToTrim)};
 159:../../libDaisy//src/hid/disp/graphics_common.h ****     }
 160:../../libDaisy//src/hid/disp/graphics_common.h **** 
 161:../../libDaisy//src/hid/disp/graphics_common.h ****     Rectangle WithCenterX(int16_t centerX) const
 162:../../libDaisy//src/hid/disp/graphics_common.h ****     {
 163:../../libDaisy//src/hid/disp/graphics_common.h ****         return {int16_t(x_ + centerX - GetCenterX()), y_, width_, height_};
 164:../../libDaisy//src/hid/disp/graphics_common.h ****     }
 165:../../libDaisy//src/hid/disp/graphics_common.h **** 
 166:../../libDaisy//src/hid/disp/graphics_common.h ****     Rectangle WithCenterY(int16_t centerY) const
 167:../../libDaisy//src/hid/disp/graphics_common.h ****     {
 168:../../libDaisy//src/hid/disp/graphics_common.h ****         return {x_, int16_t(y_ + centerY - GetCenterY()), width_, height_};
 169:../../libDaisy//src/hid/disp/graphics_common.h ****     }
 170:../../libDaisy//src/hid/disp/graphics_common.h **** 
 171:../../libDaisy//src/hid/disp/graphics_common.h ****     Rectangle WithCenter(int16_t centerX, int16_t centerY) const
 172:../../libDaisy//src/hid/disp/graphics_common.h ****     {
 173:../../libDaisy//src/hid/disp/graphics_common.h ****         return {int16_t(x_ + centerX - GetCenterX()),
 174:../../libDaisy//src/hid/disp/graphics_common.h ****                 int16_t(y_ + centerY - GetCenterY()),
 175:../../libDaisy//src/hid/disp/graphics_common.h ****                 width_,
 176:../../libDaisy//src/hid/disp/graphics_common.h ****                 height_};
 177:../../libDaisy//src/hid/disp/graphics_common.h ****     }
 178:../../libDaisy//src/hid/disp/graphics_common.h **** 
 179:../../libDaisy//src/hid/disp/graphics_common.h ****     Rectangle RemoveFromLeft(int16_t pxToRemove)
 180:../../libDaisy//src/hid/disp/graphics_common.h ****     {
 181:../../libDaisy//src/hid/disp/graphics_common.h ****         const auto result = this->WithWidth(min(pxToRemove, width_));
 182:../../libDaisy//src/hid/disp/graphics_common.h ****         x_ += min(pxToRemove, width_);
 183:../../libDaisy//src/hid/disp/graphics_common.h ****         width_ = max(int16_t(width_ - pxToRemove), 0);
 184:../../libDaisy//src/hid/disp/graphics_common.h ****         return result;
 185:../../libDaisy//src/hid/disp/graphics_common.h ****     }
 186:../../libDaisy//src/hid/disp/graphics_common.h **** 
 187:../../libDaisy//src/hid/disp/graphics_common.h ****     Rectangle RemoveFromRight(int16_t pxToRemove)
 188:../../libDaisy//src/hid/disp/graphics_common.h ****     {
 189:../../libDaisy//src/hid/disp/graphics_common.h ****         const auto canRemove = min(pxToRemove, width_);
 190:../../libDaisy//src/hid/disp/graphics_common.h ****         width_ -= canRemove;
 191:../../libDaisy//src/hid/disp/graphics_common.h ****         return {int16_t(x_ + width_), y_, canRemove, height_};
 192:../../libDaisy//src/hid/disp/graphics_common.h ****     }
 193:../../libDaisy//src/hid/disp/graphics_common.h **** 
 194:../../libDaisy//src/hid/disp/graphics_common.h ****     Rectangle RemoveFromTop(int16_t pxToRemove)
 195:../../libDaisy//src/hid/disp/graphics_common.h ****     {
 196:../../libDaisy//src/hid/disp/graphics_common.h ****         const auto result = this->WithHeight(min(pxToRemove, height_));
 197:../../libDaisy//src/hid/disp/graphics_common.h ****         y_ += min(pxToRemove, height_);
 198:../../libDaisy//src/hid/disp/graphics_common.h ****         height_ = max(height_ - pxToRemove, 0);
 199:../../libDaisy//src/hid/disp/graphics_common.h ****         return result;
 200:../../libDaisy//src/hid/disp/graphics_common.h ****     }
 201:../../libDaisy//src/hid/disp/graphics_common.h **** 
 202:../../libDaisy//src/hid/disp/graphics_common.h ****     Rectangle RemoveFromBottom(int16_t pxToRemove)
 203:../../libDaisy//src/hid/disp/graphics_common.h ****     {
