ARM GAS  /var/folders/hl/qgbwny5j0fd895c2c41bk3tw0000gp/T//cc804SGY.s 			page 1


   1              		.cpu cortex-m7
   2              		.eabi_attribute 28, 1
   3              		.eabi_attribute 20, 1
   4              		.eabi_attribute 21, 1
   5              		.eabi_attribute 23, 3
   6              		.eabi_attribute 24, 1
   7              		.eabi_attribute 25, 1
   8              		.eabi_attribute 26, 1
   9              		.eabi_attribute 30, 2
  10              		.eabi_attribute 34, 1
  11              		.eabi_attribute 18, 4
  12              		.file	"RFFTtest.cpp"
  13              		.text
  14              	.Ltext0:
  15              		.cfi_sections	.debug_frame
  16              		.section	.text._ZN5daisy8patch_sm12DaisyPatchSMD2Ev,"axG",%progbits,_ZN5daisy8patch_sm12DaisyPatch
  17              		.align	1
  18              		.p2align 2,,3
  19              		.weak	_ZN5daisy8patch_sm12DaisyPatchSMD2Ev
  20              		.arch armv7e-m
  21              		.syntax unified
  22              		.thumb
  23              		.thumb_func
  24              		.fpu fpv5-d16
  26              	_ZN5daisy8patch_sm12DaisyPatchSMD2Ev:
  27              	.LVL0:
  28              	.LFB2529:
  29              		.file 1 "../../libDaisy//src/daisy_patch_sm.h"
   1:../../libDaisy//src/daisy_patch_sm.h **** #pragma once
   2:../../libDaisy//src/daisy_patch_sm.h **** 
   3:../../libDaisy//src/daisy_patch_sm.h **** #include "daisy.h"
   4:../../libDaisy//src/daisy_patch_sm.h **** 
   5:../../libDaisy//src/daisy_patch_sm.h **** namespace daisy
   6:../../libDaisy//src/daisy_patch_sm.h **** {
   7:../../libDaisy//src/daisy_patch_sm.h **** namespace patch_sm
   8:../../libDaisy//src/daisy_patch_sm.h **** {
   9:../../libDaisy//src/daisy_patch_sm.h ****     /** Accessors for the Analog Controls. 
  10:../../libDaisy//src/daisy_patch_sm.h ****      *  These cover the 8x Bipolar CV inputs
  11:../../libDaisy//src/daisy_patch_sm.h ****      *  as well as the 4x 0-3V3 ADC inputs on
  12:../../libDaisy//src/daisy_patch_sm.h ****      *  the hardware 
  13:../../libDaisy//src/daisy_patch_sm.h ****      * 
  14:../../libDaisy//src/daisy_patch_sm.h ****      *  When reading a value with DaisyPatchSM::GetAdcValue()
  15:../../libDaisy//src/daisy_patch_sm.h ****      * 
  16:../../libDaisy//src/daisy_patch_sm.h ****      *  patch.GetAdcValue(patch_sm::CV_1);
  17:../../libDaisy//src/daisy_patch_sm.h ****      */
  18:../../libDaisy//src/daisy_patch_sm.h ****     enum
  19:../../libDaisy//src/daisy_patch_sm.h ****     {
  20:../../libDaisy//src/daisy_patch_sm.h ****         CV_1 = 0,
  21:../../libDaisy//src/daisy_patch_sm.h ****         CV_2,
  22:../../libDaisy//src/daisy_patch_sm.h ****         CV_3,
  23:../../libDaisy//src/daisy_patch_sm.h ****         CV_4,
  24:../../libDaisy//src/daisy_patch_sm.h ****         CV_5,
  25:../../libDaisy//src/daisy_patch_sm.h ****         CV_6,
  26:../../libDaisy//src/daisy_patch_sm.h ****         CV_7,
  27:../../libDaisy//src/daisy_patch_sm.h ****         CV_8,
  28:../../libDaisy//src/daisy_patch_sm.h ****         ADC_9,
  29:../../libDaisy//src/daisy_patch_sm.h ****         ADC_10,
ARM GAS  /var/folders/hl/qgbwny5j0fd895c2c41bk3tw0000gp/T//cc804SGY.s 			page 2


  30:../../libDaisy//src/daisy_patch_sm.h ****         ADC_11,
  31:../../libDaisy//src/daisy_patch_sm.h ****         ADC_12,
  32:../../libDaisy//src/daisy_patch_sm.h ****         ADC_LAST,
  33:../../libDaisy//src/daisy_patch_sm.h ****     };
  34:../../libDaisy//src/daisy_patch_sm.h **** 
  35:../../libDaisy//src/daisy_patch_sm.h ****     /** Enum for addressing the CV Outputs via the WriteCvOut function. */
  36:../../libDaisy//src/daisy_patch_sm.h ****     enum
  37:../../libDaisy//src/daisy_patch_sm.h ****     {
  38:../../libDaisy//src/daisy_patch_sm.h ****         CV_OUT_BOTH = 0,
  39:../../libDaisy//src/daisy_patch_sm.h ****         CV_OUT_1,
  40:../../libDaisy//src/daisy_patch_sm.h ****         CV_OUT_2,
  41:../../libDaisy//src/daisy_patch_sm.h ****     };
  42:../../libDaisy//src/daisy_patch_sm.h **** 
  43:../../libDaisy//src/daisy_patch_sm.h **** 
  44:../../libDaisy//src/daisy_patch_sm.h ****     /** @brief Board support file for DaisyPatchSM hardware
  45:../../libDaisy//src/daisy_patch_sm.h ****      *  @author shensley
  46:../../libDaisy//src/daisy_patch_sm.h ****      *  @ingroup boards
  47:../../libDaisy//src/daisy_patch_sm.h ****      * 
  48:../../libDaisy//src/daisy_patch_sm.h ****      *  Daisy Patch SM is a complete Eurorack module DSP engine.
  49:../../libDaisy//src/daisy_patch_sm.h ****      *  Based on the Daisy Seed, with circuits added for 
  50:../../libDaisy//src/daisy_patch_sm.h ****      *  interfacing directly with eurorack modular synthesizers.
  51:../../libDaisy//src/daisy_patch_sm.h ****      */
  52:../../libDaisy//src/daisy_patch_sm.h ****     class DaisyPatchSM
  53:../../libDaisy//src/daisy_patch_sm.h ****     {
  54:../../libDaisy//src/daisy_patch_sm.h ****       public:
  55:../../libDaisy//src/daisy_patch_sm.h ****         /** Helper for mapping pins, and accessing them using the `GetPin` function */
  56:../../libDaisy//src/daisy_patch_sm.h ****         enum class PinBank
  57:../../libDaisy//src/daisy_patch_sm.h ****         {
  58:../../libDaisy//src/daisy_patch_sm.h ****             A,
  59:../../libDaisy//src/daisy_patch_sm.h ****             B,
  60:../../libDaisy//src/daisy_patch_sm.h ****             C,
  61:../../libDaisy//src/daisy_patch_sm.h ****             D
  62:../../libDaisy//src/daisy_patch_sm.h ****         };
  63:../../libDaisy//src/daisy_patch_sm.h **** 
  64:../../libDaisy//src/daisy_patch_sm.h ****         DaisyPatchSM() {}
  65:../../libDaisy//src/daisy_patch_sm.h ****         ~DaisyPatchSM() {}
  30              		.loc 1 65 9 view -0
  31              		.cfi_startproc
  32              		@ args = 0, pretend = 0, frame = 0
  33              		@ frame_needed = 0, uses_anonymous_args = 0
  34              		@ link register save eliminated.
  35              	.LBB579:
  36              	.LBI579:
  37              		.file 2 "../../libDaisy//src/hid/gatein.h"
   1:../../libDaisy//src/hid/gatein.h **** #pragma once
   2:../../libDaisy//src/hid/gatein.h **** #ifndef DSY_GATEIN_H
   3:../../libDaisy//src/hid/gatein.h **** #define DSY_GATEIN_H
   4:../../libDaisy//src/hid/gatein.h **** #include "per/gpio.h"
   5:../../libDaisy//src/hid/gatein.h **** 
   6:../../libDaisy//src/hid/gatein.h **** namespace daisy
   7:../../libDaisy//src/hid/gatein.h **** {
   8:../../libDaisy//src/hid/gatein.h **** /**
   9:../../libDaisy//src/hid/gatein.h ****    @brief Generic Class for handling gate inputs through GPIO.
  10:../../libDaisy//src/hid/gatein.h ****    @author Stephen Hensley
  11:../../libDaisy//src/hid/gatein.h ****    @date    March 2020
  12:../../libDaisy//src/hid/gatein.h ****    @ingroup controls
  13:../../libDaisy//src/hid/gatein.h **** */
ARM GAS  /var/folders/hl/qgbwny5j0fd895c2c41bk3tw0000gp/T//cc804SGY.s 			page 3


  14:../../libDaisy//src/hid/gatein.h **** class GateIn
  15:../../libDaisy//src/hid/gatein.h **** {
  16:../../libDaisy//src/hid/gatein.h ****   public:
  17:../../libDaisy//src/hid/gatein.h ****     /** GateIn 
  18:../../libDaisy//src/hid/gatein.h ****     Constructor 
  19:../../libDaisy//src/hid/gatein.h ****     */
  20:../../libDaisy//src/hid/gatein.h ****     GateIn() {}
  21:../../libDaisy//src/hid/gatein.h ****     /** GateIn~
  22:../../libDaisy//src/hid/gatein.h ****     Destructor 
  23:../../libDaisy//src/hid/gatein.h ****     */
  24:../../libDaisy//src/hid/gatein.h ****     ~GateIn() {}
  38              		.loc 2 24 5 view .LVU1
  39              		.loc 2 24 5 is_stmt 0 view .LVU2
  40              	.LBE579:
  41              	.LBB580:
  42              	.LBI580:
  43              		.loc 2 24 5 is_stmt 1 view .LVU3
  44              		.loc 2 24 5 is_stmt 0 view .LVU4
  45              	.LBE580:
  46              	.LBB581:
  47              	.LBI581:
  48              		.file 3 "../../libDaisy//src/dev/codec_pcm3060.h"
   1:../../libDaisy//src/dev/codec_pcm3060.h **** #pragma once
   2:../../libDaisy//src/dev/codec_pcm3060.h **** #ifndef DSY_CODEC_PCM3060_H
   3:../../libDaisy//src/dev/codec_pcm3060.h **** #define DSY_CODEC_PCM3060_H
   4:../../libDaisy//src/dev/codec_pcm3060.h **** #include "per/i2c.h"
   5:../../libDaisy//src/dev/codec_pcm3060.h **** namespace daisy
   6:../../libDaisy//src/dev/codec_pcm3060.h **** {
   7:../../libDaisy//src/dev/codec_pcm3060.h **** /**
   8:../../libDaisy//src/dev/codec_pcm3060.h ****  * @brief Driver for the TI PCM3060 Audio Codec.
   9:../../libDaisy//src/dev/codec_pcm3060.h ****  * @addtogroup codec
  10:../../libDaisy//src/dev/codec_pcm3060.h ****  * 
  11:../../libDaisy//src/dev/codec_pcm3060.h ****  * For now this is a limited interface that uses I2C to communicate with the PCM3060
  12:../../libDaisy//src/dev/codec_pcm3060.h ****  * The device can also be accessed with SPI, which is not yet supported.
  13:../../libDaisy//src/dev/codec_pcm3060.h ****  * 
  14:../../libDaisy//src/dev/codec_pcm3060.h ****  * For now all registers are set to their defaults, and the Init function will 
  15:../../libDaisy//src/dev/codec_pcm3060.h ****  * perform a MRST and SRST before setting the format to 24bit LJ, and disabling 
  16:../../libDaisy//src/dev/codec_pcm3060.h ****  * power save for both the ADC and DAC.
  17:../../libDaisy//src/dev/codec_pcm3060.h ****  *
  18:../../libDaisy//src/dev/codec_pcm3060.h ****  */
  19:../../libDaisy//src/dev/codec_pcm3060.h **** class Pcm3060
  20:../../libDaisy//src/dev/codec_pcm3060.h **** {
  21:../../libDaisy//src/dev/codec_pcm3060.h ****   public:
  22:../../libDaisy//src/dev/codec_pcm3060.h ****     enum class Result
  23:../../libDaisy//src/dev/codec_pcm3060.h ****     {
  24:../../libDaisy//src/dev/codec_pcm3060.h ****         OK,
  25:../../libDaisy//src/dev/codec_pcm3060.h ****         ERR,
  26:../../libDaisy//src/dev/codec_pcm3060.h ****     };
  27:../../libDaisy//src/dev/codec_pcm3060.h **** 
  28:../../libDaisy//src/dev/codec_pcm3060.h ****     Pcm3060() {}
  29:../../libDaisy//src/dev/codec_pcm3060.h ****     ~Pcm3060() {}
  49              		.loc 3 29 5 is_stmt 1 view .LVU5
  50              		.loc 3 29 5 is_stmt 0 view .LVU6
  51              	.LBE581:
  52              	.LBB582:
  53              	.LBI582:
  54              		.file 4 "../../libDaisy//src/hid/usb.h"
ARM GAS  /var/folders/hl/qgbwny5j0fd895c2c41bk3tw0000gp/T//cc804SGY.s 			page 4


   1:../../libDaisy//src/hid/usb.h **** #pragma once
   2:../../libDaisy//src/hid/usb.h **** #ifndef DSY_HID_USB_H
   3:../../libDaisy//src/hid/usb.h **** #define DSY_HID_USB_H
   4:../../libDaisy//src/hid/usb.h **** #include <stdint.h>
   5:../../libDaisy//src/hid/usb.h **** #include <stdlib.h>
   6:../../libDaisy//src/hid/usb.h **** 
   7:../../libDaisy//src/hid/usb.h **** namespace daisy
   8:../../libDaisy//src/hid/usb.h **** /** @addtogroup human_interface
   9:../../libDaisy//src/hid/usb.h ****     @{
  10:../../libDaisy//src/hid/usb.h **** */
  11:../../libDaisy//src/hid/usb.h **** 
  12:../../libDaisy//src/hid/usb.h **** {
  13:../../libDaisy//src/hid/usb.h **** /** 
  14:../../libDaisy//src/hid/usb.h ****     @brief Interface for initializing and using the USB Peripherals on the daisy
  15:../../libDaisy//src/hid/usb.h ****     @author Stephen Hensley
  16:../../libDaisy//src/hid/usb.h ****     @date December 2019
  17:../../libDaisy//src/hid/usb.h **** */
  18:../../libDaisy//src/hid/usb.h **** class UsbHandle
  19:../../libDaisy//src/hid/usb.h **** {
  20:../../libDaisy//src/hid/usb.h ****   public:
  21:../../libDaisy//src/hid/usb.h ****     /** Return values for USBHandle Functions */
  22:../../libDaisy//src/hid/usb.h ****     enum class Result
  23:../../libDaisy//src/hid/usb.h ****     {
  24:../../libDaisy//src/hid/usb.h ****         OK,
  25:../../libDaisy//src/hid/usb.h ****         ERR,
  26:../../libDaisy//src/hid/usb.h ****     };
  27:../../libDaisy//src/hid/usb.h **** 
  28:../../libDaisy//src/hid/usb.h ****     /** Specified which of the two USB Peripherals to initialize. */
  29:../../libDaisy//src/hid/usb.h ****     enum UsbPeriph
  30:../../libDaisy//src/hid/usb.h ****     {
  31:../../libDaisy//src/hid/usb.h ****         FS_INTERNAL, /**< Internal pin */
  32:../../libDaisy//src/hid/usb.h ****         FS_EXTERNAL, /**< FS External D+ pin is Pin 38 (GPIO32). FS External D- pin is Pin 37 (GPIO
  33:../../libDaisy//src/hid/usb.h ****         FS_BOTH,     /**< Both */
  34:../../libDaisy//src/hid/usb.h ****     };
  35:../../libDaisy//src/hid/usb.h **** 
  36:../../libDaisy//src/hid/usb.h **** 
  37:../../libDaisy//src/hid/usb.h ****     /** Function called upon reception of a buffer */
  38:../../libDaisy//src/hid/usb.h ****     typedef void (*ReceiveCallback)(uint8_t* buff, uint32_t* len);
  39:../../libDaisy//src/hid/usb.h **** 
  40:../../libDaisy//src/hid/usb.h ****     UsbHandle() {}
  41:../../libDaisy//src/hid/usb.h **** 
  42:../../libDaisy//src/hid/usb.h ****     ~UsbHandle() {}
  55              		.loc 4 42 5 is_stmt 1 view .LVU7
  56              		.loc 4 42 5 is_stmt 0 view .LVU8
  57              	.LBE582:
  58              	.LBB583:
  59              	.LBI583:
  60              		.file 5 "../../libDaisy//src/per/adc.h"
   1:../../libDaisy//src/per/adc.h **** #pragma once
   2:../../libDaisy//src/per/adc.h **** #ifndef DSY_ADC_H
   3:../../libDaisy//src/per/adc.h **** #define DSY_ADC_H /**< Macro */
   4:../../libDaisy//src/per/adc.h **** #include <stdint.h>
   5:../../libDaisy//src/per/adc.h **** #include <stdlib.h>
   6:../../libDaisy//src/per/adc.h **** #include "daisy_core.h"
   7:../../libDaisy//src/per/adc.h **** #include "per/gpio.h"
   8:../../libDaisy//src/per/adc.h **** 
   9:../../libDaisy//src/per/adc.h **** #define DSY_ADC_MAX_CHANNELS 16 /**< Maximum number of ADC channels */
ARM GAS  /var/folders/hl/qgbwny5j0fd895c2c41bk3tw0000gp/T//cc804SGY.s 			page 5


  10:../../libDaisy//src/per/adc.h **** 
  11:../../libDaisy//src/per/adc.h **** namespace daisy
  12:../../libDaisy//src/per/adc.h **** {
  13:../../libDaisy//src/per/adc.h **** /** @addtogroup per_analog
  14:../../libDaisy//src/per/adc.h ****     @{
  15:../../libDaisy//src/per/adc.h **** */
  16:../../libDaisy//src/per/adc.h **** 
  17:../../libDaisy//src/per/adc.h **** /* While there may not be many configuration options here,
  18:../../libDaisy//src/per/adc.h **** using a struct like this allows us to add more configuration
  19:../../libDaisy//src/per/adc.h **** later without breaking existing functionality.
  20:../../libDaisy//src/per/adc.h **** */
  21:../../libDaisy//src/per/adc.h **** 
  22:../../libDaisy//src/per/adc.h **** /** @brief   Configuration Structure for an ADC Channel 
  23:../../libDaisy//src/per/adc.h ****  *  @details This can be used to configure a a single input, 
  24:../../libDaisy//src/per/adc.h ****  *           or a multiplexed input, allowing up to 8 inputs on 
  25:../../libDaisy//src/per/adc.h ****  *           one channel.
  26:../../libDaisy//src/per/adc.h ****  *  @note    Sharing data lines to multiple muxes _is_ possible, but
  27:../../libDaisy//src/per/adc.h ****  *           each channel sharing data lines must be set to the maximum
  28:../../libDaisy//src/per/adc.h ****  *           number of channels, even if some multiplexers have fewer
  29:../../libDaisy//src/per/adc.h ****  *           inputs connected.
  30:../../libDaisy//src/per/adc.h **** */
  31:../../libDaisy//src/per/adc.h **** struct AdcChannelConfig
  32:../../libDaisy//src/per/adc.h **** {
  33:../../libDaisy//src/per/adc.h ****     /** Which pin to use for multiplexing */
  34:../../libDaisy//src/per/adc.h ****     enum MuxPin
  35:../../libDaisy//src/per/adc.h ****     {
  36:../../libDaisy//src/per/adc.h ****         MUX_SEL_0,    /**< & */
  37:../../libDaisy//src/per/adc.h ****         MUX_SEL_1,    /**< & */
  38:../../libDaisy//src/per/adc.h ****         MUX_SEL_2,    /**< & */
  39:../../libDaisy//src/per/adc.h ****         MUX_SEL_LAST, /**< & */
  40:../../libDaisy//src/per/adc.h ****     };
  41:../../libDaisy//src/per/adc.h **** 
  42:../../libDaisy//src/per/adc.h ****     /** Initializes a single ADC pin as an ADC. 
  43:../../libDaisy//src/per/adc.h ****     \param pin Pin to init.
  44:../../libDaisy//src/per/adc.h ****      */
  45:../../libDaisy//src/per/adc.h ****     void InitSingle(dsy_gpio_pin pin);
  46:../../libDaisy//src/per/adc.h **** 
  47:../../libDaisy//src/per/adc.h ****     /** 
  48:../../libDaisy//src/per/adc.h ****     Initializes a single ADC pin as a Multiplexed ADC.
  49:../../libDaisy//src/per/adc.h ****     Requires a CD405X Multiplexer connected to the pin.
  50:../../libDaisy//src/per/adc.h ****     You only need to supply the mux pins that are required,
  51:../../libDaisy//src/per/adc.h ****     e.g. a 4052 mux would only require mux_0 and mux_1.
  52:../../libDaisy//src/per/adc.h ****     Internal Callbacks handle the pin addressing.
  53:../../libDaisy//src/per/adc.h ****     \param mux_channels must be 1-8
  54:../../libDaisy//src/per/adc.h ****     \param mux_0 First mux pin
  55:../../libDaisy//src/per/adc.h ****     \param mux_1 Second mux pin
  56:../../libDaisy//src/per/adc.h ****     \param mux_2 Third mux pin
  57:../../libDaisy//src/per/adc.h ****     \param adc_pin &
  58:../../libDaisy//src/per/adc.h ****     */
  59:../../libDaisy//src/per/adc.h ****     void InitMux(dsy_gpio_pin adc_pin,
  60:../../libDaisy//src/per/adc.h ****                  size_t       mux_channels,
  61:../../libDaisy//src/per/adc.h ****                  dsy_gpio_pin mux_0,
  62:../../libDaisy//src/per/adc.h ****                  dsy_gpio_pin mux_1 = {DSY_GPIOX, 0},
  63:../../libDaisy//src/per/adc.h ****                  dsy_gpio_pin mux_2 = {DSY_GPIOX, 0});
  64:../../libDaisy//src/per/adc.h **** 
  65:../../libDaisy//src/per/adc.h ****     dsy_gpio pin_;                   /**< & */
  66:../../libDaisy//src/per/adc.h ****     dsy_gpio mux_pin_[MUX_SEL_LAST]; /**< & */
ARM GAS  /var/folders/hl/qgbwny5j0fd895c2c41bk3tw0000gp/T//cc804SGY.s 			page 6


  67:../../libDaisy//src/per/adc.h ****     uint8_t  mux_channels_;          /**< & */
  68:../../libDaisy//src/per/adc.h **** };
  69:../../libDaisy//src/per/adc.h **** 
  70:../../libDaisy//src/per/adc.h **** /**
  71:../../libDaisy//src/per/adc.h ****    @brief Handler for analog to digital conversion
  72:../../libDaisy//src/per/adc.h **** */
  73:../../libDaisy//src/per/adc.h **** class AdcHandle
  74:../../libDaisy//src/per/adc.h **** {
  75:../../libDaisy//src/per/adc.h ****   public:
  76:../../libDaisy//src/per/adc.h ****     /** Supported oversampling amounts */
  77:../../libDaisy//src/per/adc.h ****     enum OverSampling
  78:../../libDaisy//src/per/adc.h ****     {
  79:../../libDaisy//src/per/adc.h ****         OVS_NONE, /**< & */
  80:../../libDaisy//src/per/adc.h ****         OVS_4,    /**< & */
  81:../../libDaisy//src/per/adc.h ****         OVS_8,    /**< & */
  82:../../libDaisy//src/per/adc.h ****         OVS_16,   /**< & */
  83:../../libDaisy//src/per/adc.h ****         OVS_32,   /**< & */
  84:../../libDaisy//src/per/adc.h ****         OVS_64,   /**< & */
  85:../../libDaisy//src/per/adc.h ****         OVS_128,  /**< & */
  86:../../libDaisy//src/per/adc.h ****         OVS_256,  /**< & */
  87:../../libDaisy//src/per/adc.h ****         OVS_512,  /**< & */
  88:../../libDaisy//src/per/adc.h ****         OVS_1024, /**< & */
  89:../../libDaisy//src/per/adc.h ****         OVS_LAST, /**< & */
  90:../../libDaisy//src/per/adc.h ****     };
  91:../../libDaisy//src/per/adc.h **** 
  92:../../libDaisy//src/per/adc.h ****     AdcHandle() {}
  93:../../libDaisy//src/per/adc.h ****     ~AdcHandle() {}
  61              		.loc 5 93 5 is_stmt 1 view .LVU9
  62              		.loc 5 93 5 is_stmt 0 view .LVU10
  63              	.LBE583:
  64              	.LBB584:
  65              	.LBI584:
  66              		.file 6 "../../libDaisy//src/hid/audio.h"
   1:../../libDaisy//src/hid/audio.h **** #ifndef DSY_AUDIO_H
   2:../../libDaisy//src/hid/audio.h **** #define DSY_AUDIO_H /**< & */
   3:../../libDaisy//src/hid/audio.h **** 
   4:../../libDaisy//src/hid/audio.h **** #include "per/sai.h"
   5:../../libDaisy//src/hid/audio.h **** 
   6:../../libDaisy//src/hid/audio.h **** namespace daisy
   7:../../libDaisy//src/hid/audio.h **** {
   8:../../libDaisy//src/hid/audio.h **** /** @brief Audio Engine Handle
   9:../../libDaisy//src/hid/audio.h ****  *  @ingroup audio 
  10:../../libDaisy//src/hid/audio.h ****  *  @details This class allows for higher level access to an audio engine.
  11:../../libDaisy//src/hid/audio.h ****  *           If you're using a SOM like the DaisySeed or DaisyPatchSM (or any 
  12:../../libDaisy//src/hid/audio.h ****  *            board that includes one of those objects) then the intialization
  13:../../libDaisy//src/hid/audio.h ****  *            is already taken  care of.
  14:../../libDaisy//src/hid/audio.h ****  *           If you're setting up your own custom hardware, or need to make changes
  15:../../libDaisy//src/hid/audio.h ****  *           you will have to take the following steps:
  16:../../libDaisy//src/hid/audio.h ****  *             1. Create and Initialize an SaiHandle or two depending on your requirements
  17:../../libDaisy//src/hid/audio.h ****  *             2. Initialize the Audio Handle with the desired settings and the Initialized SaiHand
  18:../../libDaisy//src/hid/audio.h ****  *             3. If the connected codec requires special configuration or initialization, do so
  19:../../libDaisy//src/hid/audio.h ****  *             4. Write a callback method using either the AudioCallback or the InterleavingAudioCa
  20:../../libDaisy//src/hid/audio.h ****  *             5. Start the Audio using one of the StartAudio function
  21:../../libDaisy//src/hid/audio.h ****  */
  22:../../libDaisy//src/hid/audio.h **** class AudioHandle
  23:../../libDaisy//src/hid/audio.h **** {
  24:../../libDaisy//src/hid/audio.h ****   public:
ARM GAS  /var/folders/hl/qgbwny5j0fd895c2c41bk3tw0000gp/T//cc804SGY.s 			page 7


  25:../../libDaisy//src/hid/audio.h ****     /** Manually configurable details about the Audio Engine */
  26:../../libDaisy//src/hid/audio.h ****     /** TODO: Figure out how to get samplerate in here. */
  27:../../libDaisy//src/hid/audio.h ****     struct Config
  28:../../libDaisy//src/hid/audio.h ****     {
  29:../../libDaisy//src/hid/audio.h ****         /** number of samples to process per callback */
  30:../../libDaisy//src/hid/audio.h ****         size_t blocksize;
  31:../../libDaisy//src/hid/audio.h **** 
  32:../../libDaisy//src/hid/audio.h ****         /**< Sample rate of audio */
  33:../../libDaisy//src/hid/audio.h ****         SaiHandle::Config::SampleRate samplerate;
  34:../../libDaisy//src/hid/audio.h **** 
  35:../../libDaisy//src/hid/audio.h ****         /** factor for adjustment before and after callback for hardware that may have extra headro
  36:../../libDaisy//src/hid/audio.h ****         float postgain;
  37:../../libDaisy//src/hid/audio.h **** 
  38:../../libDaisy//src/hid/audio.h ****         /** factor for additional one-sided compensation to audio path for hardware that may
  39:../../libDaisy//src/hid/audio.h ****          *  have unequal input/output ranges
  40:../../libDaisy//src/hid/audio.h ****          */
  41:../../libDaisy//src/hid/audio.h ****         float output_compensation;
  42:../../libDaisy//src/hid/audio.h **** 
  43:../../libDaisy//src/hid/audio.h ****         /** Sets default values for config struct */
  44:../../libDaisy//src/hid/audio.h ****         Config()
  45:../../libDaisy//src/hid/audio.h ****         : blocksize(48),
  46:../../libDaisy//src/hid/audio.h ****           samplerate(SaiHandle::Config::SampleRate::SAI_48KHZ),
  47:../../libDaisy//src/hid/audio.h ****           postgain(1.f),
  48:../../libDaisy//src/hid/audio.h ****           output_compensation(1.f)
  49:../../libDaisy//src/hid/audio.h ****         {
  50:../../libDaisy//src/hid/audio.h ****         }
  51:../../libDaisy//src/hid/audio.h ****     };
  52:../../libDaisy//src/hid/audio.h **** 
  53:../../libDaisy//src/hid/audio.h ****     enum class Result
  54:../../libDaisy//src/hid/audio.h ****     {
  55:../../libDaisy//src/hid/audio.h ****         OK,
  56:../../libDaisy//src/hid/audio.h ****         ERR,
  57:../../libDaisy//src/hid/audio.h ****     };
  58:../../libDaisy//src/hid/audio.h **** 
  59:../../libDaisy//src/hid/audio.h ****     /** Non-Interleaving input buffer
  60:../../libDaisy//src/hid/audio.h ****      * Buffer arranged by float[chn][sample] 
  61:../../libDaisy//src/hid/audio.h ****      * const so that the user can't modify the input
  62:../../libDaisy//src/hid/audio.h ****      */
  63:../../libDaisy//src/hid/audio.h ****     typedef const float* const* InputBuffer;
  64:../../libDaisy//src/hid/audio.h **** 
  65:../../libDaisy//src/hid/audio.h ****     /** Non-Interleaving output buffer
  66:../../libDaisy//src/hid/audio.h ****      * Arranged by float[chn][sample] 
  67:../../libDaisy//src/hid/audio.h ****      */
  68:../../libDaisy//src/hid/audio.h ****     typedef float** OutputBuffer;
  69:../../libDaisy//src/hid/audio.h **** 
  70:../../libDaisy//src/hid/audio.h ****     /** Type for a Non-Interleaving audio callback 
  71:../../libDaisy//src/hid/audio.h ****      * Non-Interleaving audio callbacks in daisy will be of this type
  72:../../libDaisy//src/hid/audio.h ****      */
  73:../../libDaisy//src/hid/audio.h ****     typedef void (*AudioCallback)(InputBuffer  in,
  74:../../libDaisy//src/hid/audio.h ****                                   OutputBuffer out,
  75:../../libDaisy//src/hid/audio.h ****                                   size_t       size);
  76:../../libDaisy//src/hid/audio.h **** 
  77:../../libDaisy//src/hid/audio.h ****     /** Interleaving Input buffer
  78:../../libDaisy//src/hid/audio.h ****      ** audio is prepared as { L0, R0, L1, R1, . . . LN, RN }]
  79:../../libDaisy//src/hid/audio.h ****      ** this is const, as the user shouldn't modify it
  80:../../libDaisy//src/hid/audio.h ****     */
  81:../../libDaisy//src/hid/audio.h ****     typedef const float* InterleavingInputBuffer;
ARM GAS  /var/folders/hl/qgbwny5j0fd895c2c41bk3tw0000gp/T//cc804SGY.s 			page 8


  82:../../libDaisy//src/hid/audio.h **** 
  83:../../libDaisy//src/hid/audio.h ****     /** Interleaving Output buffer 
  84:../../libDaisy//src/hid/audio.h ****      ** audio is prepared as { L0, R0, L1, R1, . . . LN, RN }
  85:../../libDaisy//src/hid/audio.h ****     */
  86:../../libDaisy//src/hid/audio.h ****     typedef float* InterleavingOutputBuffer;
  87:../../libDaisy//src/hid/audio.h **** 
  88:../../libDaisy//src/hid/audio.h ****     /** Interleaving Audio Callback 
  89:../../libDaisy//src/hid/audio.h ****      * Interleaving audio callbacks in daisy must be of this type
  90:../../libDaisy//src/hid/audio.h ****      */
  91:../../libDaisy//src/hid/audio.h ****     typedef void (*InterleavingAudioCallback)(InterleavingInputBuffer  in,
  92:../../libDaisy//src/hid/audio.h ****                                               InterleavingOutputBuffer out,
  93:../../libDaisy//src/hid/audio.h ****                                               size_t                   size);
  94:../../libDaisy//src/hid/audio.h **** 
  95:../../libDaisy//src/hid/audio.h ****     AudioHandle() : pimpl_(nullptr) {}
  96:../../libDaisy//src/hid/audio.h ****     ~AudioHandle() {}
  67              		.loc 6 96 5 is_stmt 1 view .LVU11
  68              		.loc 6 96 5 is_stmt 0 view .LVU12
  69              	.LBE584:
  70              	.LBB585:
  71              	.LBI585:
  72              		.file 7 "../../libDaisy//src/sys/system.h"
   1:../../libDaisy//src/sys/system.h **** #ifndef DSY_SYSTEM_H
   2:../../libDaisy//src/sys/system.h **** #define DSY_SYSTEM_H
   3:../../libDaisy//src/sys/system.h **** 
   4:../../libDaisy//src/sys/system.h **** #ifndef UNIT_TEST // for unit tests, a dummy implementation is provided below
   5:../../libDaisy//src/sys/system.h **** 
   6:../../libDaisy//src/sys/system.h **** #include <cstdint>
   7:../../libDaisy//src/sys/system.h **** #include "per/tim.h"
   8:../../libDaisy//src/sys/system.h **** 
   9:../../libDaisy//src/sys/system.h **** namespace daisy
  10:../../libDaisy//src/sys/system.h **** {
  11:../../libDaisy//src/sys/system.h **** /** A handle for interacting with the Core System. 
  12:../../libDaisy//src/sys/system.h ****  ** This includes the Clock tree, MPU, global DMA initialization,
  13:../../libDaisy//src/sys/system.h ****  ** cache handling, and any other necessary global initiailzation
  14:../../libDaisy//src/sys/system.h ****  **
  15:../../libDaisy//src/sys/system.h ****  ** @author shensley
  16:../../libDaisy//src/sys/system.h ****  ** @ingroup system
  17:../../libDaisy//src/sys/system.h ****  */
  18:../../libDaisy//src/sys/system.h **** class System
  19:../../libDaisy//src/sys/system.h **** {
  20:../../libDaisy//src/sys/system.h ****   public:
  21:../../libDaisy//src/sys/system.h ****     /** Contains settings for initializing the System */
  22:../../libDaisy//src/sys/system.h ****     struct Config
  23:../../libDaisy//src/sys/system.h ****     {
  24:../../libDaisy//src/sys/system.h ****         /** Specifies the system clock frequency that feeds APB/AHB clocks, etc. */
  25:../../libDaisy//src/sys/system.h ****         enum class SysClkFreq
  26:../../libDaisy//src/sys/system.h ****         {
  27:../../libDaisy//src/sys/system.h ****             FREQ_400MHZ,
  28:../../libDaisy//src/sys/system.h ****             FREQ_480MHZ,
  29:../../libDaisy//src/sys/system.h ****         };
  30:../../libDaisy//src/sys/system.h **** 
  31:../../libDaisy//src/sys/system.h ****         /** Method to call on the struct to set to defaults
  32:../../libDaisy//src/sys/system.h ****          ** CPU Freq set to 400MHz
  33:../../libDaisy//src/sys/system.h ****          ** Cache Enabled 
  34:../../libDaisy//src/sys/system.h ****          ** */
  35:../../libDaisy//src/sys/system.h ****         void Defaults()
  36:../../libDaisy//src/sys/system.h ****         {
ARM GAS  /var/folders/hl/qgbwny5j0fd895c2c41bk3tw0000gp/T//cc804SGY.s 			page 9


  37:../../libDaisy//src/sys/system.h ****             cpu_freq    = SysClkFreq::FREQ_400MHZ;
  38:../../libDaisy//src/sys/system.h ****             use_dcache  = true;
  39:../../libDaisy//src/sys/system.h ****             use_icache  = true;
  40:../../libDaisy//src/sys/system.h ****             skip_clocks = false;
  41:../../libDaisy//src/sys/system.h ****         }
  42:../../libDaisy//src/sys/system.h **** 
  43:../../libDaisy//src/sys/system.h ****         /** Method to call on the struct to set to boost mode:
  44:../../libDaisy//src/sys/system.h ****          ** CPU Freq set to 480MHz
  45:../../libDaisy//src/sys/system.h ****          ** Cache Enabled 
  46:../../libDaisy//src/sys/system.h ****          ** */
  47:../../libDaisy//src/sys/system.h ****         void Boost()
  48:../../libDaisy//src/sys/system.h ****         {
  49:../../libDaisy//src/sys/system.h ****             cpu_freq    = SysClkFreq::FREQ_480MHZ;
  50:../../libDaisy//src/sys/system.h ****             use_dcache  = true;
  51:../../libDaisy//src/sys/system.h ****             use_icache  = true;
  52:../../libDaisy//src/sys/system.h ****             skip_clocks = false;
  53:../../libDaisy//src/sys/system.h ****         }
  54:../../libDaisy//src/sys/system.h **** 
  55:../../libDaisy//src/sys/system.h ****         SysClkFreq cpu_freq;
  56:../../libDaisy//src/sys/system.h ****         bool       use_dcache;
  57:../../libDaisy//src/sys/system.h ****         bool       use_icache;
  58:../../libDaisy//src/sys/system.h ****         bool       skip_clocks;
  59:../../libDaisy//src/sys/system.h ****     };
  60:../../libDaisy//src/sys/system.h **** 
  61:../../libDaisy//src/sys/system.h ****     /** Describes the different regions of memory available to the Daisy
  62:../../libDaisy//src/sys/system.h ****      * 
  63:../../libDaisy//src/sys/system.h ****      */
  64:../../libDaisy//src/sys/system.h ****     enum MemoryRegion
  65:../../libDaisy//src/sys/system.h ****     {
  66:../../libDaisy//src/sys/system.h ****         INTERNAL_FLASH = 0,
  67:../../libDaisy//src/sys/system.h ****         ITCMRAM,
  68:../../libDaisy//src/sys/system.h ****         DTCMRAM,
  69:../../libDaisy//src/sys/system.h ****         SRAM_D1,
  70:../../libDaisy//src/sys/system.h ****         SRAM_D2,
  71:../../libDaisy//src/sys/system.h ****         SRAM_D3,
  72:../../libDaisy//src/sys/system.h ****         SDRAM,
  73:../../libDaisy//src/sys/system.h ****         QSPI,
  74:../../libDaisy//src/sys/system.h ****         INVALID_ADDRESS,
  75:../../libDaisy//src/sys/system.h ****     };
  76:../../libDaisy//src/sys/system.h **** 
  77:../../libDaisy//src/sys/system.h ****     System() {}
  78:../../libDaisy//src/sys/system.h ****     ~System() {}
  73              		.loc 7 78 5 is_stmt 1 view .LVU13
  74              		.loc 7 78 5 is_stmt 0 view .LVU14
  75              	.LBE585:
  76              		.loc 1 65 26 view .LVU15
  77 0000 7047     		bx	lr
  78              		.cfi_endproc
  79              	.LFE2529:
  81              		.weak	_ZN5daisy8patch_sm12DaisyPatchSMD1Ev
  82              		.thumb_set _ZN5daisy8patch_sm12DaisyPatchSMD1Ev,_ZN5daisy8patch_sm12DaisyPatchSMD2Ev
  83 0002 00BF     		.section	.text._ZN5daisy11OledDisplayINS_13SSD130xDriverILj128ELj64ENS_19SSD130xI2CTransportEEEED2
  84              		.align	1
  85              		.p2align 2,,3
  86              		.weak	_ZN5daisy11OledDisplayINS_13SSD130xDriverILj128ELj64ENS_19SSD130xI2CTransportEEEED2Ev
  87              		.syntax unified
  88              		.thumb
ARM GAS  /var/folders/hl/qgbwny5j0fd895c2c41bk3tw0000gp/T//cc804SGY.s 			page 10


  89              		.thumb_func
  90              		.fpu fpv5-d16
  92              	_ZN5daisy11OledDisplayINS_13SSD130xDriverILj128ELj64ENS_19SSD130xI2CTransportEEEED2Ev:
  93              	.LVL1:
  94              	.LFB5177:
  95              		.file 8 "../../libDaisy//src/hid/disp/oled_display.h"
   1:../../libDaisy//src/hid/disp/oled_display.h **** #pragma once
   2:../../libDaisy//src/hid/disp/oled_display.h **** #ifndef DSY_OLED_DISPLAY_H
   3:../../libDaisy//src/hid/disp/oled_display.h **** #define DSY_OLED_DISPLAY_H /**< Macro */
   4:../../libDaisy//src/hid/disp/oled_display.h **** 
   5:../../libDaisy//src/hid/disp/oled_display.h **** #include "display.h"
   6:../../libDaisy//src/hid/disp/oled_display.h **** 
   7:../../libDaisy//src/hid/disp/oled_display.h **** namespace daisy
   8:../../libDaisy//src/hid/disp/oled_display.h **** {
   9:../../libDaisy//src/hid/disp/oled_display.h **** /** 
  10:../../libDaisy//src/hid/disp/oled_display.h ****  * This class is for drawing to a monochrome OLED display. 
  11:../../libDaisy//src/hid/disp/oled_display.h ****  * @ingroup device
  12:../../libDaisy//src/hid/disp/oled_display.h **** */
  13:../../libDaisy//src/hid/disp/oled_display.h **** template <typename DisplayDriver>
  14:../../libDaisy//src/hid/disp/oled_display.h **** class OledDisplay : public OneBitGraphicsDisplayImpl<OledDisplay<DisplayDriver>>
  15:../../libDaisy//src/hid/disp/oled_display.h **** {
  16:../../libDaisy//src/hid/disp/oled_display.h ****   public:
  17:../../libDaisy//src/hid/disp/oled_display.h ****     OledDisplay() {}
  18:../../libDaisy//src/hid/disp/oled_display.h ****     virtual ~OledDisplay() {}
  96              		.loc 8 18 13 is_stmt 1 view -0
  97              		.cfi_startproc
  98              		@ args = 0, pretend = 0, frame = 0
  99              		@ frame_needed = 0, uses_anonymous_args = 0
 100              		@ link register save eliminated.
 101              	.LBB586:
 102              	.LBI586:
 103              		.file 9 "../../libDaisy//src/hid/disp/display.h"
   1:../../libDaisy//src/hid/disp/display.h **** #pragma once
   2:../../libDaisy//src/hid/disp/display.h **** #ifndef DSY_DISPLAY_H
   3:../../libDaisy//src/hid/disp/display.h **** #define DSY_DISPLAY_H /**< Macro */
   4:../../libDaisy//src/hid/disp/display.h **** #include <cmath>
   5:../../libDaisy//src/hid/disp/display.h **** #include "util/oled_fonts.h"
   6:../../libDaisy//src/hid/disp/display.h **** #include "daisy_core.h"
   7:../../libDaisy//src/hid/disp/display.h **** #include "graphics_common.h"
   8:../../libDaisy//src/hid/disp/display.h **** 
   9:../../libDaisy//src/hid/disp/display.h **** #ifndef deg2rad
  10:../../libDaisy//src/hid/disp/display.h **** #define deg2rad(deg) ((deg)*3.141592 / 180.0)
  11:../../libDaisy//src/hid/disp/display.h **** #endif
  12:../../libDaisy//src/hid/disp/display.h **** 
  13:../../libDaisy//src/hid/disp/display.h **** namespace daisy
  14:../../libDaisy//src/hid/disp/display.h **** {
  15:../../libDaisy//src/hid/disp/display.h **** /** 
  16:../../libDaisy//src/hid/disp/display.h ****  * This interface is used as a base class for all types of 1bit-per-pixel
  17:../../libDaisy//src/hid/disp/display.h ****  * graphics displays.
  18:../../libDaisy//src/hid/disp/display.h **** */
  19:../../libDaisy//src/hid/disp/display.h **** class OneBitGraphicsDisplay
  20:../../libDaisy//src/hid/disp/display.h **** {
  21:../../libDaisy//src/hid/disp/display.h ****   public:
  22:../../libDaisy//src/hid/disp/display.h ****     OneBitGraphicsDisplay() {}
  23:../../libDaisy//src/hid/disp/display.h ****     virtual ~OneBitGraphicsDisplay() {}
  24:../../libDaisy//src/hid/disp/display.h **** 
  25:../../libDaisy//src/hid/disp/display.h ****     virtual uint16_t Height() const = 0;
ARM GAS  /var/folders/hl/qgbwny5j0fd895c2c41bk3tw0000gp/T//cc804SGY.s 			page 11


  26:../../libDaisy//src/hid/disp/display.h ****     virtual uint16_t Width() const  = 0;
  27:../../libDaisy//src/hid/disp/display.h **** 
  28:../../libDaisy//src/hid/disp/display.h ****     Rectangle GetBounds() const
  29:../../libDaisy//src/hid/disp/display.h ****     {
  30:../../libDaisy//src/hid/disp/display.h ****         return Rectangle(int16_t(Width()), int16_t(Height()));
  31:../../libDaisy//src/hid/disp/display.h ****     }
  32:../../libDaisy//src/hid/disp/display.h **** 
  33:../../libDaisy//src/hid/disp/display.h **** 
  34:../../libDaisy//src/hid/disp/display.h ****     size_t CurrentX() { return currentX_; };
  35:../../libDaisy//src/hid/disp/display.h ****     size_t CurrentY() { return currentY_; };
  36:../../libDaisy//src/hid/disp/display.h **** 
  37:../../libDaisy//src/hid/disp/display.h ****     /** 
  38:../../libDaisy//src/hid/disp/display.h ****     Fills the entire display with either on/off.
  39:../../libDaisy//src/hid/disp/display.h ****     \param on Sets on or off.
  40:../../libDaisy//src/hid/disp/display.h ****     */
  41:../../libDaisy//src/hid/disp/display.h ****     virtual void Fill(bool on) = 0;
  42:../../libDaisy//src/hid/disp/display.h **** 
  43:../../libDaisy//src/hid/disp/display.h ****     /**
  44:../../libDaisy//src/hid/disp/display.h ****     Sets the pixel at the specified coordinate to be on/off.
  45:../../libDaisy//src/hid/disp/display.h ****     \param x   x Coordinate
  46:../../libDaisy//src/hid/disp/display.h ****     \param y   y coordinate
  47:../../libDaisy//src/hid/disp/display.h ****     \param on  on or off
  48:../../libDaisy//src/hid/disp/display.h ****     */
  49:../../libDaisy//src/hid/disp/display.h ****     virtual void DrawPixel(uint_fast8_t x, uint_fast8_t y, bool on) = 0;
  50:../../libDaisy//src/hid/disp/display.h **** 
  51:../../libDaisy//src/hid/disp/display.h ****     /**
  52:../../libDaisy//src/hid/disp/display.h ****     Draws a line from (x1, y1) to (y1, y2)
  53:../../libDaisy//src/hid/disp/display.h ****     \param x1  x Coordinate of the starting point
  54:../../libDaisy//src/hid/disp/display.h ****     \param y1  y Coordinate of the starting point
  55:../../libDaisy//src/hid/disp/display.h ****     \param x2  x Coordinate of the ending point
  56:../../libDaisy//src/hid/disp/display.h ****     \param y2  y Coordinate of the ending point
  57:../../libDaisy//src/hid/disp/display.h ****     \param on  on or off
  58:../../libDaisy//src/hid/disp/display.h ****     */
  59:../../libDaisy//src/hid/disp/display.h ****     virtual void DrawLine(uint_fast8_t x1,
  60:../../libDaisy//src/hid/disp/display.h ****                           uint_fast8_t y1,
  61:../../libDaisy//src/hid/disp/display.h ****                           uint_fast8_t x2,
  62:../../libDaisy//src/hid/disp/display.h ****                           uint_fast8_t y2,
  63:../../libDaisy//src/hid/disp/display.h ****                           bool         on)
  64:../../libDaisy//src/hid/disp/display.h ****         = 0;
  65:../../libDaisy//src/hid/disp/display.h **** 
  66:../../libDaisy//src/hid/disp/display.h ****     /**
  67:../../libDaisy//src/hid/disp/display.h ****     Draws a rectangle based on two coordinates.
  68:../../libDaisy//src/hid/disp/display.h ****     \param x1 x Coordinate of the first point
  69:../../libDaisy//src/hid/disp/display.h ****     \param y1 y Coordinate of the first point
  70:../../libDaisy//src/hid/disp/display.h ****     \param x2 x Coordinate of the second point
  71:../../libDaisy//src/hid/disp/display.h ****     \param y2 y Coordinate of the second point
  72:../../libDaisy//src/hid/disp/display.h ****     \param on on or off
  73:../../libDaisy//src/hid/disp/display.h ****     \param fill fill the rectangle or draw only the outline
  74:../../libDaisy//src/hid/disp/display.h ****     */
  75:../../libDaisy//src/hid/disp/display.h ****     virtual void DrawRect(uint_fast8_t x1,
  76:../../libDaisy//src/hid/disp/display.h ****                           uint_fast8_t y1,
  77:../../libDaisy//src/hid/disp/display.h ****                           uint_fast8_t x2,
  78:../../libDaisy//src/hid/disp/display.h ****                           uint_fast8_t y2,
  79:../../libDaisy//src/hid/disp/display.h ****                           bool         on,
  80:../../libDaisy//src/hid/disp/display.h ****                           bool         fill = false)
  81:../../libDaisy//src/hid/disp/display.h ****         = 0;
  82:../../libDaisy//src/hid/disp/display.h **** 
ARM GAS  /var/folders/hl/qgbwny5j0fd895c2c41bk3tw0000gp/T//cc804SGY.s 			page 12


  83:../../libDaisy//src/hid/disp/display.h ****     /**
  84:../../libDaisy//src/hid/disp/display.h ****     Draws a rectangle.
  85:../../libDaisy//src/hid/disp/display.h ****     \param rect the rectangle
  86:../../libDaisy//src/hid/disp/display.h ****     \param on   on or off
  87:../../libDaisy//src/hid/disp/display.h ****     \param fill fill the rectangle or draw only the outline
  88:../../libDaisy//src/hid/disp/display.h ****     */
  89:../../libDaisy//src/hid/disp/display.h ****     void DrawRect(const Rectangle& rect, bool on, bool fill = false)
  90:../../libDaisy//src/hid/disp/display.h ****     {
  91:../../libDaisy//src/hid/disp/display.h ****         DrawRect(rect.GetX(),
  92:../../libDaisy//src/hid/disp/display.h ****                  rect.GetY(),
  93:../../libDaisy//src/hid/disp/display.h ****                  rect.GetRight(),
  94:../../libDaisy//src/hid/disp/display.h ****                  rect.GetBottom(),
  95:../../libDaisy//src/hid/disp/display.h ****                  on,
  96:../../libDaisy//src/hid/disp/display.h ****                  fill);
  97:../../libDaisy//src/hid/disp/display.h ****     }
  98:../../libDaisy//src/hid/disp/display.h **** 
  99:../../libDaisy//src/hid/disp/display.h ****     /**
 100:../../libDaisy//src/hid/disp/display.h ****     Draws an arc around the specified coordinate
 101:../../libDaisy//src/hid/disp/display.h ****     \param x           x Coordinate of the center of the arc
 102:../../libDaisy//src/hid/disp/display.h ****     \param y           y Coordinate of the center of the arc
 103:../../libDaisy//src/hid/disp/display.h ****     \param radius      radius of the arc
 104:../../libDaisy//src/hid/disp/display.h ****     \param start_angle angle where to start the arc
 105:../../libDaisy//src/hid/disp/display.h ****     \param sweep       total angle of the arc
 106:../../libDaisy//src/hid/disp/display.h ****     \param on  on or off
 107:../../libDaisy//src/hid/disp/display.h ****     */
 108:../../libDaisy//src/hid/disp/display.h ****     virtual void DrawArc(uint_fast8_t x,
 109:../../libDaisy//src/hid/disp/display.h ****                          uint_fast8_t y,
 110:../../libDaisy//src/hid/disp/display.h ****                          uint_fast8_t radius,
 111:../../libDaisy//src/hid/disp/display.h ****                          int_fast16_t start_angle,
 112:../../libDaisy//src/hid/disp/display.h ****                          int_fast16_t sweep,
 113:../../libDaisy//src/hid/disp/display.h ****                          bool         on)
 114:../../libDaisy//src/hid/disp/display.h ****         = 0;
 115:../../libDaisy//src/hid/disp/display.h **** 
 116:../../libDaisy//src/hid/disp/display.h ****     /**
 117:../../libDaisy//src/hid/disp/display.h ****     Draws a circle around the specified coordinate
 118:../../libDaisy//src/hid/disp/display.h ****     \param x           x Coordinate of the center of the circle
 119:../../libDaisy//src/hid/disp/display.h ****     \param y           y Coordinate of the center of the circle
 120:../../libDaisy//src/hid/disp/display.h ****     \param radius      radius of the circle
 121:../../libDaisy//src/hid/disp/display.h ****     \param on  on or off
 122:../../libDaisy//src/hid/disp/display.h ****     */
 123:../../libDaisy//src/hid/disp/display.h ****     void
 124:../../libDaisy//src/hid/disp/display.h ****     DrawCircle(uint_fast8_t x, uint_fast8_t y, uint_fast8_t radius, bool on)
 125:../../libDaisy//src/hid/disp/display.h ****     {
 126:../../libDaisy//src/hid/disp/display.h ****         DrawArc(x, y, radius, 0, 360, on);
 127:../../libDaisy//src/hid/disp/display.h ****     };
 128:../../libDaisy//src/hid/disp/display.h **** 
 129:../../libDaisy//src/hid/disp/display.h ****     /** 
 130:../../libDaisy//src/hid/disp/display.h ****     Writes the character with the specific FontDef
 131:../../libDaisy//src/hid/disp/display.h ****     to the display buffer at the current Cursor position.
 132:../../libDaisy//src/hid/disp/display.h ****     \param ch character to be written
 133:../../libDaisy//src/hid/disp/display.h ****     \param font font to be written in
 134:../../libDaisy//src/hid/disp/display.h ****     \param on    on or off
 135:../../libDaisy//src/hid/disp/display.h ****     \return &
 136:../../libDaisy//src/hid/disp/display.h ****     */
 137:../../libDaisy//src/hid/disp/display.h ****     virtual char WriteChar(char ch, FontDef font, bool on) = 0;
 138:../../libDaisy//src/hid/disp/display.h **** 
 139:../../libDaisy//src/hid/disp/display.h ****     /** 
ARM GAS  /var/folders/hl/qgbwny5j0fd895c2c41bk3tw0000gp/T//cc804SGY.s 			page 13


 140:../../libDaisy//src/hid/disp/display.h ****     Similar to WriteChar, except it will handle an entire String.
 141:../../libDaisy//src/hid/disp/display.h ****     Wrapping does not happen automatically, so the width
 142:../../libDaisy//src/hid/disp/display.h ****     of the string must be kept within the dimensions of the screen.
 143:../../libDaisy//src/hid/disp/display.h ****     \param str string to be written
 144:../../libDaisy//src/hid/disp/display.h ****     \param font font to use
 145:../../libDaisy//src/hid/disp/display.h ****     \param on  on or off
 146:../../libDaisy//src/hid/disp/display.h ****     \return &
 147:../../libDaisy//src/hid/disp/display.h ****     */
 148:../../libDaisy//src/hid/disp/display.h ****     virtual char WriteString(const char* str, FontDef font, bool on) = 0;
 149:../../libDaisy//src/hid/disp/display.h **** 
 150:../../libDaisy//src/hid/disp/display.h ****     /** 
 151:../../libDaisy//src/hid/disp/display.h ****     Similar to WriteString but justified within a bounding box.
 152:../../libDaisy//src/hid/disp/display.h ****     \param str          string to be written
 153:../../libDaisy//src/hid/disp/display.h ****     \param font         font to use
 154:../../libDaisy//src/hid/disp/display.h ****     \param boundingBox  the bounding box to draw the text in
 155:../../libDaisy//src/hid/disp/display.h ****     \param alignment    the alignment to use
 156:../../libDaisy//src/hid/disp/display.h ****     \param on           on or off
 157:../../libDaisy//src/hid/disp/display.h ****     \return The rectangle that was drawn to
 158:../../libDaisy//src/hid/disp/display.h ****     */
 159:../../libDaisy//src/hid/disp/display.h ****     virtual Rectangle WriteStringAligned(const char*    str,
 160:../../libDaisy//src/hid/disp/display.h ****                                          const FontDef& font,
 161:../../libDaisy//src/hid/disp/display.h ****                                          Rectangle      boundingBox,
 162:../../libDaisy//src/hid/disp/display.h ****                                          Alignment      alignment,
 163:../../libDaisy//src/hid/disp/display.h ****                                          bool           on)
 164:../../libDaisy//src/hid/disp/display.h ****         = 0;
 165:../../libDaisy//src/hid/disp/display.h **** 
 166:../../libDaisy//src/hid/disp/display.h ****     /** 
 167:../../libDaisy//src/hid/disp/display.h ****     Moves the 'Cursor' position used for WriteChar, and WriteStr to the specified coordinate.
 168:../../libDaisy//src/hid/disp/display.h ****     \param x x pos
 169:../../libDaisy//src/hid/disp/display.h ****     \param y y pos
 170:../../libDaisy//src/hid/disp/display.h ****     */
 171:../../libDaisy//src/hid/disp/display.h ****     void SetCursor(uint16_t x, uint16_t y)
 172:../../libDaisy//src/hid/disp/display.h ****     {
 173:../../libDaisy//src/hid/disp/display.h ****         currentX_ = (x >= Width()) ? Width() - 1 : x;
 174:../../libDaisy//src/hid/disp/display.h ****         currentY_ = (y >= Height()) ? Height() - 1 : y;
 175:../../libDaisy//src/hid/disp/display.h ****     }
 176:../../libDaisy//src/hid/disp/display.h **** 
 177:../../libDaisy//src/hid/disp/display.h ****     /** 
 178:../../libDaisy//src/hid/disp/display.h ****     Writes the current display buffer to the OLED device using SPI or I2C depending on 
 179:../../libDaisy//src/hid/disp/display.h ****     how the object was initialized.
 180:../../libDaisy//src/hid/disp/display.h ****     */
 181:../../libDaisy//src/hid/disp/display.h ****     virtual void Update() = 0;
 182:../../libDaisy//src/hid/disp/display.h **** 
 183:../../libDaisy//src/hid/disp/display.h ****   protected:
 184:../../libDaisy//src/hid/disp/display.h ****     uint16_t currentX_;
 185:../../libDaisy//src/hid/disp/display.h ****     uint16_t currentY_;
 186:../../libDaisy//src/hid/disp/display.h **** };
 187:../../libDaisy//src/hid/disp/display.h **** 
 188:../../libDaisy//src/hid/disp/display.h **** /** This class is intended as a intermediary class for your actual implementation of the OneBitGrap
 189:../../libDaisy//src/hid/disp/display.h ****  *  interface. It uses the CRTP design pattern where the template argument is the child class. It p
 190:../../libDaisy//src/hid/disp/display.h ****  *  implementations for most of the functions, except DrawPixel(), Update() and Fill(), which you'l
 191:../../libDaisy//src/hid/disp/display.h ****  *  to provide in your child class.
 192:../../libDaisy//src/hid/disp/display.h ****  *  The main goal of this class is to provide common drawing functions without relying on massive a
 193:../../libDaisy//src/hid/disp/display.h ****  *  virtual function calls that would result in a performance loss. To achieve this, any drawing fu
 194:../../libDaisy//src/hid/disp/display.h ****  *  is implemented here and internally calls other drawing functions (e.g. DrawRect() which interna
 195:../../libDaisy//src/hid/disp/display.h ****  *  DrawPixel() and DrawLine()) makes these calls via the qualified name of these functions to expl
 196:../../libDaisy//src/hid/disp/display.h ****  *  suppress the virtual dispatch mechanism like this:
ARM GAS  /var/folders/hl/qgbwny5j0fd895c2c41bk3tw0000gp/T//cc804SGY.s 			page 14


 197:../../libDaisy//src/hid/disp/display.h ****  * 
 198:../../libDaisy//src/hid/disp/display.h ****  *      ChildType::DrawPixel(...); // no virtual function call; direct call into the child class fu
 199:../../libDaisy//src/hid/disp/display.h ****  *  
 200:../../libDaisy//src/hid/disp/display.h ****  *  To create a custom OneBitGraphicsDisplay implementation, you can 
 201:../../libDaisy//src/hid/disp/display.h ****  *  A) inherit from OneBitGraphicsDisplay directly and provide all the drawing functions yourself
 202:../../libDaisy//src/hid/disp/display.h ****  *  B) Inherit from OneBitGraphicsDisplayImpl and only provide DrawPixel(), Fill() and Update()
 203:../../libDaisy//src/hid/disp/display.h ****  *     like this:
 204:../../libDaisy//src/hid/disp/display.h ****  *  
 205:../../libDaisy//src/hid/disp/display.h ****  *      class MyDisplayClass : public OneBitGraphicsDisplayImpl<MyDisplayClass> 
 206:../../libDaisy//src/hid/disp/display.h ****  *      {
 207:../../libDaisy//src/hid/disp/display.h ****  *      public:
 208:../../libDaisy//src/hid/disp/display.h ****  *          void Fill() override { ... };
 209:../../libDaisy//src/hid/disp/display.h ****  *          void DrawPixel(uint_fast8_t x, uint_fast8_t y, bool on) override { ... };
 210:../../libDaisy//src/hid/disp/display.h ****  *          void Update() override { ... }
 211:../../libDaisy//src/hid/disp/display.h ****  *      };
 212:../../libDaisy//src/hid/disp/display.h ****  *  
 213:../../libDaisy//src/hid/disp/display.h ****  */
 214:../../libDaisy//src/hid/disp/display.h **** template <class ChildType>
 215:../../libDaisy//src/hid/disp/display.h **** class OneBitGraphicsDisplayImpl : public OneBitGraphicsDisplay
 216:../../libDaisy//src/hid/disp/display.h **** {
 217:../../libDaisy//src/hid/disp/display.h ****   public:
 218:../../libDaisy//src/hid/disp/display.h ****     OneBitGraphicsDisplayImpl() {}
 219:../../libDaisy//src/hid/disp/display.h ****     virtual ~OneBitGraphicsDisplayImpl() {}
 104              		.loc 9 219 13 view .LVU17
 105              	.LBB587:
 106              	.LBI587:
  23:../../libDaisy//src/hid/disp/display.h **** 
 107              		.loc 9 23 13 view .LVU18
  23:../../libDaisy//src/hid/disp/display.h **** 
 108              		.loc 9 23 13 is_stmt 0 view .LVU19
 109              	.LBE587:
 110              	.LBE586:
 111              		.loc 8 18 29 view .LVU20
 112 0000 7047     		bx	lr
 113              		.cfi_endproc
 114              	.LFE5177:
 116              		.weak	_ZN5daisy11OledDisplayINS_13SSD130xDriverILj128ELj64ENS_19SSD130xI2CTransportEEEED1Ev
 117              		.thumb_set _ZN5daisy11OledDisplayINS_13SSD130xDriverILj128ELj64ENS_19SSD130xI2CTransportEEEED1Ev,_
 118 0002 00BF     		.section	.text._ZN5daisy11OledDisplayINS_13SSD130xDriverILj128ELj64ENS_19SSD130xI2CTransportEEEE4F
 119              		.align	1
 120              		.p2align 2,,3
 121              		.weak	_ZN5daisy11OledDisplayINS_13SSD130xDriverILj128ELj64ENS_19SSD130xI2CTransportEEEE4FillEb
 122              		.syntax unified
 123              		.thumb
 124              		.thumb_func
 125              		.fpu fpv5-d16
 127              	_ZN5daisy11OledDisplayINS_13SSD130xDriverILj128ELj64ENS_19SSD130xI2CTransportEEEE4FillEb:
 128              	.LVL2:
 129              	.LFB5180:
  19:../../libDaisy//src/hid/disp/oled_display.h **** 
  20:../../libDaisy//src/hid/disp/oled_display.h ****     struct Config
  21:../../libDaisy//src/hid/disp/oled_display.h ****     {
  22:../../libDaisy//src/hid/disp/oled_display.h ****         typename DisplayDriver::Config driver_config;
  23:../../libDaisy//src/hid/disp/oled_display.h ****     };
  24:../../libDaisy//src/hid/disp/oled_display.h **** 
  25:../../libDaisy//src/hid/disp/oled_display.h ****     void Init(Config config) { driver_.Init(config.driver_config); }
  26:../../libDaisy//src/hid/disp/oled_display.h **** 
ARM GAS  /var/folders/hl/qgbwny5j0fd895c2c41bk3tw0000gp/T//cc804SGY.s 			page 15


  27:../../libDaisy//src/hid/disp/oled_display.h ****     uint16_t Height() const override { return driver_.Height(); }
  28:../../libDaisy//src/hid/disp/oled_display.h ****     uint16_t Width() const override { return driver_.Width(); }
  29:../../libDaisy//src/hid/disp/oled_display.h **** 
  30:../../libDaisy//src/hid/disp/oled_display.h ****     /** 
  31:../../libDaisy//src/hid/disp/oled_display.h ****     Fills the entire display with either on/off.
  32:../../libDaisy//src/hid/disp/oled_display.h ****     \param on Sets on or off.
  33:../../libDaisy//src/hid/disp/oled_display.h ****     */
  34:../../libDaisy//src/hid/disp/oled_display.h ****     void Fill(bool on) override { driver_.Fill(on); }
 130              		.loc 8 34 10 is_stmt 1 view -0
 131              		.cfi_startproc
 132              		@ args = 0, pretend = 0, frame = 0
 133              		@ frame_needed = 0, uses_anonymous_args = 0
 134              		@ link register save eliminated.
 135              	.LBB588:
 136              	.LBI588:
 137              		.file 10 "../../libDaisy//src/dev/oled_ssd130x.h"
   1:../../libDaisy//src/dev/oled_ssd130x.h **** #pragma once
   2:../../libDaisy//src/dev/oled_ssd130x.h **** #ifndef SA_OLED_SSD130X_H
   3:../../libDaisy//src/dev/oled_ssd130x.h **** #define SA_OLED_SSD130X_H /**< & */
   4:../../libDaisy//src/dev/oled_ssd130x.h **** 
   5:../../libDaisy//src/dev/oled_ssd130x.h **** #include "per/i2c.h"
   6:../../libDaisy//src/dev/oled_ssd130x.h **** #include "per/spi.h"
   7:../../libDaisy//src/dev/oled_ssd130x.h **** #include "per/gpio.h"
   8:../../libDaisy//src/dev/oled_ssd130x.h **** #include "sys/system.h"
   9:../../libDaisy//src/dev/oled_ssd130x.h **** 
  10:../../libDaisy//src/dev/oled_ssd130x.h **** namespace daisy
  11:../../libDaisy//src/dev/oled_ssd130x.h **** {
  12:../../libDaisy//src/dev/oled_ssd130x.h **** /**
  13:../../libDaisy//src/dev/oled_ssd130x.h ****  * I2C Transport for SSD1306 / SSD1309 OLED display devices
  14:../../libDaisy//src/dev/oled_ssd130x.h ****  */
  15:../../libDaisy//src/dev/oled_ssd130x.h **** class SSD130xI2CTransport
  16:../../libDaisy//src/dev/oled_ssd130x.h **** {
  17:../../libDaisy//src/dev/oled_ssd130x.h ****   public:
  18:../../libDaisy//src/dev/oled_ssd130x.h ****     struct Config
  19:../../libDaisy//src/dev/oled_ssd130x.h ****     {
  20:../../libDaisy//src/dev/oled_ssd130x.h ****         Config()
  21:../../libDaisy//src/dev/oled_ssd130x.h ****         {
  22:../../libDaisy//src/dev/oled_ssd130x.h ****             // Intialize using defaults
  23:../../libDaisy//src/dev/oled_ssd130x.h ****             Defaults();
  24:../../libDaisy//src/dev/oled_ssd130x.h ****         }
  25:../../libDaisy//src/dev/oled_ssd130x.h ****         I2CHandle::Config i2c_config;
  26:../../libDaisy//src/dev/oled_ssd130x.h ****         uint8_t           i2c_address;
  27:../../libDaisy//src/dev/oled_ssd130x.h ****         void              Defaults()
  28:../../libDaisy//src/dev/oled_ssd130x.h ****         {
  29:../../libDaisy//src/dev/oled_ssd130x.h ****             i2c_config.periph         = I2CHandle::Config::Peripheral::I2C_1;
  30:../../libDaisy//src/dev/oled_ssd130x.h ****             i2c_config.speed          = I2CHandle::Config::Speed::I2C_1MHZ;
  31:../../libDaisy//src/dev/oled_ssd130x.h ****             i2c_config.mode           = I2CHandle::Config::Mode::I2C_MASTER;
  32:../../libDaisy//src/dev/oled_ssd130x.h ****             i2c_config.pin_config.scl = {DSY_GPIOB, 8};
  33:../../libDaisy//src/dev/oled_ssd130x.h ****             i2c_config.pin_config.sda = {DSY_GPIOB, 9};
  34:../../libDaisy//src/dev/oled_ssd130x.h ****             i2c_address               = 0x3C;
  35:../../libDaisy//src/dev/oled_ssd130x.h ****         }
  36:../../libDaisy//src/dev/oled_ssd130x.h ****     };
  37:../../libDaisy//src/dev/oled_ssd130x.h ****     void Init(const Config& config)
  38:../../libDaisy//src/dev/oled_ssd130x.h ****     {
  39:../../libDaisy//src/dev/oled_ssd130x.h ****         i2c_address_ = config.i2c_address;
  40:../../libDaisy//src/dev/oled_ssd130x.h ****         i2c_.Init(config.i2c_config);
  41:../../libDaisy//src/dev/oled_ssd130x.h ****     };
ARM GAS  /var/folders/hl/qgbwny5j0fd895c2c41bk3tw0000gp/T//cc804SGY.s 			page 16


  42:../../libDaisy//src/dev/oled_ssd130x.h ****     void SendCommand(uint8_t cmd)
  43:../../libDaisy//src/dev/oled_ssd130x.h ****     {
  44:../../libDaisy//src/dev/oled_ssd130x.h ****         uint8_t buf[2] = {0X00, cmd};
  45:../../libDaisy//src/dev/oled_ssd130x.h ****         i2c_.TransmitBlocking(i2c_address_, buf, 2, 1000);
  46:../../libDaisy//src/dev/oled_ssd130x.h ****     };
  47:../../libDaisy//src/dev/oled_ssd130x.h **** 
  48:../../libDaisy//src/dev/oled_ssd130x.h ****     void SendData(uint8_t* buff, size_t size)
  49:../../libDaisy//src/dev/oled_ssd130x.h ****     {
  50:../../libDaisy//src/dev/oled_ssd130x.h ****         for(size_t i = 0; i < size; i++)
  51:../../libDaisy//src/dev/oled_ssd130x.h ****         {
  52:../../libDaisy//src/dev/oled_ssd130x.h ****             uint8_t buf[2] = {0X40, buff[i]};
  53:../../libDaisy//src/dev/oled_ssd130x.h ****             i2c_.TransmitBlocking(i2c_address_, buf, 2, 1000);
  54:../../libDaisy//src/dev/oled_ssd130x.h ****         }
  55:../../libDaisy//src/dev/oled_ssd130x.h ****     };
  56:../../libDaisy//src/dev/oled_ssd130x.h **** 
  57:../../libDaisy//src/dev/oled_ssd130x.h ****   private:
  58:../../libDaisy//src/dev/oled_ssd130x.h ****     daisy::I2CHandle i2c_;
  59:../../libDaisy//src/dev/oled_ssd130x.h ****     uint8_t          i2c_address_;
  60:../../libDaisy//src/dev/oled_ssd130x.h **** };
  61:../../libDaisy//src/dev/oled_ssd130x.h **** 
  62:../../libDaisy//src/dev/oled_ssd130x.h **** /**
  63:../../libDaisy//src/dev/oled_ssd130x.h ****  * 4 Wire SPI Transport for SSD1306 / SSD1309 OLED display devices
  64:../../libDaisy//src/dev/oled_ssd130x.h ****  */
  65:../../libDaisy//src/dev/oled_ssd130x.h **** class SSD130x4WireSpiTransport
  66:../../libDaisy//src/dev/oled_ssd130x.h **** {
  67:../../libDaisy//src/dev/oled_ssd130x.h ****   public:
  68:../../libDaisy//src/dev/oled_ssd130x.h ****     struct Config
  69:../../libDaisy//src/dev/oled_ssd130x.h ****     {
  70:../../libDaisy//src/dev/oled_ssd130x.h ****         Config()
  71:../../libDaisy//src/dev/oled_ssd130x.h ****         {
  72:../../libDaisy//src/dev/oled_ssd130x.h ****             // Initialize using defaults
  73:../../libDaisy//src/dev/oled_ssd130x.h ****             Defaults();
  74:../../libDaisy//src/dev/oled_ssd130x.h ****         }
  75:../../libDaisy//src/dev/oled_ssd130x.h ****         SpiHandle::Config spi_config;
  76:../../libDaisy//src/dev/oled_ssd130x.h ****         struct
  77:../../libDaisy//src/dev/oled_ssd130x.h ****         {
  78:../../libDaisy//src/dev/oled_ssd130x.h ****             dsy_gpio_pin dc;    /**< & */
  79:../../libDaisy//src/dev/oled_ssd130x.h ****             dsy_gpio_pin reset; /**< & */
  80:../../libDaisy//src/dev/oled_ssd130x.h ****         } pin_config;
  81:../../libDaisy//src/dev/oled_ssd130x.h ****         void Defaults()
  82:../../libDaisy//src/dev/oled_ssd130x.h ****         {
  83:../../libDaisy//src/dev/oled_ssd130x.h ****             // SPI peripheral config
  84:../../libDaisy//src/dev/oled_ssd130x.h ****             spi_config.periph = SpiHandle::Config::Peripheral::SPI_1;
  85:../../libDaisy//src/dev/oled_ssd130x.h ****             spi_config.mode   = SpiHandle::Config::Mode::MASTER;
  86:../../libDaisy//src/dev/oled_ssd130x.h ****             spi_config.direction
  87:../../libDaisy//src/dev/oled_ssd130x.h ****                 = SpiHandle::Config::Direction::TWO_LINES_TX_ONLY;
  88:../../libDaisy//src/dev/oled_ssd130x.h ****             spi_config.datasize       = 8;
  89:../../libDaisy//src/dev/oled_ssd130x.h ****             spi_config.clock_polarity = SpiHandle::Config::ClockPolarity::LOW;
  90:../../libDaisy//src/dev/oled_ssd130x.h ****             spi_config.clock_phase    = SpiHandle::Config::ClockPhase::ONE_EDGE;
  91:../../libDaisy//src/dev/oled_ssd130x.h ****             spi_config.nss            = SpiHandle::Config::NSS::HARD_OUTPUT;
  92:../../libDaisy//src/dev/oled_ssd130x.h ****             spi_config.baud_prescaler = SpiHandle::Config::BaudPrescaler::PS_8;
  93:../../libDaisy//src/dev/oled_ssd130x.h ****             // SPI pin config
  94:../../libDaisy//src/dev/oled_ssd130x.h ****             spi_config.pin_config.sclk = {DSY_GPIOG, 11};
  95:../../libDaisy//src/dev/oled_ssd130x.h ****             spi_config.pin_config.miso = {DSY_GPIOX, 0};
  96:../../libDaisy//src/dev/oled_ssd130x.h ****             spi_config.pin_config.mosi = {DSY_GPIOB, 5};
  97:../../libDaisy//src/dev/oled_ssd130x.h ****             spi_config.pin_config.nss  = {DSY_GPIOG, 10};
  98:../../libDaisy//src/dev/oled_ssd130x.h ****             // SSD130x control pin config
ARM GAS  /var/folders/hl/qgbwny5j0fd895c2c41bk3tw0000gp/T//cc804SGY.s 			page 17


  99:../../libDaisy//src/dev/oled_ssd130x.h ****             pin_config.dc    = {DSY_GPIOB, 4};
 100:../../libDaisy//src/dev/oled_ssd130x.h ****             pin_config.reset = {DSY_GPIOB, 15};
 101:../../libDaisy//src/dev/oled_ssd130x.h ****         }
 102:../../libDaisy//src/dev/oled_ssd130x.h ****     };
 103:../../libDaisy//src/dev/oled_ssd130x.h ****     void Init(const Config& config)
 104:../../libDaisy//src/dev/oled_ssd130x.h ****     {
 105:../../libDaisy//src/dev/oled_ssd130x.h ****         // Initialize both GPIO
 106:../../libDaisy//src/dev/oled_ssd130x.h ****         pin_dc_.mode = DSY_GPIO_MODE_OUTPUT_PP;
 107:../../libDaisy//src/dev/oled_ssd130x.h ****         pin_dc_.pin  = config.pin_config.dc;
 108:../../libDaisy//src/dev/oled_ssd130x.h ****         dsy_gpio_init(&pin_dc_);
 109:../../libDaisy//src/dev/oled_ssd130x.h ****         pin_reset_.mode = DSY_GPIO_MODE_OUTPUT_PP;
 110:../../libDaisy//src/dev/oled_ssd130x.h ****         pin_reset_.pin  = config.pin_config.reset;
 111:../../libDaisy//src/dev/oled_ssd130x.h ****         dsy_gpio_init(&pin_reset_);
 112:../../libDaisy//src/dev/oled_ssd130x.h **** 
 113:../../libDaisy//src/dev/oled_ssd130x.h ****         // Initialize SPI
 114:../../libDaisy//src/dev/oled_ssd130x.h ****         spi_.Init(config.spi_config);
 115:../../libDaisy//src/dev/oled_ssd130x.h **** 
 116:../../libDaisy//src/dev/oled_ssd130x.h ****         // Reset and Configure OLED.
 117:../../libDaisy//src/dev/oled_ssd130x.h ****         dsy_gpio_write(&pin_reset_, 0);
 118:../../libDaisy//src/dev/oled_ssd130x.h ****         System::Delay(10);
 119:../../libDaisy//src/dev/oled_ssd130x.h ****         dsy_gpio_write(&pin_reset_, 1);
 120:../../libDaisy//src/dev/oled_ssd130x.h ****         System::Delay(10);
 121:../../libDaisy//src/dev/oled_ssd130x.h ****     };
 122:../../libDaisy//src/dev/oled_ssd130x.h ****     void SendCommand(uint8_t cmd)
 123:../../libDaisy//src/dev/oled_ssd130x.h ****     {
 124:../../libDaisy//src/dev/oled_ssd130x.h ****         dsy_gpio_write(&pin_dc_, 0);
 125:../../libDaisy//src/dev/oled_ssd130x.h ****         spi_.BlockingTransmit(&cmd, 1);
 126:../../libDaisy//src/dev/oled_ssd130x.h ****     };
 127:../../libDaisy//src/dev/oled_ssd130x.h **** 
 128:../../libDaisy//src/dev/oled_ssd130x.h ****     void SendData(uint8_t* buff, size_t size)
 129:../../libDaisy//src/dev/oled_ssd130x.h ****     {
 130:../../libDaisy//src/dev/oled_ssd130x.h ****         dsy_gpio_write(&pin_dc_, 1);
 131:../../libDaisy//src/dev/oled_ssd130x.h ****         spi_.BlockingTransmit(buff, size);
 132:../../libDaisy//src/dev/oled_ssd130x.h ****     };
 133:../../libDaisy//src/dev/oled_ssd130x.h **** 
 134:../../libDaisy//src/dev/oled_ssd130x.h ****   private:
 135:../../libDaisy//src/dev/oled_ssd130x.h ****     SpiHandle spi_;
 136:../../libDaisy//src/dev/oled_ssd130x.h ****     dsy_gpio  pin_reset_;
 137:../../libDaisy//src/dev/oled_ssd130x.h ****     dsy_gpio  pin_dc_;
 138:../../libDaisy//src/dev/oled_ssd130x.h **** };
 139:../../libDaisy//src/dev/oled_ssd130x.h **** 
 140:../../libDaisy//src/dev/oled_ssd130x.h **** /**
 141:../../libDaisy//src/dev/oled_ssd130x.h ****  * Soft SPI Transport for SSD1306 / SSD1309 OLED display devices
 142:../../libDaisy//src/dev/oled_ssd130x.h ****  */
 143:../../libDaisy//src/dev/oled_ssd130x.h **** class SSD130x4WireSoftSpiTransport
 144:../../libDaisy//src/dev/oled_ssd130x.h **** {
 145:../../libDaisy//src/dev/oled_ssd130x.h ****   public:
 146:../../libDaisy//src/dev/oled_ssd130x.h ****     struct Config
 147:../../libDaisy//src/dev/oled_ssd130x.h ****     {
 148:../../libDaisy//src/dev/oled_ssd130x.h ****         Config()
 149:../../libDaisy//src/dev/oled_ssd130x.h ****         {
 150:../../libDaisy//src/dev/oled_ssd130x.h ****             // Initialize using defaults
 151:../../libDaisy//src/dev/oled_ssd130x.h ****             Defaults();
 152:../../libDaisy//src/dev/oled_ssd130x.h ****         }
 153:../../libDaisy//src/dev/oled_ssd130x.h ****         struct
 154:../../libDaisy//src/dev/oled_ssd130x.h ****         {
 155:../../libDaisy//src/dev/oled_ssd130x.h ****             uint32_t     sclk_delay;
ARM GAS  /var/folders/hl/qgbwny5j0fd895c2c41bk3tw0000gp/T//cc804SGY.s 			page 18


 156:../../libDaisy//src/dev/oled_ssd130x.h ****             dsy_gpio_pin sclk;
 157:../../libDaisy//src/dev/oled_ssd130x.h ****             dsy_gpio_pin mosi;
 158:../../libDaisy//src/dev/oled_ssd130x.h ****             dsy_gpio_pin dc;
 159:../../libDaisy//src/dev/oled_ssd130x.h ****             dsy_gpio_pin reset;
 160:../../libDaisy//src/dev/oled_ssd130x.h ****         } pin_config;
 161:../../libDaisy//src/dev/oled_ssd130x.h ****         void Defaults()
 162:../../libDaisy//src/dev/oled_ssd130x.h ****         {
 163:../../libDaisy//src/dev/oled_ssd130x.h ****             pin_config.sclk_delay = 0; // fast as possible?!
 164:../../libDaisy//src/dev/oled_ssd130x.h ****             // SPI peripheral config
 165:../../libDaisy//src/dev/oled_ssd130x.h ****             pin_config.sclk = {DSY_GPIOD, 3}; /**< D10 - SPI2 SCK  */
 166:../../libDaisy//src/dev/oled_ssd130x.h ****             pin_config.mosi = {DSY_GPIOC, 3}; /**< D9  - SPI2 MOSI */
 167:../../libDaisy//src/dev/oled_ssd130x.h ****             // SSD130x control pin config
 168:../../libDaisy//src/dev/oled_ssd130x.h ****             pin_config.dc    = {DSY_GPIOC, 11}; //D2
 169:../../libDaisy//src/dev/oled_ssd130x.h ****             pin_config.reset = {DSY_GPIOC, 10}; //D3
 170:../../libDaisy//src/dev/oled_ssd130x.h ****         }
 171:../../libDaisy//src/dev/oled_ssd130x.h ****     };
 172:../../libDaisy//src/dev/oled_ssd130x.h ****     void Init(const Config& config)
 173:../../libDaisy//src/dev/oled_ssd130x.h ****     {
 174:../../libDaisy//src/dev/oled_ssd130x.h ****         // Initialize both GPIO
 175:../../libDaisy//src/dev/oled_ssd130x.h ****         pin_sclk_.mode = DSY_GPIO_MODE_OUTPUT_PP;
 176:../../libDaisy//src/dev/oled_ssd130x.h ****         pin_sclk_.pin  = config.pin_config.sclk;
 177:../../libDaisy//src/dev/oled_ssd130x.h ****         dsy_gpio_init(&pin_sclk_);
 178:../../libDaisy//src/dev/oled_ssd130x.h ****         dsy_gpio_write(&pin_sclk_, 1); //ClockPolarity::LOW
 179:../../libDaisy//src/dev/oled_ssd130x.h ****         clk_delay      = config.pin_config.sclk_delay;
 180:../../libDaisy//src/dev/oled_ssd130x.h ****         pin_mosi_.mode = DSY_GPIO_MODE_OUTPUT_PP;
 181:../../libDaisy//src/dev/oled_ssd130x.h ****         pin_mosi_.pin  = config.pin_config.mosi;
 182:../../libDaisy//src/dev/oled_ssd130x.h ****         dsy_gpio_init(&pin_mosi_);
 183:../../libDaisy//src/dev/oled_ssd130x.h ****         dsy_gpio_write(&pin_mosi_, 0);
 184:../../libDaisy//src/dev/oled_ssd130x.h **** 
 185:../../libDaisy//src/dev/oled_ssd130x.h ****         pin_dc_.mode = DSY_GPIO_MODE_OUTPUT_PP;
 186:../../libDaisy//src/dev/oled_ssd130x.h ****         pin_dc_.pin  = config.pin_config.dc;
 187:../../libDaisy//src/dev/oled_ssd130x.h ****         dsy_gpio_init(&pin_dc_);
 188:../../libDaisy//src/dev/oled_ssd130x.h ****         pin_reset_.mode = DSY_GPIO_MODE_OUTPUT_PP;
 189:../../libDaisy//src/dev/oled_ssd130x.h ****         pin_reset_.pin  = config.pin_config.reset;
 190:../../libDaisy//src/dev/oled_ssd130x.h ****         dsy_gpio_init(&pin_reset_);
 191:../../libDaisy//src/dev/oled_ssd130x.h **** 
 192:../../libDaisy//src/dev/oled_ssd130x.h ****         // Reset and Configure OLED.
 193:../../libDaisy//src/dev/oled_ssd130x.h ****         dsy_gpio_write(&pin_reset_, 0);
 194:../../libDaisy//src/dev/oled_ssd130x.h ****         System::Delay(10);
 195:../../libDaisy//src/dev/oled_ssd130x.h ****         dsy_gpio_write(&pin_reset_, 1);
 196:../../libDaisy//src/dev/oled_ssd130x.h ****         System::Delay(10);
 197:../../libDaisy//src/dev/oled_ssd130x.h ****     };
 198:../../libDaisy//src/dev/oled_ssd130x.h ****     void SendCommand(uint8_t cmd)
 199:../../libDaisy//src/dev/oled_ssd130x.h ****     {
 200:../../libDaisy//src/dev/oled_ssd130x.h ****         dsy_gpio_write(&pin_dc_, 0);
 201:../../libDaisy//src/dev/oled_ssd130x.h ****         SoftSpiTransmit(cmd);
 202:../../libDaisy//src/dev/oled_ssd130x.h ****     };
 203:../../libDaisy//src/dev/oled_ssd130x.h **** 
 204:../../libDaisy//src/dev/oled_ssd130x.h ****     void SendData(uint8_t* buff, size_t size)
 205:../../libDaisy//src/dev/oled_ssd130x.h ****     {
 206:../../libDaisy//src/dev/oled_ssd130x.h ****         dsy_gpio_write(&pin_dc_, 1);
 207:../../libDaisy//src/dev/oled_ssd130x.h ****         for(size_t i = 0; i < size; i++)
 208:../../libDaisy//src/dev/oled_ssd130x.h ****             SoftSpiTransmit(buff[i]);
 209:../../libDaisy//src/dev/oled_ssd130x.h ****     };
 210:../../libDaisy//src/dev/oled_ssd130x.h **** 
 211:../../libDaisy//src/dev/oled_ssd130x.h ****   private:
 212:../../libDaisy//src/dev/oled_ssd130x.h ****     void SoftSpiTransmit(uint8_t val)
ARM GAS  /var/folders/hl/qgbwny5j0fd895c2c41bk3tw0000gp/T//cc804SGY.s 			page 19


 213:../../libDaisy//src/dev/oled_ssd130x.h ****     {
 214:../../libDaisy//src/dev/oled_ssd130x.h ****         // bit flip
 215:../../libDaisy//src/dev/oled_ssd130x.h ****         val = ((val & 0x01) << 7) | ((val & 0x02) << 5) | ((val & 0x04) << 3)
 216:../../libDaisy//src/dev/oled_ssd130x.h ****               | ((val & 0x08) << 1) | ((val & 0x10) >> 1) | ((val & 0x20) >> 3)
 217:../../libDaisy//src/dev/oled_ssd130x.h ****               | ((val & 0x40) >> 5) | ((val & 0x80) >> 7);
 218:../../libDaisy//src/dev/oled_ssd130x.h **** 
 219:../../libDaisy//src/dev/oled_ssd130x.h ****         for(uint8_t bit = 0u; bit < 8u; bit++)
 220:../../libDaisy//src/dev/oled_ssd130x.h ****         {
 221:../../libDaisy//src/dev/oled_ssd130x.h ****             dsy_gpio_write(&pin_mosi_, ((val & (1 << bit)) ? 1 : 0));
 222:../../libDaisy//src/dev/oled_ssd130x.h **** 
 223:../../libDaisy//src/dev/oled_ssd130x.h ****             System::DelayTicks(clk_delay);
 224:../../libDaisy//src/dev/oled_ssd130x.h **** 
 225:../../libDaisy//src/dev/oled_ssd130x.h ****             dsy_gpio_toggle(&pin_sclk_);
 226:../../libDaisy//src/dev/oled_ssd130x.h **** 
 227:../../libDaisy//src/dev/oled_ssd130x.h ****             System::DelayTicks(clk_delay);
 228:../../libDaisy//src/dev/oled_ssd130x.h **** 
 229:../../libDaisy//src/dev/oled_ssd130x.h ****             dsy_gpio_toggle(&pin_sclk_);
 230:../../libDaisy//src/dev/oled_ssd130x.h ****         }
 231:../../libDaisy//src/dev/oled_ssd130x.h ****     }
 232:../../libDaisy//src/dev/oled_ssd130x.h **** 
 233:../../libDaisy//src/dev/oled_ssd130x.h ****     uint32_t clk_delay;
 234:../../libDaisy//src/dev/oled_ssd130x.h ****     dsy_gpio pin_sclk_;
 235:../../libDaisy//src/dev/oled_ssd130x.h ****     dsy_gpio pin_mosi_;
 236:../../libDaisy//src/dev/oled_ssd130x.h ****     dsy_gpio pin_reset_;
 237:../../libDaisy//src/dev/oled_ssd130x.h ****     dsy_gpio pin_dc_;
 238:../../libDaisy//src/dev/oled_ssd130x.h **** };
 239:../../libDaisy//src/dev/oled_ssd130x.h **** 
 240:../../libDaisy//src/dev/oled_ssd130x.h **** 
 241:../../libDaisy//src/dev/oled_ssd130x.h **** /**
 242:../../libDaisy//src/dev/oled_ssd130x.h ****  * A driver implementation for the SSD1306/SSD1309
 243:../../libDaisy//src/dev/oled_ssd130x.h ****  */
 244:../../libDaisy//src/dev/oled_ssd130x.h **** template <size_t width, size_t height, typename Transport>
 245:../../libDaisy//src/dev/oled_ssd130x.h **** class SSD130xDriver
 246:../../libDaisy//src/dev/oled_ssd130x.h **** {
 247:../../libDaisy//src/dev/oled_ssd130x.h ****   public:
 248:../../libDaisy//src/dev/oled_ssd130x.h ****     struct Config
 249:../../libDaisy//src/dev/oled_ssd130x.h ****     {
 250:../../libDaisy//src/dev/oled_ssd130x.h ****         typename Transport::Config transport_config;
 251:../../libDaisy//src/dev/oled_ssd130x.h ****     };
 252:../../libDaisy//src/dev/oled_ssd130x.h **** 
 253:../../libDaisy//src/dev/oled_ssd130x.h ****     void Init(Config config)
 254:../../libDaisy//src/dev/oled_ssd130x.h ****     {
 255:../../libDaisy//src/dev/oled_ssd130x.h ****         transport_.Init(config.transport_config);
 256:../../libDaisy//src/dev/oled_ssd130x.h **** 
 257:../../libDaisy//src/dev/oled_ssd130x.h ****         // Init routine...
 258:../../libDaisy//src/dev/oled_ssd130x.h **** 
 259:../../libDaisy//src/dev/oled_ssd130x.h ****         // Display Off
 260:../../libDaisy//src/dev/oled_ssd130x.h ****         transport_.SendCommand(0xaE);
 261:../../libDaisy//src/dev/oled_ssd130x.h ****         // Dimension dependent commands...
 262:../../libDaisy//src/dev/oled_ssd130x.h ****         switch(height)
 263:../../libDaisy//src/dev/oled_ssd130x.h ****         {
 264:../../libDaisy//src/dev/oled_ssd130x.h ****             case 16:
 265:../../libDaisy//src/dev/oled_ssd130x.h ****                 // Display Clock Divide Ratio
 266:../../libDaisy//src/dev/oled_ssd130x.h ****                 transport_.SendCommand(0xD5);
 267:../../libDaisy//src/dev/oled_ssd130x.h ****                 transport_.SendCommand(0x60);
 268:../../libDaisy//src/dev/oled_ssd130x.h ****                 // Multiplex Ratio
 269:../../libDaisy//src/dev/oled_ssd130x.h ****                 transport_.SendCommand(0xA8);
ARM GAS  /var/folders/hl/qgbwny5j0fd895c2c41bk3tw0000gp/T//cc804SGY.s 			page 20


 270:../../libDaisy//src/dev/oled_ssd130x.h ****                 transport_.SendCommand(0x0F);
 271:../../libDaisy//src/dev/oled_ssd130x.h ****                 // COM Pins
 272:../../libDaisy//src/dev/oled_ssd130x.h ****                 transport_.SendCommand(0xDA);
 273:../../libDaisy//src/dev/oled_ssd130x.h ****                 transport_.SendCommand(0x02);
 274:../../libDaisy//src/dev/oled_ssd130x.h ****                 break;
 275:../../libDaisy//src/dev/oled_ssd130x.h ****             case 32:
 276:../../libDaisy//src/dev/oled_ssd130x.h ****                 // Display Clock Divide Ratio
 277:../../libDaisy//src/dev/oled_ssd130x.h ****                 transport_.SendCommand(0xD5);
 278:../../libDaisy//src/dev/oled_ssd130x.h ****                 transport_.SendCommand(0x80);
 279:../../libDaisy//src/dev/oled_ssd130x.h ****                 // Multiplex Ratio
 280:../../libDaisy//src/dev/oled_ssd130x.h ****                 transport_.SendCommand(0xA8);
 281:../../libDaisy//src/dev/oled_ssd130x.h ****                 transport_.SendCommand(0x1F);
 282:../../libDaisy//src/dev/oled_ssd130x.h ****                 // COM Pins
 283:../../libDaisy//src/dev/oled_ssd130x.h ****                 transport_.SendCommand(0xDA);
 284:../../libDaisy//src/dev/oled_ssd130x.h ****                 if(width == 64)
 285:../../libDaisy//src/dev/oled_ssd130x.h ****                 {
 286:../../libDaisy//src/dev/oled_ssd130x.h ****                     transport_.SendCommand(0x12);
 287:../../libDaisy//src/dev/oled_ssd130x.h ****                 }
 288:../../libDaisy//src/dev/oled_ssd130x.h ****                 else
 289:../../libDaisy//src/dev/oled_ssd130x.h ****                 {
 290:../../libDaisy//src/dev/oled_ssd130x.h ****                     transport_.SendCommand(0x02);
 291:../../libDaisy//src/dev/oled_ssd130x.h ****                 }
 292:../../libDaisy//src/dev/oled_ssd130x.h **** 
 293:../../libDaisy//src/dev/oled_ssd130x.h ****                 break;
 294:../../libDaisy//src/dev/oled_ssd130x.h ****             case 48:
 295:../../libDaisy//src/dev/oled_ssd130x.h ****                 // Display Clock Divide Ratio
 296:../../libDaisy//src/dev/oled_ssd130x.h ****                 transport_.SendCommand(0xD5);
 297:../../libDaisy//src/dev/oled_ssd130x.h ****                 transport_.SendCommand(0x80);
 298:../../libDaisy//src/dev/oled_ssd130x.h ****                 // Multiplex Ratio
 299:../../libDaisy//src/dev/oled_ssd130x.h ****                 transport_.SendCommand(0xA8);
 300:../../libDaisy//src/dev/oled_ssd130x.h ****                 transport_.SendCommand(0x2F);
 301:../../libDaisy//src/dev/oled_ssd130x.h ****                 // COM Pins
 302:../../libDaisy//src/dev/oled_ssd130x.h ****                 transport_.SendCommand(0xDA);
 303:../../libDaisy//src/dev/oled_ssd130x.h ****                 transport_.SendCommand(0x12);
 304:../../libDaisy//src/dev/oled_ssd130x.h ****                 break;
 305:../../libDaisy//src/dev/oled_ssd130x.h ****             default: // 128
 306:../../libDaisy//src/dev/oled_ssd130x.h ****                 // Display Clock Divide Ratio
 307:../../libDaisy//src/dev/oled_ssd130x.h ****                 transport_.SendCommand(0xD5);
 308:../../libDaisy//src/dev/oled_ssd130x.h ****                 transport_.SendCommand(0x80);
 309:../../libDaisy//src/dev/oled_ssd130x.h ****                 // Multiplex Ratio
 310:../../libDaisy//src/dev/oled_ssd130x.h ****                 transport_.SendCommand(0xA8);
 311:../../libDaisy//src/dev/oled_ssd130x.h ****                 transport_.SendCommand(0x3F);
 312:../../libDaisy//src/dev/oled_ssd130x.h ****                 // COM Pins
 313:../../libDaisy//src/dev/oled_ssd130x.h ****                 transport_.SendCommand(0xDA);
 314:../../libDaisy//src/dev/oled_ssd130x.h ****                 transport_.SendCommand(0x12);
 315:../../libDaisy//src/dev/oled_ssd130x.h ****                 break;
 316:../../libDaisy//src/dev/oled_ssd130x.h ****         }
 317:../../libDaisy//src/dev/oled_ssd130x.h **** 
 318:../../libDaisy//src/dev/oled_ssd130x.h ****         // Display Offset
 319:../../libDaisy//src/dev/oled_ssd130x.h ****         transport_.SendCommand(0xD3);
 320:../../libDaisy//src/dev/oled_ssd130x.h ****         transport_.SendCommand(0x00);
 321:../../libDaisy//src/dev/oled_ssd130x.h ****         // Start Line Address
 322:../../libDaisy//src/dev/oled_ssd130x.h ****         transport_.SendCommand(0x40);
 323:../../libDaisy//src/dev/oled_ssd130x.h ****         // Normal Display
 324:../../libDaisy//src/dev/oled_ssd130x.h ****         transport_.SendCommand(0xA6);
 325:../../libDaisy//src/dev/oled_ssd130x.h ****         // All On Resume
 326:../../libDaisy//src/dev/oled_ssd130x.h ****         transport_.SendCommand(0xA4);
ARM GAS  /var/folders/hl/qgbwny5j0fd895c2c41bk3tw0000gp/T//cc804SGY.s 			page 21


 327:../../libDaisy//src/dev/oled_ssd130x.h ****         // Charge Pump
 328:../../libDaisy//src/dev/oled_ssd130x.h ****         transport_.SendCommand(0x8D);
 329:../../libDaisy//src/dev/oled_ssd130x.h ****         transport_.SendCommand(0x14);
 330:../../libDaisy//src/dev/oled_ssd130x.h ****         // Set Segment Remap
 331:../../libDaisy//src/dev/oled_ssd130x.h ****         transport_.SendCommand(0xA1);
 332:../../libDaisy//src/dev/oled_ssd130x.h ****         // COM Output Scan Direction
 333:../../libDaisy//src/dev/oled_ssd130x.h ****         transport_.SendCommand(0xC8);
 334:../../libDaisy//src/dev/oled_ssd130x.h ****         // Contrast Control
 335:../../libDaisy//src/dev/oled_ssd130x.h ****         transport_.SendCommand(0x81);
 336:../../libDaisy//src/dev/oled_ssd130x.h ****         transport_.SendCommand(0x8F);
 337:../../libDaisy//src/dev/oled_ssd130x.h ****         // Pre Charge
 338:../../libDaisy//src/dev/oled_ssd130x.h ****         transport_.SendCommand(0xD9);
 339:../../libDaisy//src/dev/oled_ssd130x.h ****         transport_.SendCommand(0x25);
 340:../../libDaisy//src/dev/oled_ssd130x.h ****         // VCOM Detect
 341:../../libDaisy//src/dev/oled_ssd130x.h ****         transport_.SendCommand(0xDB);
 342:../../libDaisy//src/dev/oled_ssd130x.h ****         transport_.SendCommand(0x34);
 343:../../libDaisy//src/dev/oled_ssd130x.h **** 
 344:../../libDaisy//src/dev/oled_ssd130x.h **** 
 345:../../libDaisy//src/dev/oled_ssd130x.h ****         // Display On
 346:../../libDaisy//src/dev/oled_ssd130x.h ****         transport_.SendCommand(0xAF); //--turn on oled panel
 347:../../libDaisy//src/dev/oled_ssd130x.h ****     };
 348:../../libDaisy//src/dev/oled_ssd130x.h **** 
 349:../../libDaisy//src/dev/oled_ssd130x.h ****     size_t Width() const { return width; };
 350:../../libDaisy//src/dev/oled_ssd130x.h ****     size_t Height() const { return height; };
 351:../../libDaisy//src/dev/oled_ssd130x.h **** 
 352:../../libDaisy//src/dev/oled_ssd130x.h ****     void DrawPixel(uint_fast8_t x, uint_fast8_t y, bool on)
 353:../../libDaisy//src/dev/oled_ssd130x.h ****     {
 354:../../libDaisy//src/dev/oled_ssd130x.h ****         if(x >= width || y >= height)
 355:../../libDaisy//src/dev/oled_ssd130x.h ****             return;
 356:../../libDaisy//src/dev/oled_ssd130x.h ****         if(on)
 357:../../libDaisy//src/dev/oled_ssd130x.h ****             buffer_[x + (y / 8) * width] |= (1 << (y % 8));
 358:../../libDaisy//src/dev/oled_ssd130x.h ****         else
 359:../../libDaisy//src/dev/oled_ssd130x.h ****             buffer_[x + (y / 8) * width] &= ~(1 << (y % 8));
 360:../../libDaisy//src/dev/oled_ssd130x.h ****     }
 361:../../libDaisy//src/dev/oled_ssd130x.h **** 
 362:../../libDaisy//src/dev/oled_ssd130x.h ****     void Fill(bool on)
 138              		.loc 10 362 10 view .LVU22
 139              	.LBB589:
 363:../../libDaisy//src/dev/oled_ssd130x.h ****     {
 364:../../libDaisy//src/dev/oled_ssd130x.h ****         for(size_t i = 0; i < sizeof(buffer_); i++)
 140              		.loc 10 364 29 view .LVU23
 365:../../libDaisy//src/dev/oled_ssd130x.h ****         {
 366:../../libDaisy//src/dev/oled_ssd130x.h ****             buffer_[i] = on ? 0xff : 0x00;
 141              		.loc 10 366 24 is_stmt 0 view .LVU24
 142 0000 4942     		rsbs	r1, r1, #0
 143              	.LVL3:
 144              		.loc 10 366 24 view .LVU25
 145 0002 4FF48062 		mov	r2, #1024
 146 0006 1030     		adds	r0, r0, #16
 147              	.LVL4:
 148              		.loc 10 366 24 view .LVU26
 149 0008 C9B2     		uxtb	r1, r1
 150 000a FFF7FEBF 		b	memset
 151              	.LVL5:
 152              		.loc 10 366 24 view .LVU27
 153              	.LBE589:
 154              	.LBE588:
ARM GAS  /var/folders/hl/qgbwny5j0fd895c2c41bk3tw0000gp/T//cc804SGY.s 			page 22


 155              		.cfi_endproc
 156              	.LFE5180:
 158 000e 00BF     		.section	.text._ZNK5daisy11OledDisplayINS_13SSD130xDriverILj128ELj64ENS_19SSD130xI2CTransportEEEE5
 159              		.align	1
 160              		.p2align 2,,3
 161              		.weak	_ZNK5daisy11OledDisplayINS_13SSD130xDriverILj128ELj64ENS_19SSD130xI2CTransportEEEE5WidthEv
 162              		.syntax unified
 163              		.thumb
 164              		.thumb_func
 165              		.fpu fpv5-d16
 167              	_ZNK5daisy11OledDisplayINS_13SSD130xDriverILj128ELj64ENS_19SSD130xI2CTransportEEEE5WidthEv:
 168              	.LVL6:
 169              	.LFB5183:
  28:../../libDaisy//src/hid/disp/oled_display.h **** 
 170              		.loc 8 28 14 is_stmt 1 view -0
 171              		.cfi_startproc
 172              		@ args = 0, pretend = 0, frame = 0
 173              		@ frame_needed = 0, uses_anonymous_args = 0
 174              		@ link register save eliminated.
  28:../../libDaisy//src/hid/disp/oled_display.h **** 
 175              		.loc 8 28 63 is_stmt 0 view .LVU29
 176 0000 8020     		movs	r0, #128
 177              	.LVL7:
  28:../../libDaisy//src/hid/disp/oled_display.h **** 
 178              		.loc 8 28 63 view .LVU30
 179 0002 7047     		bx	lr
 180              		.cfi_endproc
 181              	.LFE5183:
 183              		.section	.text._ZNK5daisy11OledDisplayINS_13SSD130xDriverILj128ELj64ENS_19SSD130xI2CTransportEEEE6
 184              		.align	1
 185              		.p2align 2,,3
 186              		.weak	_ZNK5daisy11OledDisplayINS_13SSD130xDriverILj128ELj64ENS_19SSD130xI2CTransportEEEE6HeightEv
 187              		.syntax unified
 188              		.thumb
 189              		.thumb_func
 190              		.fpu fpv5-d16
 192              	_ZNK5daisy11OledDisplayINS_13SSD130xDriverILj128ELj64ENS_19SSD130xI2CTransportEEEE6HeightEv:
 193              	.LVL8:
 194              	.LFB5184:
  27:../../libDaisy//src/hid/disp/oled_display.h ****     uint16_t Width() const override { return driver_.Width(); }
 195              		.loc 8 27 14 is_stmt 1 view -0
 196              		.cfi_startproc
 197              		@ args = 0, pretend = 0, frame = 0
 198              		@ frame_needed = 0, uses_anonymous_args = 0
 199              		@ link register save eliminated.
  27:../../libDaisy//src/hid/disp/oled_display.h ****     uint16_t Width() const override { return driver_.Width(); }
 200              		.loc 8 27 65 is_stmt 0 view .LVU32
 201 0000 4020     		movs	r0, #64
 202              	.LVL9:
  27:../../libDaisy//src/hid/disp/oled_display.h ****     uint16_t Width() const override { return driver_.Width(); }
 203              		.loc 8 27 65 view .LVU33
 204 0002 7047     		bx	lr
 205              		.cfi_endproc
 206              	.LFE5184:
 208              		.section	.text._ZN5daisy9Patch_BayD2Ev,"axG",%progbits,_ZN5daisy9Patch_BayD5Ev,comdat
 209              		.align	1
 210              		.p2align 2,,3
ARM GAS  /var/folders/hl/qgbwny5j0fd895c2c41bk3tw0000gp/T//cc804SGY.s 			page 23


 211              		.weak	_ZN5daisy9Patch_BayD2Ev
 212              		.syntax unified
 213              		.thumb
 214              		.thumb_func
 215              		.fpu fpv5-d16
 217              	_ZN5daisy9Patch_BayD2Ev:
 218              	.LVL10:
 219              	.LFB5455:
 220              		.file 11 "patch_bay.h"
   1:patch_bay.h   **** #pragma once 
   2:patch_bay.h   **** #ifndef PATCH_BAY_BSP_H
   3:patch_bay.h   **** #define PATCH_BAY_BSP_H
   4:patch_bay.h   **** 
   5:patch_bay.h   **** #include "daisy.h"
   6:patch_bay.h   **** #include "daisy_patch_sm.h"
   7:patch_bay.h   **** #include "dev/oled_ssd130x.h"
   8:patch_bay.h   **** 
   9:patch_bay.h   **** using namespace daisy;
  10:patch_bay.h   **** using namespace patch_sm;
  11:patch_bay.h   **** 
  12:patch_bay.h   **** namespace daisy {
  13:patch_bay.h   **** 
  14:patch_bay.h   **** class Patch_Bay
 221              		.loc 11 14 7 is_stmt 1 view -0
 222              		.cfi_startproc
 223              		@ args = 0, pretend = 0, frame = 0
 224              		@ frame_needed = 0, uses_anonymous_args = 0
 225              		@ link register save eliminated.
 226              	.LBB590:
 227              	.LBI590:
 228              		.file 12 "../../libDaisy//src/hid/led.h"
   1:../../libDaisy//src/hid/led.h **** 
   2:../../libDaisy//src/hid/led.h **** #pragma once
   3:../../libDaisy//src/hid/led.h **** #ifndef DSY_LED_H
   4:../../libDaisy//src/hid/led.h **** #define DSY_LED_H
   5:../../libDaisy//src/hid/led.h **** #include "daisy_core.h"
   6:../../libDaisy//src/hid/led.h **** #include "per/gpio.h"
   7:../../libDaisy//src/hid/led.h **** 
   8:../../libDaisy//src/hid/led.h **** /* TODO - Get this set up to work with the dev_leddriver stuff as well
   9:../../libDaisy//src/hid/led.h **** - Setup Hardware PWM for pins that have it
  10:../../libDaisy//src/hid/led.h **** */
  11:../../libDaisy//src/hid/led.h **** 
  12:../../libDaisy//src/hid/led.h **** namespace daisy
  13:../../libDaisy//src/hid/led.h **** {
  14:../../libDaisy//src/hid/led.h **** /**
  15:../../libDaisy//src/hid/led.h ****     @brief LED Class providing simple Software PWM ability, etc \n 
  16:../../libDaisy//src/hid/led.h ****     Eventually this will work with hardware PWM, and external LED Driver devices as well.
  17:../../libDaisy//src/hid/led.h ****     @author shensley
  18:../../libDaisy//src/hid/led.h ****     @date March 2020
  19:../../libDaisy//src/hid/led.h ****     @ingroup feedback
  20:../../libDaisy//src/hid/led.h **** */
  21:../../libDaisy//src/hid/led.h **** class Led
  22:../../libDaisy//src/hid/led.h **** {
  23:../../libDaisy//src/hid/led.h ****   public:
  24:../../libDaisy//src/hid/led.h ****     Led() {}
  25:../../libDaisy//src/hid/led.h ****     ~Led() {}
 229              		.loc 12 25 5 view .LVU35
ARM GAS  /var/folders/hl/qgbwny5j0fd895c2c41bk3tw0000gp/T//cc804SGY.s 			page 24


 230              		.loc 12 25 5 is_stmt 0 view .LVU36
 231              	.LBE590:
 232              	.LBB591:
 233              	.LBI591:
 234              		.loc 12 25 5 is_stmt 1 view .LVU37
 235              		.loc 12 25 5 is_stmt 0 view .LVU38
 236              	.LBE591:
 237              	.LBB592:
 238              	.LBI592:
 239              		.loc 12 25 5 is_stmt 1 view .LVU39
 240              		.loc 12 25 5 is_stmt 0 view .LVU40
 241              	.LBE592:
 242              	.LBB593:
 243              	.LBI593:
  18:../../libDaisy//src/hid/disp/oled_display.h **** 
 244              		.loc 8 18 13 is_stmt 1 view .LVU41
 245              	.LBB594:
 246              	.LBI594:
 247              		.loc 9 219 13 view .LVU42
 248              	.LBB595:
 249              	.LBI595:
  23:../../libDaisy//src/hid/disp/display.h **** 
 250              		.loc 9 23 13 view .LVU43
  23:../../libDaisy//src/hid/disp/display.h **** 
 251              		.loc 9 23 13 is_stmt 0 view .LVU44
 252              	.LBE595:
 253              	.LBE594:
 254              	.LBE593:
 255              	.LBB596:
 256              	.LBI596:
 257              		.file 13 "../../libDaisy//src/hid/encoder.h"
   1:../../libDaisy//src/hid/encoder.h **** #pragma once
   2:../../libDaisy//src/hid/encoder.h **** #ifndef DSY_ENCODER_H
   3:../../libDaisy//src/hid/encoder.h **** #define DSY_ENCODER_H
   4:../../libDaisy//src/hid/encoder.h **** #include "daisy_core.h"
   5:../../libDaisy//src/hid/encoder.h **** #include "per/gpio.h"
   6:../../libDaisy//src/hid/encoder.h **** #include "hid/switch.h"
   7:../../libDaisy//src/hid/encoder.h **** 
   8:../../libDaisy//src/hid/encoder.h **** namespace daisy
   9:../../libDaisy//src/hid/encoder.h **** {
  10:../../libDaisy//src/hid/encoder.h **** /** 
  11:../../libDaisy//src/hid/encoder.h ****     @brief Generic Class for handling Quadrature Encoders \n 
  12:../../libDaisy//src/hid/encoder.h ****     Inspired/influenced by Mutable Instruments (pichenettes) Encoder classes
  13:../../libDaisy//src/hid/encoder.h ****     @author Stephen Hensley
  14:../../libDaisy//src/hid/encoder.h ****     @date December 2019
  15:../../libDaisy//src/hid/encoder.h ****     @ingroup controls
  16:../../libDaisy//src/hid/encoder.h **** */
  17:../../libDaisy//src/hid/encoder.h **** class Encoder
  18:../../libDaisy//src/hid/encoder.h **** {
  19:../../libDaisy//src/hid/encoder.h ****   public:
  20:../../libDaisy//src/hid/encoder.h ****     Encoder() {}
  21:../../libDaisy//src/hid/encoder.h ****     ~Encoder() {}
 258              		.loc 13 21 5 is_stmt 1 view .LVU45
 259              	.LBB597:
 260              	.LBI597:
 261              		.file 14 "../../libDaisy//src/hid/switch.h"
   1:../../libDaisy//src/hid/switch.h **** #pragma once
ARM GAS  /var/folders/hl/qgbwny5j0fd895c2c41bk3tw0000gp/T//cc804SGY.s 			page 25


   2:../../libDaisy//src/hid/switch.h **** #ifndef DSY_SWITCH_H
   3:../../libDaisy//src/hid/switch.h **** #define DSY_SWITCH_H
   4:../../libDaisy//src/hid/switch.h **** #include "daisy_core.h"
   5:../../libDaisy//src/hid/switch.h **** #include "per/gpio.h"
   6:../../libDaisy//src/hid/switch.h **** #include "sys/system.h"
   7:../../libDaisy//src/hid/switch.h **** 
   8:../../libDaisy//src/hid/switch.h **** namespace daisy
   9:../../libDaisy//src/hid/switch.h **** {
  10:../../libDaisy//src/hid/switch.h **** /** 
  11:../../libDaisy//src/hid/switch.h ****     Generic Class for handling momentary/latching switches \n 
  12:../../libDaisy//src/hid/switch.h ****     Inspired/influenced by Mutable Instruments (pichenettes) Switch classes
  13:../../libDaisy//src/hid/switch.h ****     @author Stephen Hensley
  14:../../libDaisy//src/hid/switch.h ****     @date December 2019
  15:../../libDaisy//src/hid/switch.h ****     @ingroup controls
  16:../../libDaisy//src/hid/switch.h **** */
  17:../../libDaisy//src/hid/switch.h **** class Switch
  18:../../libDaisy//src/hid/switch.h **** {
  19:../../libDaisy//src/hid/switch.h ****   public:
  20:../../libDaisy//src/hid/switch.h ****     /** Specifies the expected behavior of the switch */
  21:../../libDaisy//src/hid/switch.h ****     enum Type
  22:../../libDaisy//src/hid/switch.h ****     {
  23:../../libDaisy//src/hid/switch.h ****         TYPE_TOGGLE,    /**< & */
  24:../../libDaisy//src/hid/switch.h ****         TYPE_MOMENTARY, /**< & */
  25:../../libDaisy//src/hid/switch.h ****     };
  26:../../libDaisy//src/hid/switch.h ****     /** Specifies whether the pressed is HIGH or LOW. */
  27:../../libDaisy//src/hid/switch.h ****     enum Polarity
  28:../../libDaisy//src/hid/switch.h ****     {
  29:../../libDaisy//src/hid/switch.h ****         POLARITY_NORMAL,   /**< & */
  30:../../libDaisy//src/hid/switch.h ****         POLARITY_INVERTED, /**< & */
  31:../../libDaisy//src/hid/switch.h ****     };
  32:../../libDaisy//src/hid/switch.h **** 
  33:../../libDaisy//src/hid/switch.h ****     /** Specifies whether to use built-in Pull Up/Down resistors to hold button at a given state wh
  34:../../libDaisy//src/hid/switch.h ****     enum Pull
  35:../../libDaisy//src/hid/switch.h ****     {
  36:../../libDaisy//src/hid/switch.h ****         PULL_UP,   /**< & */
  37:../../libDaisy//src/hid/switch.h ****         PULL_DOWN, /**< & */
  38:../../libDaisy//src/hid/switch.h ****         PULL_NONE, /**< & */
  39:../../libDaisy//src/hid/switch.h ****     };
  40:../../libDaisy//src/hid/switch.h **** 
  41:../../libDaisy//src/hid/switch.h ****     Switch() {}
  42:../../libDaisy//src/hid/switch.h ****     ~Switch() {}
 262              		.loc 14 42 5 view .LVU46
 263              		.loc 14 42 5 is_stmt 0 view .LVU47
 264              	.LBE597:
 265              	.LBE596:
 266              	.LBB598:
 267              	.LBI598:
 268              		.loc 14 42 5 is_stmt 1 view .LVU48
 269              		.loc 14 42 5 is_stmt 0 view .LVU49
 270              	.LBE598:
 271              	.LBB599:
 272              	.LBI599:
 273              		.file 15 "../../libDaisy//src/per/sdmmc.h"
   1:../../libDaisy//src/per/sdmmc.h **** /*
   2:../../libDaisy//src/per/sdmmc.h **** TODO: 
   3:../../libDaisy//src/per/sdmmc.h **** - Implement configuration (currently all settings are fixed).
   4:../../libDaisy//src/per/sdmmc.h **** */
ARM GAS  /var/folders/hl/qgbwny5j0fd895c2c41bk3tw0000gp/T//cc804SGY.s 			page 26


   5:../../libDaisy//src/per/sdmmc.h **** #pragma once
   6:../../libDaisy//src/per/sdmmc.h **** #ifndef DSY_SDMMC_H
   7:../../libDaisy//src/per/sdmmc.h **** #define DSY_SDMMC_H /**< macro */
   8:../../libDaisy//src/per/sdmmc.h **** 
   9:../../libDaisy//src/per/sdmmc.h **** #include <stdint.h>
  10:../../libDaisy//src/per/sdmmc.h **** 
  11:../../libDaisy//src/per/sdmmc.h **** 
  12:../../libDaisy//src/per/sdmmc.h **** namespace daisy
  13:../../libDaisy//src/per/sdmmc.h **** {
  14:../../libDaisy//src/per/sdmmc.h **** /** @ingroup peripheral
  15:../../libDaisy//src/per/sdmmc.h ****     @{
  16:../../libDaisy//src/per/sdmmc.h ****     */
  17:../../libDaisy//src/per/sdmmc.h **** 
  18:../../libDaisy//src/per/sdmmc.h **** /** Configuration for interfacing with SD cards.
  19:../../libDaisy//src/per/sdmmc.h ****  *  Currently only supports operation using FatFS filesystem
  20:../../libDaisy//src/per/sdmmc.h ****  * 
  21:../../libDaisy//src/per/sdmmc.h ****  *  Only SDMMC1 is supported at this time.
  22:../../libDaisy//src/per/sdmmc.h ****  *
  23:../../libDaisy//src/per/sdmmc.h ****  *  Pins are fixed to the following:
  24:../../libDaisy//src/per/sdmmc.h ****  *  PC12 - SDMMC1 CK
  25:../../libDaisy//src/per/sdmmc.h ****  *  PD2  - SDMMC1 CMD
  26:../../libDaisy//src/per/sdmmc.h ****  *  PC8  - SDMMC1 D0
  27:../../libDaisy//src/per/sdmmc.h ****  *  PC9  - SDMMC1 D1 (optional)
  28:../../libDaisy//src/per/sdmmc.h ****  *  PC10 - SDMMC1 D2 (optional)
  29:../../libDaisy//src/per/sdmmc.h ****  *  PC11 - SDMMC1 D3 (optional)
  30:../../libDaisy//src/per/sdmmc.h **** */
  31:../../libDaisy//src/per/sdmmc.h **** class SdmmcHandler
  32:../../libDaisy//src/per/sdmmc.h **** {
  33:../../libDaisy//src/per/sdmmc.h ****   public:
  34:../../libDaisy//src/per/sdmmc.h ****     /** Return values for the SdmmcHandler class */
  35:../../libDaisy//src/per/sdmmc.h ****     enum class Result
  36:../../libDaisy//src/per/sdmmc.h ****     {
  37:../../libDaisy//src/per/sdmmc.h ****         OK,
  38:../../libDaisy//src/per/sdmmc.h ****         ERROR,
  39:../../libDaisy//src/per/sdmmc.h ****     };
  40:../../libDaisy//src/per/sdmmc.h **** 
  41:../../libDaisy//src/per/sdmmc.h ****     /** Sets whether 4-bit mode or 1-bit mode is used for the SDMMC */
  42:../../libDaisy//src/per/sdmmc.h ****     enum class BusWidth
  43:../../libDaisy//src/per/sdmmc.h ****     {
  44:../../libDaisy//src/per/sdmmc.h ****         BITS_1, /**< Only 1 bit of data per clock is transferred */
  45:../../libDaisy//src/per/sdmmc.h ****         BITS_4, /**< 4-bits of parallel data for each clock pulse */
  46:../../libDaisy//src/per/sdmmc.h ****     };
  47:../../libDaisy//src/per/sdmmc.h **** 
  48:../../libDaisy//src/per/sdmmc.h ****     /** 
  49:../../libDaisy//src/per/sdmmc.h ****     Sets the desired clock speed of the SD card bus. \n 
  50:../../libDaisy//src/per/sdmmc.h ****     Initialization is always done at or below 400kHz, and then the user speed is set.
  51:../../libDaisy//src/per/sdmmc.h ****     */
  52:../../libDaisy//src/per/sdmmc.h ****     enum class Speed
  53:../../libDaisy//src/per/sdmmc.h ****     {
  54:../../libDaisy//src/per/sdmmc.h ****         SLOW, /**< 400kHz, initialization  performed at this rate, before moving to user value */
  55:../../libDaisy//src/per/sdmmc.h ****         MEDIUM_SLOW, /**< 12.5MHz - half of standard rate */
  56:../../libDaisy//src/per/sdmmc.h ****         STANDARD,    /**< 25MHz - DS (Default Speed for SDMMC) */
  57:../../libDaisy//src/per/sdmmc.h ****         FAST,        /**< 50MHz - HS (High Speed signaling) */
  58:../../libDaisy//src/per/sdmmc.h ****         VERY_FAST, /**< 100MHz - SDR50 Overclocked rate for maximum transfer rates */
  59:../../libDaisy//src/per/sdmmc.h ****     };
  60:../../libDaisy//src/per/sdmmc.h **** 
  61:../../libDaisy//src/per/sdmmc.h ****     struct Config
ARM GAS  /var/folders/hl/qgbwny5j0fd895c2c41bk3tw0000gp/T//cc804SGY.s 			page 27


  62:../../libDaisy//src/per/sdmmc.h ****     {
  63:../../libDaisy//src/per/sdmmc.h ****         Speed    speed;
  64:../../libDaisy//src/per/sdmmc.h ****         BusWidth width;
  65:../../libDaisy//src/per/sdmmc.h ****         bool
  66:../../libDaisy//src/per/sdmmc.h ****             clock_powersave; /**< When true, the clock will stop between transfers to save power. *
  67:../../libDaisy//src/per/sdmmc.h **** 
  68:../../libDaisy//src/per/sdmmc.h ****         /** Configures settings to their default settings */
  69:../../libDaisy//src/per/sdmmc.h ****         void Defaults()
  70:../../libDaisy//src/per/sdmmc.h ****         {
  71:../../libDaisy//src/per/sdmmc.h ****             speed           = Speed::FAST;
  72:../../libDaisy//src/per/sdmmc.h ****             width           = BusWidth::BITS_4;
  73:../../libDaisy//src/per/sdmmc.h ****             clock_powersave = false;
  74:../../libDaisy//src/per/sdmmc.h ****         }
  75:../../libDaisy//src/per/sdmmc.h ****     };
  76:../../libDaisy//src/per/sdmmc.h **** 
  77:../../libDaisy//src/per/sdmmc.h ****     SdmmcHandler() {}
  78:../../libDaisy//src/per/sdmmc.h ****     ~SdmmcHandler() {}
 274              		.loc 15 78 5 is_stmt 1 view .LVU50
 275              		.loc 15 78 5 is_stmt 0 view .LVU51
 276              	.LBE599:
 277              		.loc 11 14 7 view .LVU52
 278 0000 7047     		bx	lr
 279              		.cfi_endproc
 280              	.LFE5455:
 282              		.weak	_ZN5daisy9Patch_BayD1Ev
 283              		.thumb_set _ZN5daisy9Patch_BayD1Ev,_ZN5daisy9Patch_BayD2Ev
 284 0002 00BF     		.section	.text._ZN5daisy11OledDisplayINS_13SSD130xDriverILj128ELj64ENS_19SSD130xI2CTransportEEEED0
 285              		.align	1
 286              		.p2align 2,,3
 287              		.weak	_ZN5daisy11OledDisplayINS_13SSD130xDriverILj128ELj64ENS_19SSD130xI2CTransportEEEED0Ev
 288              		.syntax unified
 289              		.thumb
 290              		.thumb_func
 291              		.fpu fpv5-d16
 293              	_ZN5daisy11OledDisplayINS_13SSD130xDriverILj128ELj64ENS_19SSD130xI2CTransportEEEED0Ev:
 294              	.LVL11:
 295              	.LFB5179:
  18:../../libDaisy//src/hid/disp/oled_display.h **** 
 296              		.loc 8 18 13 is_stmt 1 view -0
 297              		.cfi_startproc
 298              		@ args = 0, pretend = 0, frame = 0
 299              		@ frame_needed = 0, uses_anonymous_args = 0
  18:../../libDaisy//src/hid/disp/oled_display.h **** 
 300              		.loc 8 18 13 is_stmt 0 view .LVU54
 301 0000 10B5     		push	{r4, lr}
 302              		.cfi_def_cfa_offset 8
 303              		.cfi_offset 4, -8
 304              		.cfi_offset 14, -4
  18:../../libDaisy//src/hid/disp/oled_display.h **** 
 305              		.loc 8 18 13 view .LVU55
 306 0002 0446     		mov	r4, r0
 307              	.LVL12:
 308              	.LBB600:
 309              	.LBI600:
  18:../../libDaisy//src/hid/disp/oled_display.h **** 
 310              		.loc 8 18 13 is_stmt 1 view .LVU56
 311              	.LBB601:
ARM GAS  /var/folders/hl/qgbwny5j0fd895c2c41bk3tw0000gp/T//cc804SGY.s 			page 28


 312              	.LBI601:
 313              		.loc 9 219 13 view .LVU57
 314              	.LBB602:
 315              	.LBI602:
  23:../../libDaisy//src/hid/disp/display.h **** 
 316              		.loc 9 23 13 view .LVU58
  23:../../libDaisy//src/hid/disp/display.h **** 
 317              		.loc 9 23 13 is_stmt 0 view .LVU59
 318              	.LBE602:
 319              	.LBE601:
 320              	.LBE600:
  18:../../libDaisy//src/hid/disp/oled_display.h **** 
 321              		.loc 8 18 29 view .LVU60
 322 0004 4FF48261 		mov	r1, #1040
 323 0008 FFF7FEFF 		bl	_ZdlPvj
 324              	.LVL13:
  18:../../libDaisy//src/hid/disp/oled_display.h **** 
 325              		.loc 8 18 29 view .LVU61
 326 000c 2046     		mov	r0, r4
 327 000e 10BD     		pop	{r4, pc}
  18:../../libDaisy//src/hid/disp/oled_display.h **** 
 328              		.loc 8 18 29 view .LVU62
 329              		.cfi_endproc
 330              	.LFE5179:
 332              		.section	.text._Z13AudioCallbackPKPKfPPfj,"ax",%progbits
 333              		.align	1
 334              		.p2align 2,,3
 335              		.global	_Z13AudioCallbackPKPKfPPfj
 336              		.syntax unified
 337              		.thumb
 338              		.thumb_func
 339              		.fpu fpv5-d16
 341              	_Z13AudioCallbackPKPKfPPfj:
 342              	.LVL14:
 343              	.LFB4858:
 344              		.file 16 "RFFTtest.cpp"
   1:RFFTtest.cpp  **** #include "daisy_patch_sm.h"
   2:RFFTtest.cpp  **** #include "daisysp.h"
   3:RFFTtest.cpp  **** #include "patch_bay.h"
   4:RFFTtest.cpp  **** #include "arm_math.h"
   5:RFFTtest.cpp  **** #include "arm_const_structs.h"
   6:RFFTtest.cpp  **** #include "lut.h"
   7:RFFTtest.cpp  **** 
   8:RFFTtest.cpp  **** using namespace daisy;
   9:RFFTtest.cpp  **** using namespace patch_sm;
  10:RFFTtest.cpp  **** using namespace daisysp;
  11:RFFTtest.cpp  **** 
  12:RFFTtest.cpp  **** DaisyPatchSM hw;
  13:RFFTtest.cpp  **** Patch_Bay    pb;
  14:RFFTtest.cpp  **** 
  15:RFFTtest.cpp  **** #define TEST_LENGTH_SAMPLES 2048
  16:RFFTtest.cpp  **** 
  17:RFFTtest.cpp  **** arm_rfft_fast_instance_f32 S = {
  18:RFFTtest.cpp  **** 	{ 512, twiddleCoef_512, armBitRevIndexTable512, ARMBITREVINDEXTABLE_512_TABLE_LENGTH },
  19:RFFTtest.cpp  **** 	1024u,
  20:RFFTtest.cpp  **** 	(float32_t *)twiddleCoef_rfft_1024
  21:RFFTtest.cpp  **** };
ARM GAS  /var/folders/hl/qgbwny5j0fd895c2c41bk3tw0000gp/T//cc804SGY.s 			page 29


  22:RFFTtest.cpp  **** 
  23:RFFTtest.cpp  **** /* -------------------------------------------------------------------
  24:RFFTtest.cpp  **** * External Input and Output buffer Declarations for FFT Bin Example
  25:RFFTtest.cpp  **** * ------------------------------------------------------------------- */
  26:RFFTtest.cpp  **** float32_t testInput[TEST_LENGTH_SAMPLES];
  27:RFFTtest.cpp  **** static float32_t testOutput[TEST_LENGTH_SAMPLES/2];
  28:RFFTtest.cpp  **** static float32_t magOutput[TEST_LENGTH_SAMPLES/2];
  29:RFFTtest.cpp  **** 
  30:RFFTtest.cpp  **** /* ------------------------------------------------------------------
  31:RFFTtest.cpp  **** * Global variables for FFT Bin Example
  32:RFFTtest.cpp  **** * ------------------------------------------------------------------- */
  33:RFFTtest.cpp  **** uint32_t fftSize = 1024;
  34:RFFTtest.cpp  **** uint32_t ifftFlag = 0;
  35:RFFTtest.cpp  **** uint32_t doBitReverse = 1;
  36:RFFTtest.cpp  **** 
  37:RFFTtest.cpp  **** /* Reference index at which max energy of bin ocuurs */
  38:RFFTtest.cpp  **** uint32_t refIndex = 213, testIndex = 0;
  39:RFFTtest.cpp  **** 
  40:RFFTtest.cpp  **** // global, so do_fft() knows when to run
  41:RFFTtest.cpp  **** int fft_buf_index = 0;
  42:RFFTtest.cpp  **** int win_index = 0;
  43:RFFTtest.cpp  **** float f;
  44:RFFTtest.cpp  **** 
  45:RFFTtest.cpp  **** void DisplayWaveform();
  46:RFFTtest.cpp  **** void DisplayTimeWaveform();
  47:RFFTtest.cpp  **** void fftTest();
  48:RFFTtest.cpp  **** 
  49:RFFTtest.cpp  **** void UpdateOled(float fl)
  50:RFFTtest.cpp  **** {
  51:RFFTtest.cpp  ****     pb.display.Fill(false);
  52:RFFTtest.cpp  ****     std::string str = std::to_string(static_cast<int>(fl));
  53:RFFTtest.cpp  ****     char *cstr = &str[0];
  54:RFFTtest.cpp  ****     pb.display.SetCursor(0, 0);
  55:RFFTtest.cpp  ****     pb.display.WriteString(cstr, Font_11x18, true);
  56:RFFTtest.cpp  **** 
  57:RFFTtest.cpp  ****     pb.display.Update();
  58:RFFTtest.cpp  **** }
  59:RFFTtest.cpp  **** 
  60:RFFTtest.cpp  **** void AudioCallback(AudioHandle::InputBuffer in, AudioHandle::OutputBuffer out, size_t size)
  61:RFFTtest.cpp  **** {
 345              		.loc 16 61 1 is_stmt 1 view -0
 346              		.cfi_startproc
 347              		@ args = 0, pretend = 0, frame = 0
 348              		@ frame_needed = 0, uses_anonymous_args = 0
  62:RFFTtest.cpp  **** 	float mod = hw.GetAdcValue(CV_1);
 349              		.loc 16 62 2 view .LVU64
  61:RFFTtest.cpp  **** 	float mod = hw.GetAdcValue(CV_1);
 350              		.loc 16 61 1 is_stmt 0 view .LVU65
 351 0000 2DE9F843 		push	{r3, r4, r5, r6, r7, r8, r9, lr}
 352              		.cfi_def_cfa_offset 32
 353              		.cfi_offset 3, -32
 354              		.cfi_offset 4, -28
 355              		.cfi_offset 5, -24
 356              		.cfi_offset 6, -20
 357              		.cfi_offset 7, -16
 358              		.cfi_offset 8, -12
 359              		.cfi_offset 9, -8
ARM GAS  /var/folders/hl/qgbwny5j0fd895c2c41bk3tw0000gp/T//cc804SGY.s 			page 30


 360              		.cfi_offset 14, -4
 361 0004 0646     		mov	r6, r0
 362 0006 0D46     		mov	r5, r1
 363              		.loc 16 62 28 view .LVU66
 364 0008 2B48     		ldr	r0, .L22
 365              	.LVL15:
 366              		.loc 16 62 28 view .LVU67
 367 000a 0021     		movs	r1, #0
 368              	.LVL16:
  61:RFFTtest.cpp  **** 	float mod = hw.GetAdcValue(CV_1);
 369              		.loc 16 61 1 view .LVU68
 370 000c 1446     		mov	r4, r2
 371 000e 2DED028B 		vpush.64	{d8}
 372              		.cfi_def_cfa_offset 40
 373              		.cfi_offset 80, -40
 374              		.cfi_offset 81, -36
 375              		.loc 16 62 28 view .LVU69
 376 0012 FFF7FEFF 		bl	_ZN5daisy8patch_sm12DaisyPatchSM11GetAdcValueEi
 377              	.LVL17:
 378              	.LBB603:
 379              	.LBB604:
  66:../../libDaisy//src/daisy_patch_sm.h **** 
  67:../../libDaisy//src/daisy_patch_sm.h ****         /** Initializes the memories, and core peripherals for the Daisy Patch SM */
  68:../../libDaisy//src/daisy_patch_sm.h ****         void Init();
  69:../../libDaisy//src/daisy_patch_sm.h **** 
  70:../../libDaisy//src/daisy_patch_sm.h ****         /** Starts a non-interleaving audio callback */
  71:../../libDaisy//src/daisy_patch_sm.h ****         void StartAudio(AudioHandle::AudioCallback cb);
  72:../../libDaisy//src/daisy_patch_sm.h **** 
  73:../../libDaisy//src/daisy_patch_sm.h ****         /** Starts an interleaving audio callback */
  74:../../libDaisy//src/daisy_patch_sm.h ****         void StartAudio(AudioHandle::InterleavingAudioCallback cb);
  75:../../libDaisy//src/daisy_patch_sm.h **** 
  76:../../libDaisy//src/daisy_patch_sm.h ****         /** Changes the callback that is executing.
  77:../../libDaisy//src/daisy_patch_sm.h ****          *  This may cause clicks if done while audio is processing.
  78:../../libDaisy//src/daisy_patch_sm.h ****          */
  79:../../libDaisy//src/daisy_patch_sm.h ****         void ChangeAudioCallback(AudioHandle::AudioCallback cb);
  80:../../libDaisy//src/daisy_patch_sm.h **** 
  81:../../libDaisy//src/daisy_patch_sm.h ****         /** Changes the callback that is executing.
  82:../../libDaisy//src/daisy_patch_sm.h ****          *  This may cause clicks if done while audio is processing.
  83:../../libDaisy//src/daisy_patch_sm.h ****          */
  84:../../libDaisy//src/daisy_patch_sm.h ****         void ChangeAudioCallback(AudioHandle::InterleavingAudioCallback cb);
  85:../../libDaisy//src/daisy_patch_sm.h **** 
  86:../../libDaisy//src/daisy_patch_sm.h ****         /** Stops the transmission of audio. */
  87:../../libDaisy//src/daisy_patch_sm.h ****         void StopAudio();
  88:../../libDaisy//src/daisy_patch_sm.h **** 
  89:../../libDaisy//src/daisy_patch_sm.h ****         /** Sets the number of samples processed in an audio callback. 
  90:../../libDaisy//src/daisy_patch_sm.h ****          *  This will only take effect on the next invocation of `StartAudio`
  91:../../libDaisy//src/daisy_patch_sm.h ****          */
  92:../../libDaisy//src/daisy_patch_sm.h ****         void SetAudioBlockSize(size_t size);
  93:../../libDaisy//src/daisy_patch_sm.h **** 
  94:../../libDaisy//src/daisy_patch_sm.h ****         /** Sets the samplerate for the audio engine 
  95:../../libDaisy//src/daisy_patch_sm.h ****          *  This will set it to the closest valid samplerate. Options being:
  96:../../libDaisy//src/daisy_patch_sm.h ****          *  8kHz, 16kHz, 32kHz, 48kHz, and 96kHz
  97:../../libDaisy//src/daisy_patch_sm.h ****          */
  98:../../libDaisy//src/daisy_patch_sm.h ****         void SetAudioSampleRate(float sr);
  99:../../libDaisy//src/daisy_patch_sm.h **** 
 100:../../libDaisy//src/daisy_patch_sm.h ****         void SetAudioSampleRate(SaiHandle::Config::SampleRate sample_rate);
 101:../../libDaisy//src/daisy_patch_sm.h **** 
ARM GAS  /var/folders/hl/qgbwny5j0fd895c2c41bk3tw0000gp/T//cc804SGY.s 			page 31


 102:../../libDaisy//src/daisy_patch_sm.h ****         /** Returns the number of samples processed in an audio callback */
 103:../../libDaisy//src/daisy_patch_sm.h ****         size_t AudioBlockSize();
 104:../../libDaisy//src/daisy_patch_sm.h **** 
 105:../../libDaisy//src/daisy_patch_sm.h ****         /** Returns the audio engine's samplerate in Hz */
 106:../../libDaisy//src/daisy_patch_sm.h ****         float AudioSampleRate();
 107:../../libDaisy//src/daisy_patch_sm.h **** 
 108:../../libDaisy//src/daisy_patch_sm.h ****         /** Returns the rate at which the audio callback will be called in Hz */
 109:../../libDaisy//src/daisy_patch_sm.h ****         float AudioCallbackRate();
 110:../../libDaisy//src/daisy_patch_sm.h **** 
 111:../../libDaisy//src/daisy_patch_sm.h ****         /** Starts the Control ADCs 
 112:../../libDaisy//src/daisy_patch_sm.h ****          * 
 113:../../libDaisy//src/daisy_patch_sm.h ****          *  This is started automatically when Init() is called.
 114:../../libDaisy//src/daisy_patch_sm.h ****          */
 115:../../libDaisy//src/daisy_patch_sm.h ****         void StartAdc();
 116:../../libDaisy//src/daisy_patch_sm.h **** 
 117:../../libDaisy//src/daisy_patch_sm.h ****         /** Stops the Control ADCs */
 118:../../libDaisy//src/daisy_patch_sm.h ****         void StopAdc();
 119:../../libDaisy//src/daisy_patch_sm.h **** 
 120:../../libDaisy//src/daisy_patch_sm.h ****         /** Reads and filters all of the analog control inputs */
 121:../../libDaisy//src/daisy_patch_sm.h ****         void ProcessAnalogControls();
 122:../../libDaisy//src/daisy_patch_sm.h **** 
 123:../../libDaisy//src/daisy_patch_sm.h ****         /** Reads and debounces any of the digital control inputs 
 124:../../libDaisy//src/daisy_patch_sm.h ****          *  This does nothing on this board at this time.
 125:../../libDaisy//src/daisy_patch_sm.h ****          */
 126:../../libDaisy//src/daisy_patch_sm.h ****         void ProcessDigitalControls();
 127:../../libDaisy//src/daisy_patch_sm.h **** 
 128:../../libDaisy//src/daisy_patch_sm.h ****         /** Does both of the above */
 129:../../libDaisy//src/daisy_patch_sm.h ****         void ProcessAllControls()
 130:../../libDaisy//src/daisy_patch_sm.h ****         {
 131:../../libDaisy//src/daisy_patch_sm.h ****             ProcessAnalogControls();
 380              		.loc 1 131 34 view .LVU70
 381 0016 2848     		ldr	r0, .L22
 382              	.LBE604:
 383              	.LBE603:
 384              		.loc 16 62 28 view .LVU71
 385 0018 B0EE408A 		vmov.f32	s16, s0
 386              	.LVL18:
  63:RFFTtest.cpp  **** 
  64:RFFTtest.cpp  **** 	hw.ProcessAllControls();
 387              		.loc 16 64 2 is_stmt 1 view .LVU72
 388              	.LBB606:
 389              	.LBI603:
 129:../../libDaisy//src/daisy_patch_sm.h ****         {
 390              		.loc 1 129 14 view .LVU73
 391              	.LBB605:
 392              		.loc 1 131 13 view .LVU74
 393              		.loc 1 131 34 is_stmt 0 view .LVU75
 394 001c FFF7FEFF 		bl	_ZN5daisy8patch_sm12DaisyPatchSM21ProcessAnalogControlsEv
 395              	.LVL19:
 132:../../libDaisy//src/daisy_patch_sm.h ****             ProcessDigitalControls();
 396              		.loc 1 132 13 is_stmt 1 view .LVU76
 397              		.loc 1 132 35 is_stmt 0 view .LVU77
 398 0020 2548     		ldr	r0, .L22
 399 0022 FFF7FEFF 		bl	_ZN5daisy8patch_sm12DaisyPatchSM22ProcessDigitalControlsEv
 400              	.LVL20:
 401              		.loc 1 132 35 view .LVU78
 402              	.LBE605:
ARM GAS  /var/folders/hl/qgbwny5j0fd895c2c41bk3tw0000gp/T//cc804SGY.s 			page 32


 403              	.LBE606:
  65:RFFTtest.cpp  **** 	for (size_t i = 0; i < size; i++)
 404              		.loc 16 65 2 is_stmt 1 view .LVU79
 405              	.LBB607:
 406              		.loc 16 65 23 view .LVU80
 407 0026 002C     		cmp	r4, #0
 408 0028 41D0     		beq	.L10
 409 002a DFF89890 		ldr	r9, .L22+12
  66:RFFTtest.cpp  **** 	{
  67:RFFTtest.cpp  **** 		if (fft_buf_index < TEST_LENGTH_SAMPLES) 
  68:RFFTtest.cpp  **** 		{
  69:RFFTtest.cpp  **** 			//float windowed_input = (IN_L[i]+IN_R[i]) * HANNING_WINDOW[win_index++];
  70:RFFTtest.cpp  **** 			testInput[fft_buf_index++] = IN_L[i]+IN_R[i];
  71:RFFTtest.cpp  **** 			testInput[fft_buf_index++] = 0.f;
  72:RFFTtest.cpp  **** 		}
  73:RFFTtest.cpp  **** 		OUT_L[i] = ((IN_L[i]+IN_R[i]) * mod);
  74:RFFTtest.cpp  **** 		OUT_R[i] = ((IN_L[i]+IN_R[i]) * mod);
 410              		.loc 16 74 3 is_stmt 0 view .LVU81
 411 002e 4FF0000C 		mov	ip, #0
 412 0032 4FEA840E 		lsl	lr, r4, #2
 413 0036 D9F80020 		ldr	r2, [r9]
 414 003a E046     		mov	r8, ip
 415 003c D6E90040 		ldrd	r4, r0, [r6]
 416              	.LVL21:
 417              		.loc 16 74 3 view .LVU82
 418 0040 D5E90065 		ldrd	r6, r5, [r5]
 419              	.LVL22:
 420              	.L15:
  67:RFFTtest.cpp  **** 		{
 421              		.loc 16 67 3 is_stmt 1 view .LVU83
  70:RFFTtest.cpp  **** 			testInput[fft_buf_index++] = 0.f;
 422              		.loc 16 70 4 view .LVU84
  73:RFFTtest.cpp  **** 		OUT_R[i] = ((IN_L[i]+IN_R[i]) * mod);
 423              		.loc 16 73 3 view .LVU85
  70:RFFTtest.cpp  **** 			testInput[fft_buf_index++] = 0.f;
 424              		.loc 16 70 31 is_stmt 0 view .LVU86
 425 0044 1D4B     		ldr	r3, .L22+4
  70:RFFTtest.cpp  **** 			testInput[fft_buf_index++] = 0.f;
 426              		.loc 16 70 27 view .LVU87
 427 0046 511C     		adds	r1, r2, #1
  67:RFFTtest.cpp  **** 		{
 428              		.loc 16 67 3 view .LVU88
 429 0048 B2F5006F 		cmp	r2, #2048
  65:RFFTtest.cpp  **** 	{
 430              		.loc 16 65 23 view .LVU89
 431 004c 0CF1040C 		add	ip, ip, #4
  70:RFFTtest.cpp  **** 			testInput[fft_buf_index++] = 0.f;
 432              		.loc 16 70 31 view .LVU90
 433 0050 03EB8207 		add	r7, r3, r2, lsl #2
  71:RFFTtest.cpp  **** 		}
 434              		.loc 16 71 31 view .LVU91
 435 0054 9FED1A7A 		vldr.32	s14, .L22+8
 436 0058 03EB8103 		add	r3, r3, r1, lsl #2
  67:RFFTtest.cpp  **** 		{
 437              		.loc 16 67 3 view .LVU92
 438 005c 0CDA     		bge	.L14
  70:RFFTtest.cpp  **** 			testInput[fft_buf_index++] = 0.f;
ARM GAS  /var/folders/hl/qgbwny5j0fd895c2c41bk3tw0000gp/T//cc804SGY.s 			page 33


 439              		.loc 16 70 40 view .LVU93
 440 005e D4ED007A 		vldr.32	s15, [r4]
  71:RFFTtest.cpp  **** 		}
 441              		.loc 16 71 27 view .LVU94
 442 0062 0232     		adds	r2, r2, #2
  70:RFFTtest.cpp  **** 			testInput[fft_buf_index++] = 0.f;
 443              		.loc 16 70 40 view .LVU95
 444 0064 D0ED006A 		vldr.32	s13, [r0]
 445 0068 4FF00108 		mov	r8, #1
 446 006c 77EEA67A 		vadd.f32	s15, s15, s13
  70:RFFTtest.cpp  **** 			testInput[fft_buf_index++] = 0.f;
 447              		.loc 16 70 31 view .LVU96
 448 0070 C7ED007A 		vstr.32	s15, [r7]
  71:RFFTtest.cpp  **** 		}
 449              		.loc 16 71 4 is_stmt 1 view .LVU97
  71:RFFTtest.cpp  **** 		}
 450              		.loc 16 71 31 is_stmt 0 view .LVU98
 451 0074 83ED007A 		vstr.32	s14, [r3]
 452              	.L14:
  73:RFFTtest.cpp  **** 		OUT_R[i] = ((IN_L[i]+IN_R[i]) * mod);
 453              		.loc 16 73 23 discriminator 2 view .LVU99
 454 0078 D4ED007A 		vldr.32	s15, [r4]
  65:RFFTtest.cpp  **** 	{
 455              		.loc 16 65 23 discriminator 2 view .LVU100
 456 007c F445     		cmp	ip, lr
  73:RFFTtest.cpp  **** 		OUT_R[i] = ((IN_L[i]+IN_R[i]) * mod);
 457              		.loc 16 73 23 discriminator 2 view .LVU101
 458 007e 90ED007A 		vldr.32	s14, [r0]
 459 0082 77EE877A 		vadd.f32	s15, s15, s14
  73:RFFTtest.cpp  **** 		OUT_R[i] = ((IN_L[i]+IN_R[i]) * mod);
 460              		.loc 16 73 33 discriminator 2 view .LVU102
 461 0086 67EE887A 		vmul.f32	s15, s15, s16
  73:RFFTtest.cpp  **** 		OUT_R[i] = ((IN_L[i]+IN_R[i]) * mod);
 462              		.loc 16 73 12 discriminator 2 view .LVU103
 463 008a E6EC017A 		vstmia.32	r6!, {s15}
 464              		.loc 16 74 3 is_stmt 1 discriminator 2 view .LVU104
 465              		.loc 16 74 23 is_stmt 0 discriminator 2 view .LVU105
 466 008e F4EC017A 		vldmia.32	r4!, {s15}
 467 0092 B0EC017A 		vldmia.32	r0!, {s14}
 468 0096 77EE877A 		vadd.f32	s15, s15, s14
 469              		.loc 16 74 33 discriminator 2 view .LVU106
 470 009a 67EE887A 		vmul.f32	s15, s15, s16
 471              		.loc 16 74 12 discriminator 2 view .LVU107
 472 009e E5EC017A 		vstmia.32	r5!, {s15}
  65:RFFTtest.cpp  **** 	{
 473              		.loc 16 65 2 is_stmt 1 discriminator 2 view .LVU108
  65:RFFTtest.cpp  **** 	{
 474              		.loc 16 65 23 discriminator 2 view .LVU109
 475 00a2 CFD1     		bne	.L15
 476 00a4 B8F1000F 		cmp	r8, #0
 477 00a8 01D0     		beq	.L10
 478 00aa C9F80020 		str	r2, [r9]
 479              	.L10:
  65:RFFTtest.cpp  **** 	{
 480              		.loc 16 65 23 is_stmt 0 discriminator 2 view .LVU110
 481              	.LBE607:
  75:RFFTtest.cpp  **** 	}
ARM GAS  /var/folders/hl/qgbwny5j0fd895c2c41bk3tw0000gp/T//cc804SGY.s 			page 34


  76:RFFTtest.cpp  **** }
 482              		.loc 16 76 1 view .LVU111
 483 00ae BDEC028B 		vldm	sp!, {d8}
 484              		.cfi_restore 80
 485              		.cfi_restore 81
 486              		.cfi_def_cfa_offset 32
 487              	.LVL23:
 488              		.loc 16 76 1 view .LVU112
 489 00b2 BDE8F883 		pop	{r3, r4, r5, r6, r7, r8, r9, pc}
 490              	.L23:
 491 00b6 00BF     		.align	2
 492              	.L22:
 493 00b8 00000000 		.word	.LANCHOR0
 494 00bc 00000000 		.word	testInput
 495 00c0 00000000 		.word	0
 496 00c4 00000000 		.word	.LANCHOR1
 497              		.cfi_endproc
 498              	.LFE4858:
 500              		.section	.text._ZN5daisy25OneBitGraphicsDisplayImplINS_11OledDisplayINS_13SSD130xDriverILj128ELj64
 501              		.align	1
 502              		.p2align 2,,3
 503              		.weak	_ZN5daisy25OneBitGraphicsDisplayImplINS_11OledDisplayINS_13SSD130xDriverILj128ELj64ENS_19SSD
 504              		.syntax unified
 505              		.thumb
 506              		.thumb_func
 507              		.fpu fpv5-d16
 509              	_ZN5daisy25OneBitGraphicsDisplayImplINS_11OledDisplayINS_13SSD130xDriverILj128ELj64ENS_19SSD130xI2C
 510              	.LVL24:
 511              	.LFB5311:
 220:../../libDaisy//src/hid/disp/display.h **** 
 221:../../libDaisy//src/hid/disp/display.h ****     void DrawLine(uint_fast8_t x1,
 222:../../libDaisy//src/hid/disp/display.h ****                   uint_fast8_t y1,
 223:../../libDaisy//src/hid/disp/display.h ****                   uint_fast8_t x2,
 224:../../libDaisy//src/hid/disp/display.h ****                   uint_fast8_t y2,
 225:../../libDaisy//src/hid/disp/display.h ****                   bool         on) override
 226:../../libDaisy//src/hid/disp/display.h ****     {
 227:../../libDaisy//src/hid/disp/display.h ****         int_fast16_t deltaX = abs((int_fast16_t)x2 - (int_fast16_t)x1);
 228:../../libDaisy//src/hid/disp/display.h ****         int_fast16_t deltaY = abs((int_fast16_t)y2 - (int_fast16_t)y1);
 229:../../libDaisy//src/hid/disp/display.h ****         int_fast16_t signX  = ((x1 < x2) ? 1 : -1);
 230:../../libDaisy//src/hid/disp/display.h ****         int_fast16_t signY  = ((y1 < y2) ? 1 : -1);
 231:../../libDaisy//src/hid/disp/display.h ****         int_fast16_t error  = deltaX - deltaY;
 232:../../libDaisy//src/hid/disp/display.h ****         int_fast16_t error2;
 233:../../libDaisy//src/hid/disp/display.h **** 
 234:../../libDaisy//src/hid/disp/display.h ****         // If we write "ChildType::DrawPixel(x2, y2, on);", we end up with
 235:../../libDaisy//src/hid/disp/display.h ****         // all sorts of weird compiler errors when the Child class is a template
 236:../../libDaisy//src/hid/disp/display.h ****         // class. The only way around this is to use this very verbose syntax:
 237:../../libDaisy//src/hid/disp/display.h ****         ((ChildType*)(this))->ChildType::DrawPixel(x2, y2, on);
 238:../../libDaisy//src/hid/disp/display.h **** 
 239:../../libDaisy//src/hid/disp/display.h ****         while((x1 != x2) || (y1 != y2))
 240:../../libDaisy//src/hid/disp/display.h ****         {
 241:../../libDaisy//src/hid/disp/display.h ****             ((ChildType*)(this))->ChildType::DrawPixel(x1, y1, on);
 242:../../libDaisy//src/hid/disp/display.h ****             error2 = error * 2;
 243:../../libDaisy//src/hid/disp/display.h ****             if(error2 > -deltaY)
 244:../../libDaisy//src/hid/disp/display.h ****             {
 245:../../libDaisy//src/hid/disp/display.h ****                 error -= deltaY;
 246:../../libDaisy//src/hid/disp/display.h ****                 x1 += signX;
 247:../../libDaisy//src/hid/disp/display.h ****             }
ARM GAS  /var/folders/hl/qgbwny5j0fd895c2c41bk3tw0000gp/T//cc804SGY.s 			page 35


 248:../../libDaisy//src/hid/disp/display.h **** 
 249:../../libDaisy//src/hid/disp/display.h ****             if(error2 < deltaX)
 250:../../libDaisy//src/hid/disp/display.h ****             {
 251:../../libDaisy//src/hid/disp/display.h ****                 error += deltaX;
 252:../../libDaisy//src/hid/disp/display.h ****                 y1 += signY;
 253:../../libDaisy//src/hid/disp/display.h ****             }
 254:../../libDaisy//src/hid/disp/display.h ****         }
 255:../../libDaisy//src/hid/disp/display.h ****     }
 256:../../libDaisy//src/hid/disp/display.h **** 
 257:../../libDaisy//src/hid/disp/display.h ****     void DrawRect(uint_fast8_t x1,
 258:../../libDaisy//src/hid/disp/display.h ****                   uint_fast8_t y1,
 259:../../libDaisy//src/hid/disp/display.h ****                   uint_fast8_t x2,
 260:../../libDaisy//src/hid/disp/display.h ****                   uint_fast8_t y2,
 261:../../libDaisy//src/hid/disp/display.h ****                   bool         on,
 262:../../libDaisy//src/hid/disp/display.h ****                   bool         fill = false) override
 263:../../libDaisy//src/hid/disp/display.h ****     {
 264:../../libDaisy//src/hid/disp/display.h ****         if(fill)
 265:../../libDaisy//src/hid/disp/display.h ****         {
 266:../../libDaisy//src/hid/disp/display.h ****             for(uint_fast8_t x = x1; x <= x2; x++)
 267:../../libDaisy//src/hid/disp/display.h ****             {
 268:../../libDaisy//src/hid/disp/display.h ****                 for(uint_fast8_t y = y1; y <= y2; y++)
 269:../../libDaisy//src/hid/disp/display.h ****                 {
 270:../../libDaisy//src/hid/disp/display.h ****                     ((ChildType*)(this))->ChildType::DrawPixel(x, y, on);
 271:../../libDaisy//src/hid/disp/display.h ****                 }
 272:../../libDaisy//src/hid/disp/display.h ****             }
 273:../../libDaisy//src/hid/disp/display.h ****         }
 274:../../libDaisy//src/hid/disp/display.h ****         else
 275:../../libDaisy//src/hid/disp/display.h ****         {
 276:../../libDaisy//src/hid/disp/display.h ****             ((ChildType*)(this))->ChildType::DrawLine(x1, y1, x2, y1, on);
 277:../../libDaisy//src/hid/disp/display.h ****             ((ChildType*)(this))->ChildType::DrawLine(x2, y1, x2, y2, on);
 278:../../libDaisy//src/hid/disp/display.h ****             ((ChildType*)(this))->ChildType::DrawLine(x2, y2, x1, y2, on);
 279:../../libDaisy//src/hid/disp/display.h ****             ((ChildType*)(this))->ChildType::DrawLine(x1, y2, x1, y1, on);
 280:../../libDaisy//src/hid/disp/display.h ****         }
 281:../../libDaisy//src/hid/disp/display.h ****     }
 282:../../libDaisy//src/hid/disp/display.h **** 
 283:../../libDaisy//src/hid/disp/display.h ****     void DrawArc(uint_fast8_t x,
 284:../../libDaisy//src/hid/disp/display.h ****                  uint_fast8_t y,
 285:../../libDaisy//src/hid/disp/display.h ****                  uint_fast8_t radius,
 286:../../libDaisy//src/hid/disp/display.h ****                  int_fast16_t start_angle,
 287:../../libDaisy//src/hid/disp/display.h ****                  int_fast16_t sweep,
 288:../../libDaisy//src/hid/disp/display.h ****                  bool         on) override
 289:../../libDaisy//src/hid/disp/display.h ****     {
 290:../../libDaisy//src/hid/disp/display.h ****         // Values to calculate the circle
 291:../../libDaisy//src/hid/disp/display.h ****         int_fast16_t t_x, t_y, err, e2;
 292:../../libDaisy//src/hid/disp/display.h **** 
 293:../../libDaisy//src/hid/disp/display.h ****         // Temporary values to speed up comparisons
 294:../../libDaisy//src/hid/disp/display.h ****         float t_sxy, t_syx, t_sxny, t_synx;
 295:../../libDaisy//src/hid/disp/display.h ****         float t_exy, t_eyx, t_exny, t_eynx;
 296:../../libDaisy//src/hid/disp/display.h **** 
 297:../../libDaisy//src/hid/disp/display.h ****         float start_angle_rad, end_angle_rad;
 298:../../libDaisy//src/hid/disp/display.h ****         float start_x, start_y, end_x, end_y;
 299:../../libDaisy//src/hid/disp/display.h **** 
 300:../../libDaisy//src/hid/disp/display.h ****         bool d1, d2, d3, d4;
 301:../../libDaisy//src/hid/disp/display.h **** 
 302:../../libDaisy//src/hid/disp/display.h ****         d1 = d2 = d3 = d4 = true;
 303:../../libDaisy//src/hid/disp/display.h **** 
 304:../../libDaisy//src/hid/disp/display.h ****         bool circle = false;
ARM GAS  /var/folders/hl/qgbwny5j0fd895c2c41bk3tw0000gp/T//cc804SGY.s 			page 36


 305:../../libDaisy//src/hid/disp/display.h **** 
 306:../../libDaisy//src/hid/disp/display.h ****         if(sweep < 0)
 307:../../libDaisy//src/hid/disp/display.h ****         {
 308:../../libDaisy//src/hid/disp/display.h ****             start_angle += sweep;
 309:../../libDaisy//src/hid/disp/display.h ****             sweep = -sweep;
 310:../../libDaisy//src/hid/disp/display.h ****         }
 311:../../libDaisy//src/hid/disp/display.h **** 
 312:../../libDaisy//src/hid/disp/display.h ****         start_angle_rad = deg2rad(start_angle);
 313:../../libDaisy//src/hid/disp/display.h ****         end_angle_rad   = deg2rad(start_angle + sweep);
 314:../../libDaisy//src/hid/disp/display.h **** 
 315:../../libDaisy//src/hid/disp/display.h ****         start_x = cos(start_angle_rad) * radius;
 316:../../libDaisy//src/hid/disp/display.h ****         start_y = -sin(start_angle_rad) * radius;
 317:../../libDaisy//src/hid/disp/display.h ****         end_x   = cos(end_angle_rad) * radius;
 318:../../libDaisy//src/hid/disp/display.h ****         end_y   = -sin(end_angle_rad) * radius;
 319:../../libDaisy//src/hid/disp/display.h **** 
 320:../../libDaisy//src/hid/disp/display.h ****         // Check if start and endpoint are very near
 321:../../libDaisy//src/hid/disp/display.h ****         if((end_x - start_x) * (end_x - start_x)
 322:../../libDaisy//src/hid/disp/display.h ****                + (end_y - start_y) * (end_y - start_y)
 323:../../libDaisy//src/hid/disp/display.h ****            < 2.0f)
 324:../../libDaisy//src/hid/disp/display.h ****         {
 325:../../libDaisy//src/hid/disp/display.h ****             if(sweep > 180)
 326:../../libDaisy//src/hid/disp/display.h ****                 circle = true;
 327:../../libDaisy//src/hid/disp/display.h ****             else
 328:../../libDaisy//src/hid/disp/display.h ****                 // Nothing to draw
 329:../../libDaisy//src/hid/disp/display.h ****                 return;
 330:../../libDaisy//src/hid/disp/display.h ****         }
 331:../../libDaisy//src/hid/disp/display.h **** 
 332:../../libDaisy//src/hid/disp/display.h ****         t_x = -radius;
 333:../../libDaisy//src/hid/disp/display.h ****         t_y = 0;
 334:../../libDaisy//src/hid/disp/display.h ****         err = 2 - 2 * radius;
 335:../../libDaisy//src/hid/disp/display.h **** 
 336:../../libDaisy//src/hid/disp/display.h ****         do
 337:../../libDaisy//src/hid/disp/display.h ****         {
 338:../../libDaisy//src/hid/disp/display.h ****             if(!circle)
 339:../../libDaisy//src/hid/disp/display.h ****             {
 340:../../libDaisy//src/hid/disp/display.h ****                 t_sxy  = start_x * t_y;
 341:../../libDaisy//src/hid/disp/display.h ****                 t_syx  = start_y * t_x;
 342:../../libDaisy//src/hid/disp/display.h ****                 t_sxny = start_x * -t_y;
 343:../../libDaisy//src/hid/disp/display.h ****                 t_synx = start_y * -t_x;
 344:../../libDaisy//src/hid/disp/display.h ****                 t_exy  = end_x * t_y;
 345:../../libDaisy//src/hid/disp/display.h ****                 t_eyx  = end_y * t_x;
 346:../../libDaisy//src/hid/disp/display.h ****                 t_exny = end_x * -t_y;
 347:../../libDaisy//src/hid/disp/display.h ****                 t_eynx = end_y * -t_x;
 348:../../libDaisy//src/hid/disp/display.h **** 
 349:../../libDaisy//src/hid/disp/display.h ****                 if(sweep > 180)
 350:../../libDaisy//src/hid/disp/display.h ****                 {
 351:../../libDaisy//src/hid/disp/display.h ****                     d1 = (t_sxy - t_synx < 0 || t_exy - t_eynx > 0);
 352:../../libDaisy//src/hid/disp/display.h ****                     d2 = (t_sxy - t_syx < 0 || t_exy - t_eyx > 0);
 353:../../libDaisy//src/hid/disp/display.h ****                     d3 = (t_sxny - t_syx < 0 || t_exny - t_eyx > 0);
 354:../../libDaisy//src/hid/disp/display.h ****                     d4 = (t_sxny - t_synx < 0 || t_exny - t_eynx > 0);
 355:../../libDaisy//src/hid/disp/display.h ****                 }
 356:../../libDaisy//src/hid/disp/display.h ****                 else
 357:../../libDaisy//src/hid/disp/display.h ****                 {
 358:../../libDaisy//src/hid/disp/display.h ****                     d1 = (t_sxy - t_synx < 0 && t_exy - t_eynx > 0);
 359:../../libDaisy//src/hid/disp/display.h ****                     d2 = (t_sxy - t_syx < 0 && t_exy - t_eyx > 0);
 360:../../libDaisy//src/hid/disp/display.h ****                     d3 = (t_sxny - t_syx < 0 && t_exny - t_eyx > 0);
 361:../../libDaisy//src/hid/disp/display.h ****                     d4 = (t_sxny - t_synx < 0 && t_exny - t_eynx > 0);
ARM GAS  /var/folders/hl/qgbwny5j0fd895c2c41bk3tw0000gp/T//cc804SGY.s 			page 37


 362:../../libDaisy//src/hid/disp/display.h ****                 }
 363:../../libDaisy//src/hid/disp/display.h ****             }
 364:../../libDaisy//src/hid/disp/display.h **** 
 365:../../libDaisy//src/hid/disp/display.h ****             if(d1)
 366:../../libDaisy//src/hid/disp/display.h ****                 ((ChildType*)(this))
 367:../../libDaisy//src/hid/disp/display.h ****                     ->ChildType::DrawPixel(x - t_x, y + t_y, on);
 368:../../libDaisy//src/hid/disp/display.h ****             if(d2)
 369:../../libDaisy//src/hid/disp/display.h ****                 ((ChildType*)(this))
 370:../../libDaisy//src/hid/disp/display.h ****                     ->ChildType::DrawPixel(x + t_x, y + t_y, on);
 371:../../libDaisy//src/hid/disp/display.h ****             if(d3)
 372:../../libDaisy//src/hid/disp/display.h ****                 ((ChildType*)(this))
 373:../../libDaisy//src/hid/disp/display.h ****                     ->ChildType::DrawPixel(x + t_x, y - t_y, on);
 374:../../libDaisy//src/hid/disp/display.h ****             if(d4)
 375:../../libDaisy//src/hid/disp/display.h ****                 ((ChildType*)(this))
 376:../../libDaisy//src/hid/disp/display.h ****                     ->ChildType::DrawPixel(x - t_x, y - t_y, on);
 377:../../libDaisy//src/hid/disp/display.h **** 
 378:../../libDaisy//src/hid/disp/display.h ****             e2 = err;
 379:../../libDaisy//src/hid/disp/display.h ****             if(e2 <= t_y)
 380:../../libDaisy//src/hid/disp/display.h ****             {
 381:../../libDaisy//src/hid/disp/display.h ****                 t_y++;
 382:../../libDaisy//src/hid/disp/display.h ****                 err = err + (t_y * 2 + 1);
 383:../../libDaisy//src/hid/disp/display.h ****                 if(-t_x == t_y && e2 <= t_x)
 384:../../libDaisy//src/hid/disp/display.h ****                 {
 385:../../libDaisy//src/hid/disp/display.h ****                     e2 = 0;
 386:../../libDaisy//src/hid/disp/display.h ****                 }
 387:../../libDaisy//src/hid/disp/display.h ****             }
 388:../../libDaisy//src/hid/disp/display.h ****             if(e2 > t_x)
 389:../../libDaisy//src/hid/disp/display.h ****             {
 390:../../libDaisy//src/hid/disp/display.h ****                 t_x++;
 391:../../libDaisy//src/hid/disp/display.h ****                 err = err + (t_x * 2 + 1);
 392:../../libDaisy//src/hid/disp/display.h ****             }
 393:../../libDaisy//src/hid/disp/display.h ****         } while(t_x <= 0);
 394:../../libDaisy//src/hid/disp/display.h ****     }
 395:../../libDaisy//src/hid/disp/display.h **** 
 396:../../libDaisy//src/hid/disp/display.h ****     char WriteChar(char ch, FontDef font, bool on) override
 512              		.loc 9 396 10 is_stmt 1 view -0
 513              		.cfi_startproc
 514              		@ args = 4, pretend = 0, frame = 16
 515              		@ frame_needed = 0, uses_anonymous_args = 0
 516              		.loc 9 396 10 is_stmt 0 view .LVU114
 517 0000 2DE9F04F 		push	{r4, r5, r6, r7, r8, r9, r10, fp, lr}
 518              		.cfi_def_cfa_offset 36
 519              		.cfi_offset 4, -36
 520              		.cfi_offset 5, -32
 521              		.cfi_offset 6, -28
 522              		.cfi_offset 7, -24
 523              		.cfi_offset 8, -20
 524              		.cfi_offset 9, -16
 525              		.cfi_offset 10, -12
 526              		.cfi_offset 11, -8
 527              		.cfi_offset 14, -4
 528 0004 85B0     		sub	sp, sp, #20
 529              		.cfi_def_cfa_offset 56
 530              	.LVL25:
 397:../../libDaisy//src/hid/disp/display.h ****     {
 398:../../libDaisy//src/hid/disp/display.h ****         uint32_t i, b, j;
 399:../../libDaisy//src/hid/disp/display.h **** 
ARM GAS  /var/folders/hl/qgbwny5j0fd895c2c41bk3tw0000gp/T//cc804SGY.s 			page 38


 400:../../libDaisy//src/hid/disp/display.h ****         // Check if character is valid
 401:../../libDaisy//src/hid/disp/display.h ****         if(ch < 32 || ch > 126)
 531              		.loc 9 401 20 view .LVU115
 532 0006 A1F12005 		sub	r5, r1, #32
 396:../../libDaisy//src/hid/disp/display.h ****     {
 533              		.loc 9 396 10 view .LVU116
 534 000a 04AC     		add	r4, sp, #16
 535 000c 9DF83870 		ldrb	r7, [sp, #56]	@ zero_extendqisi2
 536 0010 0091     		str	r1, [sp]
 537 0012 04E90C00 		stmdb	r4, {r2, r3}
 538              	.LVL26:
 539              		.loc 9 401 9 view .LVU117
 540 0016 EBB2     		uxtb	r3, r5
 541 0018 5E2B     		cmp	r3, #94
 542 001a 00F29580 		bhi	.L28
 402:../../libDaisy//src/hid/disp/display.h ****             return 0;
 403:../../libDaisy//src/hid/disp/display.h **** 
 404:../../libDaisy//src/hid/disp/display.h ****         // Check remaining space on current line
 405:../../libDaisy//src/hid/disp/display.h ****         if(Width() < (currentX_ + font.FontWidth)
 543              		.loc 9 405 17 view .LVU118
 544 001e 0368     		ldr	r3, [r0]
 545 0020 8046     		mov	r8, r0
 546 0022 5D4A     		ldr	r2, .L63
 547 0024 DB68     		ldr	r3, [r3, #12]
 548 0026 9DF80840 		ldrb	r4, [sp, #8]	@ zero_extendqisi2
 549 002a 9342     		cmp	r3, r2
 550 002c 9DF80960 		ldrb	r6, [sp, #9]	@ zero_extendqisi2
 551 0030 40F09480 		bne	.L55
 552 0034 8020     		movs	r0, #128
 553              	.LVL27:
 554              	.L27:
 555              		.loc 9 405 23 view .LVU119
 556 0036 B8F80430 		ldrh	r3, [r8, #4]
 557              		.loc 9 405 33 view .LVU120
 558 003a 2344     		add	r3, r3, r4
 406:../../libDaisy//src/hid/disp/display.h ****            || Height() < (currentY_ + font.FontHeight))
 559              		.loc 9 406 12 view .LVU121
 560 003c 8342     		cmp	r3, r0
 561 003e 00F38380 		bgt	.L28
 562              		.loc 9 406 21 discriminator 2 view .LVU122
 563 0042 D8F80030 		ldr	r3, [r8]
 564 0046 554A     		ldr	r2, .L63+4
 565 0048 9B68     		ldr	r3, [r3, #8]
 566 004a 9342     		cmp	r3, r2
 567 004c 40F08880 		bne	.L56
 568              		.loc 9 406 21 view .LVU123
 569 0050 4020     		movs	r0, #64
 570              	.L29:
 571              		.loc 9 406 27 discriminator 2 view .LVU124
 572 0052 B8F80620 		ldrh	r2, [r8, #6]
 573              		.loc 9 406 37 discriminator 2 view .LVU125
 574 0056 9319     		adds	r3, r2, r6
 575              		.loc 9 406 27 discriminator 2 view .LVU126
 576 0058 0192     		str	r2, [sp, #4]
 577              		.loc 9 406 12 discriminator 2 view .LVU127
 578 005a 8342     		cmp	r3, r0
 579 005c 74DC     		bgt	.L28
ARM GAS  /var/folders/hl/qgbwny5j0fd895c2c41bk3tw0000gp/T//cc804SGY.s 			page 39


 580              	.LVL28:
 407:../../libDaisy//src/hid/disp/display.h ****         {
 408:../../libDaisy//src/hid/disp/display.h ****             // Not enough space on current line
 409:../../libDaisy//src/hid/disp/display.h ****             return 0;
 410:../../libDaisy//src/hid/disp/display.h ****         }
 411:../../libDaisy//src/hid/disp/display.h **** 
 412:../../libDaisy//src/hid/disp/display.h ****         // Use the font to write
 413:../../libDaisy//src/hid/disp/display.h ****         for(i = 0; i < font.FontHeight; i++)
 581              		.loc 9 413 22 is_stmt 1 view .LVU128
 582 005e 002E     		cmp	r6, #0
 583 0060 00F08980 		beq	.L30
 414:../../libDaisy//src/hid/disp/display.h ****         {
 415:../../libDaisy//src/hid/disp/display.h ****             b = font.data[(ch - 32) * font.FontHeight + i];
 584              		.loc 9 415 37 is_stmt 0 view .LVU129
 585 0064 06FB05F5 		mul	r5, r6, r5
 586 0068 6FF00040 		mvn	r0, #-2147483648
 587              		.loc 9 415 22 view .LVU130
 588 006c 039B     		ldr	r3, [sp, #12]
 589 006e 9646     		mov	lr, r2
 590 0070 2844     		add	r0, r0, r5
 591 0072 2E44     		add	r6, r6, r5
 416:../../libDaisy//src/hid/disp/display.h ****             for(j = 0; j < font.FontWidth; j++)
 417:../../libDaisy//src/hid/disp/display.h ****             {
 418:../../libDaisy//src/hid/disp/display.h ****                 if((b << j) & 0x8000)
 419:../../libDaisy//src/hid/disp/display.h ****                 {
 420:../../libDaisy//src/hid/disp/display.h ****                     ((ChildType*)(this))
 421:../../libDaisy//src/hid/disp/display.h ****                         ->ChildType::DrawPixel(
 422:../../libDaisy//src/hid/disp/display.h ****                             currentX_ + j, (currentY_ + i), on);
 423:../../libDaisy//src/hid/disp/display.h ****                 }
 424:../../libDaisy//src/hid/disp/display.h ****                 else
 425:../../libDaisy//src/hid/disp/display.h ****                 {
 426:../../libDaisy//src/hid/disp/display.h ****                     ((ChildType*)(this))
 427:../../libDaisy//src/hid/disp/display.h ****                         ->ChildType::DrawPixel(
 428:../../libDaisy//src/hid/disp/display.h ****                             currentX_ + j, (currentY_ + i), !on);
 429:../../libDaisy//src/hid/disp/display.h ****                 }
 430:../../libDaisy//src/hid/disp/display.h ****             }
 431:../../libDaisy//src/hid/disp/display.h ****         }
 432:../../libDaisy//src/hid/disp/display.h **** 
 433:../../libDaisy//src/hid/disp/display.h ****         // The current space is now taken
 434:../../libDaisy//src/hid/disp/display.h ****         SetCursor(currentX_ + font.FontWidth, currentY_);
 592              		.loc 9 434 19 view .LVU131
 593 0074 B8F804A0 		ldrh	r10, [r8, #4]
 594 0078 03EB4000 		add	r0, r3, r0, lsl #1
 595 007c 023B     		subs	r3, r3, #2
 596 007e 03EB460B 		add	fp, r3, r6, lsl #1
 597              	.LVL29:
 598              	.L33:
 415:../../libDaisy//src/hid/disp/display.h ****             for(j = 0; j < font.FontWidth; j++)
 599              		.loc 9 415 15 view .LVU132
 600 0082 30F8026F 		ldrh	r6, [r0, #2]!
 601              	.LVL30:
 416:../../libDaisy//src/hid/disp/display.h ****             for(j = 0; j < font.FontWidth; j++)
 602              		.loc 9 416 26 is_stmt 1 view .LVU133
 603 0086 BCB3     		cbz	r4, .L38
 604              	.LBB638:
 605              	.LBB639:
 606              	.LBB640:
ARM GAS  /var/folders/hl/qgbwny5j0fd895c2c41bk3tw0000gp/T//cc804SGY.s 			page 40


 607              	.LBB641:
 608              	.LBB642:
 359:../../libDaisy//src/dev/oled_ssd130x.h ****     }
 609              		.loc 10 359 55 is_stmt 0 view .LVU134
 610 0088 0EF00703 		and	r3, lr, #7
 359:../../libDaisy//src/dev/oled_ssd130x.h ****     }
 611              		.loc 10 359 49 view .LVU135
 612 008c 4FF0010C 		mov	ip, #1
 359:../../libDaisy//src/dev/oled_ssd130x.h ****     }
 613              		.loc 10 359 28 view .LVU136
 614 0090 4FEADE02 		lsr	r2, lr, #3
 615 0094 5146     		mov	r1, r10
 359:../../libDaisy//src/dev/oled_ssd130x.h ****     }
 616              		.loc 10 359 49 view .LVU137
 617 0096 0CFA03FC 		lsl	ip, ip, r3
 618 009a 0AF11003 		add	r3, r10, #16
 359:../../libDaisy//src/dev/oled_ssd130x.h ****     }
 619              		.loc 10 359 42 view .LVU138
 620 009e 4FFA8CFC 		sxtb	ip, ip
 621 00a2 03EBC212 		add	r2, r3, r2, lsl #7
 622              	.LBE642:
 623              	.LBE641:
 624              	.LBE640:
 625              	.LBE639:
 626              	.LBE638:
 416:../../libDaisy//src/hid/disp/display.h ****             for(j = 0; j < font.FontWidth; j++)
 627              		.loc 9 416 19 view .LVU139
 628 00a6 0023     		movs	r3, #0
 629              	.LBB660:
 630              	.LBB655:
 631              	.LBB650:
 632              	.LBB646:
 633              	.LBB643:
 359:../../libDaisy//src/dev/oled_ssd130x.h ****     }
 634              		.loc 10 359 42 view .LVU140
 635 00a8 6FEA0C09 		mvn	r9, ip
 636 00ac 4244     		add	r2, r2, r8
 637 00ae 0EE0     		b	.L39
 638              	.LVL31:
 639              	.L57:
 359:../../libDaisy//src/dev/oled_ssd130x.h ****     }
 640              		.loc 10 359 42 view .LVU141
 641              	.LBE643:
 642              	.LBE646:
 643              	.LBE650:
 644              	.LBE655:
 645              	.LBE660:
 646              	.LBB661:
 647              	.LBI661:
  35:../../libDaisy//src/hid/disp/oled_display.h **** 
  36:../../libDaisy//src/hid/disp/oled_display.h ****     /**
  37:../../libDaisy//src/hid/disp/oled_display.h ****     Sets the pixel at the specified coordinate to be on/off.
  38:../../libDaisy//src/hid/disp/oled_display.h ****     \param x   x Coordinate
  39:../../libDaisy//src/hid/disp/oled_display.h ****     \param y   y coordinate
  40:../../libDaisy//src/hid/disp/oled_display.h ****     \param on  on or off
  41:../../libDaisy//src/hid/disp/oled_display.h ****     */
  42:../../libDaisy//src/hid/disp/oled_display.h ****     void DrawPixel(uint_fast8_t x, uint_fast8_t y, bool on) override
ARM GAS  /var/folders/hl/qgbwny5j0fd895c2c41bk3tw0000gp/T//cc804SGY.s 			page 41


 648              		.loc 8 42 10 is_stmt 1 view .LVU142
 649              	.LBB662:
 650              	.LBI662:
 352:../../libDaisy//src/dev/oled_ssd130x.h ****     {
 651              		.loc 10 352 10 view .LVU143
 652              	.LBB663:
 354:../../libDaisy//src/dev/oled_ssd130x.h ****             return;
 653              		.loc 10 354 9 is_stmt 0 view .LVU144
 654 00b0 7F29     		cmp	r1, #127
 655 00b2 07D8     		bhi	.L35
 656 00b4 BEF13F0F 		cmp	lr, #63
 657 00b8 04D8     		bhi	.L35
 357:../../libDaisy//src/dev/oled_ssd130x.h ****         else
 658              		.loc 10 357 42 view .LVU145
 659 00ba 1578     		ldrb	r5, [r2]	@ zero_extendqisi2
 356:../../libDaisy//src/dev/oled_ssd130x.h ****             buffer_[x + (y / 8) * width] |= (1 << (y % 8));
 660              		.loc 10 356 9 view .LVU146
 661 00bc 9FB1     		cbz	r7, .L37
 662              	.L54:
 356:../../libDaisy//src/dev/oled_ssd130x.h ****             buffer_[x + (y / 8) * width] |= (1 << (y % 8));
 663              		.loc 10 356 9 view .LVU147
 664              	.LBE663:
 665              	.LBE662:
 666              	.LBE661:
 667              	.LBB664:
 668              	.LBB656:
 669              	.LBB651:
 357:../../libDaisy//src/dev/oled_ssd130x.h ****         else
 670              		.loc 10 357 42 view .LVU148
 671 00be 4CEA0505 		orr	r5, ip, r5
 672 00c2 1570     		strb	r5, [r2]
 673              	.L35:
 674              	.LBE651:
 675              	.LBE656:
 676              	.LBE664:
 416:../../libDaisy//src/hid/disp/display.h ****             {
 677              		.loc 9 416 13 is_stmt 1 discriminator 2 view .LVU149
 678 00c4 0133     		adds	r3, r3, #1
 679              	.LVL32:
 416:../../libDaisy//src/hid/disp/display.h ****             {
 680              		.loc 9 416 26 discriminator 2 view .LVU150
 681 00c6 0132     		adds	r2, r2, #1
 682 00c8 0131     		adds	r1, r1, #1
 683 00ca 9C42     		cmp	r4, r3
 684 00cc 14D0     		beq	.L38
 685              	.LVL33:
 686              	.L39:
 418:../../libDaisy//src/hid/disp/display.h ****                 {
 687              		.loc 9 418 23 is_stmt 0 view .LVU151
 688 00ce 06FA03F5 		lsl	r5, r6, r3
 418:../../libDaisy//src/hid/disp/display.h ****                 {
 689              		.loc 9 418 17 view .LVU152
 690 00d2 2D04     		lsls	r5, r5, #16
 691 00d4 ECD4     		bmi	.L57
 692              	.LVL34:
 693              	.LBB665:
 694              	.LBI638:
ARM GAS  /var/folders/hl/qgbwny5j0fd895c2c41bk3tw0000gp/T//cc804SGY.s 			page 42


 695              		.loc 8 42 10 is_stmt 1 view .LVU153
 696              	.LBB657:
 697              	.LBI639:
 352:../../libDaisy//src/dev/oled_ssd130x.h ****     {
 698              		.loc 10 352 10 view .LVU154
 699              	.LBB652:
 354:../../libDaisy//src/dev/oled_ssd130x.h ****             return;
 700              		.loc 10 354 9 is_stmt 0 view .LVU155
 701 00d6 7F29     		cmp	r1, #127
 702 00d8 F4D8     		bhi	.L35
 703 00da BEF13F0F 		cmp	lr, #63
 704 00de F1D8     		bhi	.L35
 357:../../libDaisy//src/dev/oled_ssd130x.h ****         else
 705              		.loc 10 357 42 view .LVU156
 706 00e0 1578     		ldrb	r5, [r2]	@ zero_extendqisi2
 356:../../libDaisy//src/dev/oled_ssd130x.h ****             buffer_[x + (y / 8) * width] |= (1 << (y % 8));
 707              		.loc 10 356 9 view .LVU157
 708 00e2 002F     		cmp	r7, #0
 709 00e4 EBD0     		beq	.L54
 710              	.L37:
 711              	.LVL35:
 712              	.LBB647:
 713              	.LBI641:
 352:../../libDaisy//src/dev/oled_ssd130x.h ****     {
 714              		.loc 10 352 10 is_stmt 1 view .LVU158
 352:../../libDaisy//src/dev/oled_ssd130x.h ****     {
 715              		.loc 10 352 10 is_stmt 0 view .LVU159
 716              	.LBE647:
 717              	.LBE652:
 718              	.LBE657:
 719              	.LBE665:
 416:../../libDaisy//src/hid/disp/display.h ****             {
 720              		.loc 9 416 13 view .LVU160
 721 00e6 0133     		adds	r3, r3, #1
 722              	.LVL36:
 723              	.LBB666:
 724              	.LBB658:
 725              	.LBB653:
 726              	.LBB648:
 727              	.LBB644:
 359:../../libDaisy//src/dev/oled_ssd130x.h ****     }
 728              		.loc 10 359 42 view .LVU161
 729 00e8 09EA0505 		and	r5, r9, r5
 730              	.LBE644:
 731              	.LBE648:
 732              	.LBE653:
 733              	.LBE658:
 734              	.LBE666:
 416:../../libDaisy//src/hid/disp/display.h ****             {
 735              		.loc 9 416 26 view .LVU162
 736 00ec 0132     		adds	r2, r2, #1
 737 00ee 0131     		adds	r1, r1, #1
 738 00f0 9C42     		cmp	r4, r3
 739              	.LBB667:
 740              	.LBB659:
 741              	.LBB654:
 742              	.LBB649:
ARM GAS  /var/folders/hl/qgbwny5j0fd895c2c41bk3tw0000gp/T//cc804SGY.s 			page 43


 743              	.LBB645:
 359:../../libDaisy//src/dev/oled_ssd130x.h ****     }
 744              		.loc 10 359 42 view .LVU163
 745 00f2 02F8015C 		strb	r5, [r2, #-1]
 359:../../libDaisy//src/dev/oled_ssd130x.h ****     }
 746              		.loc 10 359 42 view .LVU164
 747              	.LBE645:
 748              	.LBE649:
 749              	.LBE654:
 750              	.LBE659:
 751              	.LBE667:
 416:../../libDaisy//src/hid/disp/display.h ****             {
 752              		.loc 9 416 13 is_stmt 1 view .LVU165
 753              	.LVL37:
 416:../../libDaisy//src/hid/disp/display.h ****             {
 754              		.loc 9 416 26 view .LVU166
 755 00f6 EAD1     		bne	.L39
 756              	.LVL38:
 757              	.L38:
 413:../../libDaisy//src/hid/disp/display.h ****         {
 758              		.loc 9 413 9 view .LVU167
 413:../../libDaisy//src/hid/disp/display.h ****         {
 759              		.loc 9 413 22 view .LVU168
 760 00f8 5845     		cmp	r0, fp
 761 00fa 0EF1010E 		add	lr, lr, #1
 762 00fe C0D1     		bne	.L33
 763              	.LVL39:
 764              	.L32:
 765              	.LBB668:
 766              	.LBB669:
 173:../../libDaisy//src/hid/disp/display.h ****         currentY_ = (y >= Height()) ? Height() - 1 : y;
 767              		.loc 9 173 33 is_stmt 0 view .LVU169
 768 0100 D8F80030 		ldr	r3, [r8]
 769              	.LBE669:
 770              	.LBE668:
 771              		.loc 9 434 18 view .LVU170
 772 0104 5444     		add	r4, r4, r10
 773 0106 2449     		ldr	r1, .L63
 774              	.LBB675:
 775              	.LBB670:
 173:../../libDaisy//src/hid/disp/display.h ****         currentY_ = (y >= Height()) ? Height() - 1 : y;
 776              		.loc 9 173 33 view .LVU171
 777 0108 DA68     		ldr	r2, [r3, #12]
 778              	.LBE670:
 779              	.LBE675:
 780              		.loc 9 434 18 view .LVU172
 781 010a A4B2     		uxth	r4, r4
 782              	.LVL40:
 783              	.LBB676:
 784              	.LBI668:
 171:../../libDaisy//src/hid/disp/display.h ****     {
 785              		.loc 9 171 10 is_stmt 1 view .LVU173
 786              	.LBB671:
 173:../../libDaisy//src/hid/disp/display.h ****         currentY_ = (y >= Height()) ? Height() - 1 : y;
 787              		.loc 9 173 9 view .LVU174
 788 010c 8A42     		cmp	r2, r1
 789 010e 2DD1     		bne	.L58
ARM GAS  /var/folders/hl/qgbwny5j0fd895c2c41bk3tw0000gp/T//cc804SGY.s 			page 44


 173:../../libDaisy//src/hid/disp/display.h ****         currentY_ = (y >= Height()) ? Height() - 1 : y;
 790              		.loc 9 173 33 is_stmt 0 view .LVU175
 791 0110 8020     		movs	r0, #128
 792              	.L40:
 173:../../libDaisy//src/hid/disp/display.h ****         currentY_ = (y >= Height()) ? Height() - 1 : y;
 793              		.loc 9 173 19 view .LVU176
 794 0112 8442     		cmp	r4, r0
 795 0114 1CD2     		bcs	.L59
 796              	.LVL41:
 797              	.L41:
 174:../../libDaisy//src/hid/disp/display.h ****     }
 798              		.loc 9 174 34 view .LVU177
 799 0116 9B68     		ldr	r3, [r3, #8]
 800 0118 204A     		ldr	r2, .L63+4
 173:../../libDaisy//src/hid/disp/display.h ****         currentY_ = (y >= Height()) ? Height() - 1 : y;
 801              		.loc 9 173 19 view .LVU178
 802 011a A8F80440 		strh	r4, [r8, #4]	@ movhi
 174:../../libDaisy//src/hid/disp/display.h ****     }
 803              		.loc 9 174 9 is_stmt 1 view .LVU179
 804 011e 9342     		cmp	r3, r2
 805 0120 21D1     		bne	.L60
 174:../../libDaisy//src/hid/disp/display.h ****     }
 806              		.loc 9 174 34 is_stmt 0 view .LVU180
 807 0122 4020     		movs	r0, #64
 808              	.L43:
 174:../../libDaisy//src/hid/disp/display.h ****     }
 809              		.loc 9 174 19 view .LVU181
 810 0124 019B     		ldr	r3, [sp, #4]
 811 0126 8342     		cmp	r3, r0
 812 0128 07D3     		bcc	.L44
 174:../../libDaisy//src/hid/disp/display.h ****     }
 813              		.loc 9 174 46 view .LVU182
 814 012a D8F80030 		ldr	r3, [r8]
 815 012e 1B4A     		ldr	r2, .L63+4
 816 0130 9B68     		ldr	r3, [r3, #8]
 817 0132 9342     		cmp	r3, r2
 818 0134 29D1     		bne	.L61
 819 0136 3F23     		movs	r3, #63
 820 0138 0193     		str	r3, [sp, #4]
 821              	.LVL42:
 822              	.L44:
 174:../../libDaisy//src/hid/disp/display.h ****     }
 823              		.loc 9 174 19 view .LVU183
 824 013a DDE90003 		ldrd	r0, r3, [sp]
 825 013e A8F80630 		strh	r3, [r8, #6]	@ movhi
 826              	.LVL43:
 174:../../libDaisy//src/hid/disp/display.h ****     }
 827              		.loc 9 174 19 view .LVU184
 828              	.LBE671:
 829              	.LBE676:
 435:../../libDaisy//src/hid/disp/display.h **** 
 436:../../libDaisy//src/hid/disp/display.h ****         // Return written char for validation
 437:../../libDaisy//src/hid/disp/display.h ****         return ch;
 438:../../libDaisy//src/hid/disp/display.h ****     }
 830              		.loc 9 438 5 view .LVU185
 831 0142 05B0     		add	sp, sp, #20
 832              		.cfi_remember_state
ARM GAS  /var/folders/hl/qgbwny5j0fd895c2c41bk3tw0000gp/T//cc804SGY.s 			page 45


 833              		.cfi_def_cfa_offset 36
 834              		@ sp needed
 835 0144 BDE8F08F 		pop	{r4, r5, r6, r7, r8, r9, r10, fp, pc}
 836              	.LVL44:
 837              	.L28:
 838              		.cfi_restore_state
 402:../../libDaisy//src/hid/disp/display.h **** 
 839              		.loc 9 402 20 view .LVU186
 840 0148 0020     		movs	r0, #0
 841              		.loc 9 438 5 view .LVU187
 842 014a 05B0     		add	sp, sp, #20
 843              		.cfi_remember_state
 844              		.cfi_def_cfa_offset 36
 845              		@ sp needed
 846 014c BDE8F08F 		pop	{r4, r5, r6, r7, r8, r9, r10, fp, pc}
 847              	.LVL45:
 848              	.L59:
 849              		.cfi_restore_state
 850              	.LBB677:
 851              	.LBB672:
 173:../../libDaisy//src/hid/disp/display.h ****         currentY_ = (y >= Height()) ? Height() - 1 : y;
 852              		.loc 9 173 44 view .LVU188
 853 0150 DA68     		ldr	r2, [r3, #12]
 854 0152 1149     		ldr	r1, .L63
 855 0154 8A42     		cmp	r2, r1
 856 0156 11D1     		bne	.L62
 857 0158 7F24     		movs	r4, #127
 858              	.LVL46:
 173:../../libDaisy//src/hid/disp/display.h ****         currentY_ = (y >= Height()) ? Height() - 1 : y;
 859              		.loc 9 173 44 view .LVU189
 860 015a DCE7     		b	.L41
 861              	.LVL47:
 862              	.L55:
 173:../../libDaisy//src/hid/disp/display.h ****         currentY_ = (y >= Height()) ? Height() - 1 : y;
 863              		.loc 9 173 44 view .LVU190
 864              	.LBE672:
 865              	.LBE677:
 405:../../libDaisy//src/hid/disp/display.h ****            || Height() < (currentY_ + font.FontHeight))
 866              		.loc 9 405 17 view .LVU191
 867 015c 9847     		blx	r3
 868              	.LVL48:
 405:../../libDaisy//src/hid/disp/display.h ****            || Height() < (currentY_ + font.FontHeight))
 869              		.loc 9 405 17 view .LVU192
 870 015e 6AE7     		b	.L27
 871              	.L56:
 406:../../libDaisy//src/hid/disp/display.h ****         {
 872              		.loc 9 406 21 discriminator 2 view .LVU193
 873 0160 4046     		mov	r0, r8
 874 0162 9847     		blx	r3
 875              	.LVL49:
 876 0164 75E7     		b	.L29
 877              	.LVL50:
 878              	.L60:
 879              	.LBB678:
 880              	.LBB673:
 174:../../libDaisy//src/hid/disp/display.h ****     }
 881              		.loc 9 174 33 view .LVU194
ARM GAS  /var/folders/hl/qgbwny5j0fd895c2c41bk3tw0000gp/T//cc804SGY.s 			page 46


 882 0166 4046     		mov	r0, r8
 883 0168 9847     		blx	r3
 884              	.LVL51:
 885 016a DBE7     		b	.L43
 886              	.LVL52:
 887              	.L58:
 173:../../libDaisy//src/hid/disp/display.h ****         currentY_ = (y >= Height()) ? Height() - 1 : y;
 888              		.loc 9 173 32 view .LVU195
 889 016c 4046     		mov	r0, r8
 890 016e 9047     		blx	r2
 891              	.LVL53:
 173:../../libDaisy//src/hid/disp/display.h ****         currentY_ = (y >= Height()) ? Height() - 1 : y;
 892              		.loc 9 173 44 view .LVU196
 893 0170 D8F80030 		ldr	r3, [r8]
 894 0174 CDE7     		b	.L40
 895              	.LVL54:
 896              	.L30:
 173:../../libDaisy//src/hid/disp/display.h ****         currentY_ = (y >= Height()) ? Height() - 1 : y;
 897              		.loc 9 173 44 view .LVU197
 898              	.LBE673:
 899              	.LBE678:
 434:../../libDaisy//src/hid/disp/display.h **** 
 900              		.loc 9 434 19 view .LVU198
 901 0176 B8F804A0 		ldrh	r10, [r8, #4]
 902 017a C1E7     		b	.L32
 903              	.LVL55:
 904              	.L62:
 905              	.LBB679:
 906              	.LBB674:
 173:../../libDaisy//src/hid/disp/display.h ****         currentY_ = (y >= Height()) ? Height() - 1 : y;
 907              		.loc 9 173 43 view .LVU199
 908 017c 4046     		mov	r0, r8
 909 017e 9047     		blx	r2
 910              	.LVL56:
 173:../../libDaisy//src/hid/disp/display.h ****         currentY_ = (y >= Height()) ? Height() - 1 : y;
 911              		.loc 9 173 19 view .LVU200
 912 0180 0138     		subs	r0, r0, #1
 174:../../libDaisy//src/hid/disp/display.h ****     }
 913              		.loc 9 174 34 view .LVU201
 914 0182 D8F80030 		ldr	r3, [r8]
 173:../../libDaisy//src/hid/disp/display.h ****         currentY_ = (y >= Height()) ? Height() - 1 : y;
 915              		.loc 9 173 19 view .LVU202
 916 0186 84B2     		uxth	r4, r0
 917              	.LVL57:
 173:../../libDaisy//src/hid/disp/display.h ****         currentY_ = (y >= Height()) ? Height() - 1 : y;
 918              		.loc 9 173 19 view .LVU203
 919 0188 C5E7     		b	.L41
 920              	.L61:
 174:../../libDaisy//src/hid/disp/display.h ****     }
 921              		.loc 9 174 45 view .LVU204
 922 018a 4046     		mov	r0, r8
 923 018c 9847     		blx	r3
 924              	.LVL58:
 174:../../libDaisy//src/hid/disp/display.h ****     }
 925              		.loc 9 174 19 view .LVU205
 926 018e 0138     		subs	r0, r0, #1
 927 0190 83B2     		uxth	r3, r0
ARM GAS  /var/folders/hl/qgbwny5j0fd895c2c41bk3tw0000gp/T//cc804SGY.s 			page 47


 928 0192 0193     		str	r3, [sp, #4]
 929              	.LVL59:
 174:../../libDaisy//src/hid/disp/display.h ****     }
 930              		.loc 9 174 19 view .LVU206
 931 0194 D1E7     		b	.L44
 932              	.L64:
 933 0196 00BF     		.align	2
 934              	.L63:
 935 0198 00000000 		.word	_ZNK5daisy11OledDisplayINS_13SSD130xDriverILj128ELj64ENS_19SSD130xI2CTransportEEEE5WidthEv
 936 019c 00000000 		.word	_ZNK5daisy11OledDisplayINS_13SSD130xDriverILj128ELj64ENS_19SSD130xI2CTransportEEEE6HeightEv
 937              	.LBE674:
 938              	.LBE679:
 939              		.cfi_endproc
 940              	.LFE5311:
 942              		.section	.text._ZN5daisy11OledDisplayINS_13SSD130xDriverILj128ELj64ENS_19SSD130xI2CTransportEEEE6U
 943              		.align	1
 944              		.p2align 2,,3
 945              		.weak	_ZN5daisy11OledDisplayINS_13SSD130xDriverILj128ELj64ENS_19SSD130xI2CTransportEEEE6UpdateEv
 946              		.syntax unified
 947              		.thumb
 948              		.thumb_func
 949              		.fpu fpv5-d16
 951              	_ZN5daisy11OledDisplayINS_13SSD130xDriverILj128ELj64ENS_19SSD130xI2CTransportEEEE6UpdateEv:
 952              	.LVL60:
 953              	.LFB5182:
  43:../../libDaisy//src/hid/disp/oled_display.h ****     {
  44:../../libDaisy//src/hid/disp/oled_display.h ****         driver_.DrawPixel(x, y, on);
  45:../../libDaisy//src/hid/disp/oled_display.h ****     }
  46:../../libDaisy//src/hid/disp/oled_display.h **** 
  47:../../libDaisy//src/hid/disp/oled_display.h ****     /** 
  48:../../libDaisy//src/hid/disp/oled_display.h ****     Writes the current display buffer to the OLED device using SPI or I2C depending on 
  49:../../libDaisy//src/hid/disp/oled_display.h ****     how the object was initialized.
  50:../../libDaisy//src/hid/disp/oled_display.h ****     */
  51:../../libDaisy//src/hid/disp/oled_display.h ****     void Update() override { driver_.Update(); }
 954              		.loc 8 51 10 is_stmt 1 view -0
 955              		.cfi_startproc
 956              		@ args = 0, pretend = 0, frame = 8
 957              		@ frame_needed = 0, uses_anonymous_args = 0
 958              		.loc 8 51 10 is_stmt 0 view .LVU208
 959 0000 2DE9F04F 		push	{r4, r5, r6, r7, r8, r9, r10, fp, lr}
 960              		.cfi_def_cfa_offset 36
 961              		.cfi_offset 4, -36
 962              		.cfi_offset 5, -32
 963              		.cfi_offset 6, -28
 964              		.cfi_offset 7, -24
 965              		.cfi_offset 8, -20
 966              		.cfi_offset 9, -16
 967              		.cfi_offset 10, -12
 968              		.cfi_offset 11, -8
 969              		.cfi_offset 14, -4
 970              	.LBB692:
 971              	.LBB693:
 972              	.LBB694:
 973              	.LBB695:
  45:../../libDaisy//src/dev/oled_ssd130x.h ****     };
 974              		.loc 10 45 30 view .LVU209
 975 0004 4FF0B008 		mov	r8, #176
ARM GAS  /var/folders/hl/qgbwny5j0fd895c2c41bk3tw0000gp/T//cc804SGY.s 			page 48


 976              	.LBE695:
 977              	.LBE694:
 978              	.LBE693:
 979              	.LBE692:
 980              		.loc 8 51 10 view .LVU210
 981 0008 85B0     		sub	sp, sp, #20
 982              		.cfi_def_cfa_offset 56
 983              		.loc 8 51 10 view .LVU211
 984 000a 0546     		mov	r5, r0
 985              	.LVL61:
 986              	.LBB707:
 987              	.LBI692:
 367:../../libDaisy//src/dev/oled_ssd130x.h ****         }
 368:../../libDaisy//src/dev/oled_ssd130x.h ****     };
 369:../../libDaisy//src/dev/oled_ssd130x.h **** 
 370:../../libDaisy//src/dev/oled_ssd130x.h ****     /**
 371:../../libDaisy//src/dev/oled_ssd130x.h ****      * Update the display 
 372:../../libDaisy//src/dev/oled_ssd130x.h ****     */
 373:../../libDaisy//src/dev/oled_ssd130x.h ****     void Update()
 988              		.loc 10 373 10 is_stmt 1 view .LVU212
 989              	.LBB706:
 374:../../libDaisy//src/dev/oled_ssd130x.h ****     {
 375:../../libDaisy//src/dev/oled_ssd130x.h ****         uint8_t i;
 376:../../libDaisy//src/dev/oled_ssd130x.h ****         uint8_t high_column_addr;
 377:../../libDaisy//src/dev/oled_ssd130x.h ****         switch(height)
 378:../../libDaisy//src/dev/oled_ssd130x.h ****         {
 379:../../libDaisy//src/dev/oled_ssd130x.h ****             case 32: high_column_addr = 0x12; break;
 380:../../libDaisy//src/dev/oled_ssd130x.h **** 
 381:../../libDaisy//src/dev/oled_ssd130x.h ****             default: high_column_addr = 0x10; break;
 382:../../libDaisy//src/dev/oled_ssd130x.h ****         }
 383:../../libDaisy//src/dev/oled_ssd130x.h ****         for(i = 0; i < (height / 8); i++)
 990              		.loc 10 383 22 view .LVU213
 991              	.LBB698:
 992              	.LBB696:
  45:../../libDaisy//src/dev/oled_ssd130x.h ****     };
 993              		.loc 10 45 30 is_stmt 0 view .LVU214
 994 000c 00F10807 		add	r7, r0, #8
 995              	.LVL62:
  45:../../libDaisy//src/dev/oled_ssd130x.h ****     };
 996              		.loc 10 45 30 view .LVU215
 997 0010 00F18F06 		add	r6, r0, #143
 998 0014 00F28F49 		addw	r9, r0, #1167
 999              	.LVL63:
 1000              	.L67:
  45:../../libDaisy//src/dev/oled_ssd130x.h ****     };
 1001              		.loc 10 45 30 view .LVU216
 1002              	.LBE696:
 1003              	.LBI694:
  42:../../libDaisy//src/dev/oled_ssd130x.h ****     {
 1004              		.loc 10 42 10 is_stmt 1 view .LVU217
 1005              	.LBB697:
  44:../../libDaisy//src/dev/oled_ssd130x.h ****         i2c_.TransmitBlocking(i2c_address_, buf, 2, 1000);
 1006              		.loc 10 44 9 view .LVU218
  45:../../libDaisy//src/dev/oled_ssd130x.h ****     };
 1007              		.loc 10 45 30 is_stmt 0 view .LVU219
 1008 0018 4FF47A7B 		mov	fp, #1000
  44:../../libDaisy//src/dev/oled_ssd130x.h ****         i2c_.TransmitBlocking(i2c_address_, buf, 2, 1000);
ARM GAS  /var/folders/hl/qgbwny5j0fd895c2c41bk3tw0000gp/T//cc804SGY.s 			page 49


 1009              		.loc 10 44 17 view .LVU220
 1010 001c 4FF0000A 		mov	r10, #0
  45:../../libDaisy//src/dev/oled_ssd130x.h ****     };
 1011              		.loc 10 45 30 view .LVU221
 1012 0020 297B     		ldrb	r1, [r5, #12]	@ zero_extendqisi2
 1013 0022 0223     		movs	r3, #2
 1014 0024 03AA     		add	r2, sp, #12
 1015 0026 3846     		mov	r0, r7
 1016 0028 CDF800B0 		str	fp, [sp]
 1017 002c A6F18004 		sub	r4, r6, #128
  44:../../libDaisy//src/dev/oled_ssd130x.h ****         i2c_.TransmitBlocking(i2c_address_, buf, 2, 1000);
 1018              		.loc 10 44 17 view .LVU222
 1019 0030 8DF80CA0 		strb	r10, [sp, #12]
  44:../../libDaisy//src/dev/oled_ssd130x.h ****         i2c_.TransmitBlocking(i2c_address_, buf, 2, 1000);
 1020              		.loc 10 44 36 view .LVU223
 1021 0034 8DF80D80 		strb	r8, [sp, #13]
  45:../../libDaisy//src/dev/oled_ssd130x.h ****     };
 1022              		.loc 10 45 9 is_stmt 1 view .LVU224
  45:../../libDaisy//src/dev/oled_ssd130x.h ****     };
 1023              		.loc 10 45 30 is_stmt 0 view .LVU225
 1024 0038 FFF7FEFF 		bl	_ZN5daisy9I2CHandle16TransmitBlockingEtPhtm
 1025              	.LVL64:
  45:../../libDaisy//src/dev/oled_ssd130x.h ****     };
 1026              		.loc 10 45 30 view .LVU226
 1027              	.LBE697:
 1028              	.LBE698:
 1029              	.LBB699:
 1030              	.LBI699:
  42:../../libDaisy//src/dev/oled_ssd130x.h ****     {
 1031              		.loc 10 42 10 is_stmt 1 view .LVU227
 1032              	.LBB700:
  44:../../libDaisy//src/dev/oled_ssd130x.h ****         i2c_.TransmitBlocking(i2c_address_, buf, 2, 1000);
 1033              		.loc 10 44 9 view .LVU228
  45:../../libDaisy//src/dev/oled_ssd130x.h ****     };
 1034              		.loc 10 45 30 is_stmt 0 view .LVU229
 1035 003c 297B     		ldrb	r1, [r5, #12]	@ zero_extendqisi2
 1036 003e 0223     		movs	r3, #2
 1037 0040 03AA     		add	r2, sp, #12
 1038 0042 3846     		mov	r0, r7
 1039 0044 CDF800B0 		str	fp, [sp]
  44:../../libDaisy//src/dev/oled_ssd130x.h ****         i2c_.TransmitBlocking(i2c_address_, buf, 2, 1000);
 1040              		.loc 10 44 17 view .LVU230
 1041 0048 8DF80CA0 		strb	r10, [sp, #12]
  44:../../libDaisy//src/dev/oled_ssd130x.h ****         i2c_.TransmitBlocking(i2c_address_, buf, 2, 1000);
 1042              		.loc 10 44 36 view .LVU231
 1043 004c 8DF80DA0 		strb	r10, [sp, #13]
  45:../../libDaisy//src/dev/oled_ssd130x.h ****     };
 1044              		.loc 10 45 9 is_stmt 1 view .LVU232
  45:../../libDaisy//src/dev/oled_ssd130x.h ****     };
 1045              		.loc 10 45 30 is_stmt 0 view .LVU233
 1046 0050 FFF7FEFF 		bl	_ZN5daisy9I2CHandle16TransmitBlockingEtPhtm
 1047              	.LVL65:
  45:../../libDaisy//src/dev/oled_ssd130x.h ****     };
 1048              		.loc 10 45 30 view .LVU234
 1049              	.LBE700:
 1050              	.LBE699:
 1051              	.LBB701:
ARM GAS  /var/folders/hl/qgbwny5j0fd895c2c41bk3tw0000gp/T//cc804SGY.s 			page 50


 1052              	.LBI701:
  42:../../libDaisy//src/dev/oled_ssd130x.h ****     {
 1053              		.loc 10 42 10 is_stmt 1 view .LVU235
 1054              	.LBB702:
  44:../../libDaisy//src/dev/oled_ssd130x.h ****         i2c_.TransmitBlocking(i2c_address_, buf, 2, 1000);
 1055              		.loc 10 44 9 view .LVU236
  44:../../libDaisy//src/dev/oled_ssd130x.h ****         i2c_.TransmitBlocking(i2c_address_, buf, 2, 1000);
 1056              		.loc 10 44 36 is_stmt 0 view .LVU237
 1057 0054 4FF0100C 		mov	ip, #16
  45:../../libDaisy//src/dev/oled_ssd130x.h ****     };
 1058              		.loc 10 45 30 view .LVU238
 1059 0058 297B     		ldrb	r1, [r5, #12]	@ zero_extendqisi2
 1060 005a 0223     		movs	r3, #2
 1061 005c 03AA     		add	r2, sp, #12
 1062 005e 3846     		mov	r0, r7
 1063 0060 CDF800B0 		str	fp, [sp]
  44:../../libDaisy//src/dev/oled_ssd130x.h ****         i2c_.TransmitBlocking(i2c_address_, buf, 2, 1000);
 1064              		.loc 10 44 17 view .LVU239
 1065 0064 8DF80CA0 		strb	r10, [sp, #12]
  44:../../libDaisy//src/dev/oled_ssd130x.h ****         i2c_.TransmitBlocking(i2c_address_, buf, 2, 1000);
 1066              		.loc 10 44 36 view .LVU240
 1067 0068 8DF80DC0 		strb	ip, [sp, #13]
  45:../../libDaisy//src/dev/oled_ssd130x.h ****     };
 1068              		.loc 10 45 9 is_stmt 1 view .LVU241
  45:../../libDaisy//src/dev/oled_ssd130x.h ****     };
 1069              		.loc 10 45 30 is_stmt 0 view .LVU242
 1070 006c FFF7FEFF 		bl	_ZN5daisy9I2CHandle16TransmitBlockingEtPhtm
 1071              	.LVL66:
  45:../../libDaisy//src/dev/oled_ssd130x.h ****     };
 1072              		.loc 10 45 30 view .LVU243
 1073              	.LBE702:
 1074              	.LBE701:
 1075              	.LBB703:
 1076              	.LBI703:
  48:../../libDaisy//src/dev/oled_ssd130x.h ****     {
 1077              		.loc 10 48 10 is_stmt 1 view .LVU244
 1078              	.LBB704:
  50:../../libDaisy//src/dev/oled_ssd130x.h ****         {
 1079              		.loc 10 50 29 view .LVU245
 1080              	.L66:
 1081              	.LBB705:
  52:../../libDaisy//src/dev/oled_ssd130x.h ****             i2c_.TransmitBlocking(i2c_address_, buf, 2, 1000);
 1082              		.loc 10 52 13 view .LVU246
  53:../../libDaisy//src/dev/oled_ssd130x.h ****         }
 1083              		.loc 10 53 34 is_stmt 0 view .LVU247
 1084 0070 4FF47A70 		mov	r0, #1000
  52:../../libDaisy//src/dev/oled_ssd130x.h ****             i2c_.TransmitBlocking(i2c_address_, buf, 2, 1000);
 1085              		.loc 10 52 44 view .LVU248
 1086 0074 14F801CF 		ldrb	ip, [r4, #1]!	@ zero_extendqisi2
 1087              	.LVL67:
  52:../../libDaisy//src/dev/oled_ssd130x.h ****             i2c_.TransmitBlocking(i2c_address_, buf, 2, 1000);
 1088              		.loc 10 52 21 view .LVU249
 1089 0078 4FF0400E 		mov	lr, #64
  53:../../libDaisy//src/dev/oled_ssd130x.h ****         }
 1090              		.loc 10 53 34 view .LVU250
 1091 007c 297B     		ldrb	r1, [r5, #12]	@ zero_extendqisi2
 1092 007e 0223     		movs	r3, #2
ARM GAS  /var/folders/hl/qgbwny5j0fd895c2c41bk3tw0000gp/T//cc804SGY.s 			page 51


 1093 0080 0090     		str	r0, [sp]
 1094 0082 03AA     		add	r2, sp, #12
 1095 0084 3846     		mov	r0, r7
  52:../../libDaisy//src/dev/oled_ssd130x.h ****             i2c_.TransmitBlocking(i2c_address_, buf, 2, 1000);
 1096              		.loc 10 52 21 view .LVU251
 1097 0086 8DF80CE0 		strb	lr, [sp, #12]
  52:../../libDaisy//src/dev/oled_ssd130x.h ****             i2c_.TransmitBlocking(i2c_address_, buf, 2, 1000);
 1098              		.loc 10 52 44 view .LVU252
 1099 008a 8DF80DC0 		strb	ip, [sp, #13]
  53:../../libDaisy//src/dev/oled_ssd130x.h ****         }
 1100              		.loc 10 53 13 is_stmt 1 view .LVU253
  53:../../libDaisy//src/dev/oled_ssd130x.h ****         }
 1101              		.loc 10 53 34 is_stmt 0 view .LVU254
 1102 008e FFF7FEFF 		bl	_ZN5daisy9I2CHandle16TransmitBlockingEtPhtm
 1103              	.LVL68:
 1104              	.LBE705:
  50:../../libDaisy//src/dev/oled_ssd130x.h ****         {
 1105              		.loc 10 50 9 is_stmt 1 view .LVU255
  50:../../libDaisy//src/dev/oled_ssd130x.h ****         {
 1106              		.loc 10 50 29 view .LVU256
 1107 0092 B442     		cmp	r4, r6
 1108 0094 ECD1     		bne	.L66
 1109              	.LVL69:
  50:../../libDaisy//src/dev/oled_ssd130x.h ****         {
 1110              		.loc 10 50 29 is_stmt 0 view .LVU257
 1111              	.LBE704:
 1112              	.LBE703:
 1113              		.loc 10 383 9 is_stmt 1 view .LVU258
 1114              		.loc 10 383 22 view .LVU259
 1115 0096 04F18006 		add	r6, r4, #128
 1116 009a 08F10108 		add	r8, r8, #1
 1117              	.LVL70:
 1118              		.loc 10 383 22 is_stmt 0 view .LVU260
 1119 009e 4E45     		cmp	r6, r9
 1120 00a0 5FFA88F8 		uxtb	r8, r8
 1121 00a4 B8D1     		bne	.L67
 1122              	.LBE706:
 1123              	.LBE707:
 1124              		.loc 8 51 48 view .LVU261
 1125 00a6 05B0     		add	sp, sp, #20
 1126              		.cfi_def_cfa_offset 36
 1127              		@ sp needed
 1128 00a8 BDE8F08F 		pop	{r4, r5, r6, r7, r8, r9, r10, fp, pc}
 1129              		.loc 8 51 48 view .LVU262
 1130              		.cfi_endproc
 1131              	.LFE5182:
 1133              		.section	.text._ZN5daisy25OneBitGraphicsDisplayImplINS_11OledDisplayINS_13SSD130xDriverILj128ELj64
 1134              		.align	1
 1135              		.p2align 2,,3
 1136              		.weak	_ZN5daisy25OneBitGraphicsDisplayImplINS_11OledDisplayINS_13SSD130xDriverILj128ELj64ENS_19SSD
 1137              		.syntax unified
 1138              		.thumb
 1139              		.thumb_func
 1140              		.fpu fpv5-d16
 1142              	_ZN5daisy25OneBitGraphicsDisplayImplINS_11OledDisplayINS_13SSD130xDriverILj128ELj64ENS_19SSD130xI2C
 1143              	.LVL71:
 1144              	.LFB5181:
ARM GAS  /var/folders/hl/qgbwny5j0fd895c2c41bk3tw0000gp/T//cc804SGY.s 			page 52


 439:../../libDaisy//src/hid/disp/display.h **** 
 440:../../libDaisy//src/hid/disp/display.h ****     char WriteString(const char* str, FontDef font, bool on) override
 1145              		.loc 9 440 10 is_stmt 1 view -0
 1146              		.cfi_startproc
 1147              		@ args = 4, pretend = 0, frame = 32
 1148              		@ frame_needed = 0, uses_anonymous_args = 0
 1149              		.loc 9 440 10 is_stmt 0 view .LVU264
 1150 0000 2DE9F04F 		push	{r4, r5, r6, r7, r8, r9, r10, fp, lr}
 1151              		.cfi_def_cfa_offset 36
 1152              		.cfi_offset 4, -36
 1153              		.cfi_offset 5, -32
 1154              		.cfi_offset 6, -28
 1155              		.cfi_offset 7, -24
 1156              		.cfi_offset 8, -20
 1157              		.cfi_offset 9, -16
 1158              		.cfi_offset 10, -12
 1159              		.cfi_offset 11, -8
 1160              		.cfi_offset 14, -4
 1161 0004 89B0     		sub	sp, sp, #36
 1162              		.cfi_def_cfa_offset 72
 1163              		.loc 9 440 10 view .LVU265
 1164 0006 08AC     		add	r4, sp, #32
 1165 0008 9DF84870 		ldrb	r7, [sp, #72]	@ zero_extendqisi2
 1166 000c 0191     		str	r1, [sp, #4]
 1167 000e 04E90C00 		stmdb	r4, {r2, r3}
 441:../../libDaisy//src/hid/disp/display.h ****     {
 442:../../libDaisy//src/hid/disp/display.h ****         // Write until null-byte
 443:../../libDaisy//src/hid/disp/display.h ****         while(*str)
 1168              		.loc 9 443 9 is_stmt 1 view .LVU266
 1169 0012 0B78     		ldrb	r3, [r1]	@ zero_extendqisi2
 1170 0014 002B     		cmp	r3, #0
 1171 0016 00F0AB80 		beq	.L95
 1172 001a 1A46     		mov	r2, r3
 1173 001c 9DF81880 		ldrb	r8, [sp, #24]	@ zero_extendqisi2
 1174 0020 9DF81930 		ldrb	r3, [sp, #25]	@ zero_extendqisi2
 1175 0024 0646     		mov	r6, r0
 1176 0026 4546     		mov	r5, r8
 1177 0028 9046     		mov	r8, r2
 1178 002a 0393     		str	r3, [sp, #12]
 1179 002c 079B     		ldr	r3, [sp, #28]
 1180 002e 0593     		str	r3, [sp, #20]
 1181              	.LVL72:
 1182              	.L96:
 1183              	.LBB736:
 1184              	.LBI736:
 396:../../libDaisy//src/hid/disp/display.h ****     {
 1185              		.loc 9 396 10 view .LVU267
 1186              	.LBB737:
 401:../../libDaisy//src/hid/disp/display.h ****             return 0;
 1187              		.loc 9 401 20 is_stmt 0 view .LVU268
 1188 0030 A8F12004 		sub	r4, r8, #32
 401:../../libDaisy//src/hid/disp/display.h ****             return 0;
 1189              		.loc 9 401 9 view .LVU269
 1190 0034 E3B2     		uxtb	r3, r4
 1191 0036 5E2B     		cmp	r3, #94
 1192 0038 00F29E80 		bhi	.L77
 405:../../libDaisy//src/hid/disp/display.h ****            || Height() < (currentY_ + font.FontHeight))
ARM GAS  /var/folders/hl/qgbwny5j0fd895c2c41bk3tw0000gp/T//cc804SGY.s 			page 53


 1193              		.loc 9 405 17 view .LVU270
 1194 003c 3368     		ldr	r3, [r6]
 1195 003e 5E4A     		ldr	r2, .L117
 1196 0040 DB68     		ldr	r3, [r3, #12]
 1197 0042 9342     		cmp	r3, r2
 1198 0044 40F09B80 		bne	.L110
 1199 0048 8020     		movs	r0, #128
 1200              	.L76:
 405:../../libDaisy//src/hid/disp/display.h ****            || Height() < (currentY_ + font.FontHeight))
 1201              		.loc 9 405 23 view .LVU271
 1202 004a B388     		ldrh	r3, [r6, #4]
 405:../../libDaisy//src/hid/disp/display.h ****            || Height() < (currentY_ + font.FontHeight))
 1203              		.loc 9 405 33 view .LVU272
 1204 004c 2B44     		add	r3, r3, r5
 406:../../libDaisy//src/hid/disp/display.h ****         {
 1205              		.loc 9 406 12 view .LVU273
 1206 004e 8342     		cmp	r3, r0
 1207 0050 00F39280 		bgt	.L77
 406:../../libDaisy//src/hid/disp/display.h ****         {
 1208              		.loc 9 406 21 view .LVU274
 1209 0054 3368     		ldr	r3, [r6]
 1210 0056 594A     		ldr	r2, .L117+4
 1211 0058 9B68     		ldr	r3, [r3, #8]
 1212 005a 9342     		cmp	r3, r2
 1213 005c 40F09280 		bne	.L111
 1214 0060 4020     		movs	r0, #64
 1215              	.L78:
 406:../../libDaisy//src/hid/disp/display.h ****         {
 1216              		.loc 9 406 27 view .LVU275
 1217 0062 F188     		ldrh	r1, [r6, #6]
 406:../../libDaisy//src/hid/disp/display.h ****         {
 1218              		.loc 9 406 37 view .LVU276
 1219 0064 039A     		ldr	r2, [sp, #12]
 406:../../libDaisy//src/hid/disp/display.h ****         {
 1220              		.loc 9 406 27 view .LVU277
 1221 0066 0291     		str	r1, [sp, #8]
 406:../../libDaisy//src/hid/disp/display.h ****         {
 1222              		.loc 9 406 37 view .LVU278
 1223 0068 8B18     		adds	r3, r1, r2
 406:../../libDaisy//src/hid/disp/display.h ****         {
 1224              		.loc 9 406 12 view .LVU279
 1225 006a 8342     		cmp	r3, r0
 1226 006c 00F38480 		bgt	.L77
 1227              	.LVL73:
 413:../../libDaisy//src/hid/disp/display.h ****         {
 1228              		.loc 9 413 22 is_stmt 1 view .LVU280
 1229 0070 002A     		cmp	r2, #0
 1230 0072 00F09180 		beq	.L79
 415:../../libDaisy//src/hid/disp/display.h ****             for(j = 0; j < font.FontWidth; j++)
 1231              		.loc 9 415 37 is_stmt 0 view .LVU281
 1232 0076 02FB04F4 		mul	r4, r2, r4
 1233 007a 6FF00049 		mvn	r9, #-2147483648
 1234 007e 059B     		ldr	r3, [sp, #20]
 1235 0080 A144     		add	r9, r9, r4
 1236 0082 1444     		add	r4, r4, r2
 434:../../libDaisy//src/hid/disp/display.h **** 
 1237              		.loc 9 434 19 view .LVU282
ARM GAS  /var/folders/hl/qgbwny5j0fd895c2c41bk3tw0000gp/T//cc804SGY.s 			page 54


 1238 0084 B6F804B0 		ldrh	fp, [r6, #4]
 1239 0088 03EB4909 		add	r9, r3, r9, lsl #1
 1240 008c 023B     		subs	r3, r3, #2
 1241 008e CDF81080 		str	r8, [sp, #16]
 1242 0092 03EB4403 		add	r3, r3, r4, lsl #1
 1243 0096 0C46     		mov	r4, r1
 1244 0098 9A46     		mov	r10, r3
 1245              	.LVL74:
 1246              	.L82:
 415:../../libDaisy//src/hid/disp/display.h ****             for(j = 0; j < font.FontWidth; j++)
 1247              		.loc 9 415 15 view .LVU283
 1248 009a 39F802CF 		ldrh	ip, [r9, #2]!
 1249              	.LVL75:
 416:../../libDaisy//src/hid/disp/display.h ****             {
 1250              		.loc 9 416 26 is_stmt 1 view .LVU284
 1251 009e A5B3     		cbz	r5, .L87
 1252              	.LBB738:
 1253              	.LBB739:
 1254              	.LBB740:
 1255              	.LBB741:
 1256              	.LBB742:
 359:../../libDaisy//src/dev/oled_ssd130x.h ****     }
 1257              		.loc 10 359 55 is_stmt 0 view .LVU285
 1258 00a0 04F00703 		and	r3, r4, #7
 359:../../libDaisy//src/dev/oled_ssd130x.h ****     }
 1259              		.loc 10 359 49 view .LVU286
 1260 00a4 4FF0010E 		mov	lr, #1
 359:../../libDaisy//src/dev/oled_ssd130x.h ****     }
 1261              		.loc 10 359 28 view .LVU287
 1262 00a8 E208     		lsrs	r2, r4, #3
 1263 00aa 5946     		mov	r1, fp
 359:../../libDaisy//src/dev/oled_ssd130x.h ****     }
 1264              		.loc 10 359 49 view .LVU288
 1265 00ac 0EFA03FE 		lsl	lr, lr, r3
 1266 00b0 0BF11003 		add	r3, fp, #16
 359:../../libDaisy//src/dev/oled_ssd130x.h ****     }
 1267              		.loc 10 359 42 view .LVU289
 1268 00b4 4FFA8EFE 		sxtb	lr, lr
 1269 00b8 03EBC212 		add	r2, r3, r2, lsl #7
 1270              	.LBE742:
 1271              	.LBE741:
 1272              	.LBE740:
 1273              	.LBE739:
 1274              	.LBE738:
 416:../../libDaisy//src/hid/disp/display.h ****             {
 1275              		.loc 9 416 19 view .LVU290
 1276 00bc 0023     		movs	r3, #0
 1277              	.LBB760:
 1278              	.LBB755:
 1279              	.LBB750:
 1280              	.LBB746:
 1281              	.LBB743:
 359:../../libDaisy//src/dev/oled_ssd130x.h ****     }
 1282              		.loc 10 359 42 view .LVU291
 1283 00be 6FEA0E08 		mvn	r8, lr
 1284 00c2 3244     		add	r2, r2, r6
 1285 00c4 0DE0     		b	.L88
ARM GAS  /var/folders/hl/qgbwny5j0fd895c2c41bk3tw0000gp/T//cc804SGY.s 			page 55


 1286              	.LVL76:
 1287              	.L112:
 359:../../libDaisy//src/dev/oled_ssd130x.h ****     }
 1288              		.loc 10 359 42 view .LVU292
 1289              	.LBE743:
 1290              	.LBE746:
 1291              	.LBE750:
 1292              	.LBE755:
 1293              	.LBE760:
 1294              	.LBB761:
 1295              	.LBI761:
  42:../../libDaisy//src/hid/disp/oled_display.h ****     {
 1296              		.loc 8 42 10 is_stmt 1 view .LVU293
 1297              	.LBB762:
 1298              	.LBI762:
 352:../../libDaisy//src/dev/oled_ssd130x.h ****     {
 1299              		.loc 10 352 10 view .LVU294
 1300              	.LBB763:
 354:../../libDaisy//src/dev/oled_ssd130x.h ****             return;
 1301              		.loc 10 354 9 is_stmt 0 view .LVU295
 1302 00c6 7F29     		cmp	r1, #127
 1303 00c8 06D8     		bhi	.L84
 1304 00ca 3F2C     		cmp	r4, #63
 1305 00cc 04D8     		bhi	.L84
 357:../../libDaisy//src/dev/oled_ssd130x.h ****         else
 1306              		.loc 10 357 42 view .LVU296
 1307 00ce 1078     		ldrb	r0, [r2]	@ zero_extendqisi2
 356:../../libDaisy//src/dev/oled_ssd130x.h ****             buffer_[x + (y / 8) * width] |= (1 << (y % 8));
 1308              		.loc 10 356 9 view .LVU297
 1309 00d0 97B1     		cbz	r7, .L86
 1310              	.L109:
 356:../../libDaisy//src/dev/oled_ssd130x.h ****             buffer_[x + (y / 8) * width] |= (1 << (y % 8));
 1311              		.loc 10 356 9 view .LVU298
 1312              	.LBE763:
 1313              	.LBE762:
 1314              	.LBE761:
 1315              	.LBB764:
 1316              	.LBB756:
 1317              	.LBB751:
 357:../../libDaisy//src/dev/oled_ssd130x.h ****         else
 1318              		.loc 10 357 42 view .LVU299
 1319 00d2 4EEA0000 		orr	r0, lr, r0
 1320 00d6 1070     		strb	r0, [r2]
 1321              	.L84:
 1322              	.LBE751:
 1323              	.LBE756:
 1324              	.LBE764:
 416:../../libDaisy//src/hid/disp/display.h ****             {
 1325              		.loc 9 416 13 is_stmt 1 view .LVU300
 1326 00d8 0133     		adds	r3, r3, #1
 1327              	.LVL77:
 416:../../libDaisy//src/hid/disp/display.h ****             {
 1328              		.loc 9 416 26 view .LVU301
 1329 00da 0132     		adds	r2, r2, #1
 1330 00dc 0131     		adds	r1, r1, #1
 1331 00de AB42     		cmp	r3, r5
 1332 00e0 13D0     		beq	.L87
ARM GAS  /var/folders/hl/qgbwny5j0fd895c2c41bk3tw0000gp/T//cc804SGY.s 			page 56


 1333              	.LVL78:
 1334              	.L88:
 418:../../libDaisy//src/hid/disp/display.h ****                 {
 1335              		.loc 9 418 23 is_stmt 0 view .LVU302
 1336 00e2 0CFA03F0 		lsl	r0, ip, r3
 418:../../libDaisy//src/hid/disp/display.h ****                 {
 1337              		.loc 9 418 17 view .LVU303
 1338 00e6 0004     		lsls	r0, r0, #16
 1339 00e8 EDD4     		bmi	.L112
 1340              	.LVL79:
 1341              	.LBB765:
 1342              	.LBI738:
  42:../../libDaisy//src/hid/disp/oled_display.h ****     {
 1343              		.loc 8 42 10 is_stmt 1 view .LVU304
 1344              	.LBB757:
 1345              	.LBI739:
 352:../../libDaisy//src/dev/oled_ssd130x.h ****     {
 1346              		.loc 10 352 10 view .LVU305
 1347              	.LBB752:
 354:../../libDaisy//src/dev/oled_ssd130x.h ****             return;
 1348              		.loc 10 354 9 is_stmt 0 view .LVU306
 1349 00ea 7F29     		cmp	r1, #127
 1350 00ec F4D8     		bhi	.L84
 1351 00ee 3F2C     		cmp	r4, #63
 1352 00f0 F2D8     		bhi	.L84
 357:../../libDaisy//src/dev/oled_ssd130x.h ****         else
 1353              		.loc 10 357 42 view .LVU307
 1354 00f2 1078     		ldrb	r0, [r2]	@ zero_extendqisi2
 356:../../libDaisy//src/dev/oled_ssd130x.h ****             buffer_[x + (y / 8) * width] |= (1 << (y % 8));
 1355              		.loc 10 356 9 view .LVU308
 1356 00f4 002F     		cmp	r7, #0
 1357 00f6 ECD0     		beq	.L109
 1358              	.L86:
 1359              	.LVL80:
 1360              	.LBB747:
 1361              	.LBI741:
 352:../../libDaisy//src/dev/oled_ssd130x.h ****     {
 1362              		.loc 10 352 10 is_stmt 1 view .LVU309
 352:../../libDaisy//src/dev/oled_ssd130x.h ****     {
 1363              		.loc 10 352 10 is_stmt 0 view .LVU310
 1364              	.LBE747:
 1365              	.LBE752:
 1366              	.LBE757:
 1367              	.LBE765:
 416:../../libDaisy//src/hid/disp/display.h ****             {
 1368              		.loc 9 416 13 view .LVU311
 1369 00f8 0133     		adds	r3, r3, #1
 1370              	.LVL81:
 1371              	.LBB766:
 1372              	.LBB758:
 1373              	.LBB753:
 1374              	.LBB748:
 1375              	.LBB744:
 359:../../libDaisy//src/dev/oled_ssd130x.h ****     }
 1376              		.loc 10 359 42 view .LVU312
 1377 00fa 08EA0000 		and	r0, r8, r0
 1378              	.LBE744:
ARM GAS  /var/folders/hl/qgbwny5j0fd895c2c41bk3tw0000gp/T//cc804SGY.s 			page 57


 1379              	.LBE748:
 1380              	.LBE753:
 1381              	.LBE758:
 1382              	.LBE766:
 416:../../libDaisy//src/hid/disp/display.h ****             {
 1383              		.loc 9 416 26 view .LVU313
 1384 00fe 0132     		adds	r2, r2, #1
 1385 0100 0131     		adds	r1, r1, #1
 1386 0102 AB42     		cmp	r3, r5
 1387              	.LBB767:
 1388              	.LBB759:
 1389              	.LBB754:
 1390              	.LBB749:
 1391              	.LBB745:
 359:../../libDaisy//src/dev/oled_ssd130x.h ****     }
 1392              		.loc 10 359 42 view .LVU314
 1393 0104 02F8010C 		strb	r0, [r2, #-1]
 359:../../libDaisy//src/dev/oled_ssd130x.h ****     }
 1394              		.loc 10 359 42 view .LVU315
 1395              	.LBE745:
 1396              	.LBE749:
 1397              	.LBE754:
 1398              	.LBE759:
 1399              	.LBE767:
 416:../../libDaisy//src/hid/disp/display.h ****             {
 1400              		.loc 9 416 13 is_stmt 1 view .LVU316
 1401              	.LVL82:
 416:../../libDaisy//src/hid/disp/display.h ****             {
 1402              		.loc 9 416 26 view .LVU317
 1403 0108 EBD1     		bne	.L88
 1404              	.LVL83:
 1405              	.L87:
 413:../../libDaisy//src/hid/disp/display.h ****         {
 1406              		.loc 9 413 9 view .LVU318
 413:../../libDaisy//src/hid/disp/display.h ****         {
 1407              		.loc 9 413 22 view .LVU319
 1408 010a D145     		cmp	r9, r10
 1409 010c 04F10104 		add	r4, r4, #1
 1410 0110 C3D1     		bne	.L82
 1411 0112 DDF81080 		ldr	r8, [sp, #16]
 1412              	.LVL84:
 1413              	.L81:
 1414              	.LBB768:
 1415              	.LBB769:
 173:../../libDaisy//src/hid/disp/display.h ****         currentY_ = (y >= Height()) ? Height() - 1 : y;
 1416              		.loc 9 173 33 is_stmt 0 view .LVU320
 1417 0116 3268     		ldr	r2, [r6]
 1418              	.LBE769:
 1419              	.LBE768:
 434:../../libDaisy//src/hid/disp/display.h **** 
 1420              		.loc 9 434 18 view .LVU321
 1421 0118 0BEB0504 		add	r4, fp, r5
 1422 011c 2649     		ldr	r1, .L117
 1423              	.LBB774:
 1424              	.LBB770:
 173:../../libDaisy//src/hid/disp/display.h ****         currentY_ = (y >= Height()) ? Height() - 1 : y;
 1425              		.loc 9 173 33 view .LVU322
ARM GAS  /var/folders/hl/qgbwny5j0fd895c2c41bk3tw0000gp/T//cc804SGY.s 			page 58


 1426 011e D368     		ldr	r3, [r2, #12]
 1427              	.LBE770:
 1428              	.LBE774:
 434:../../libDaisy//src/hid/disp/display.h **** 
 1429              		.loc 9 434 18 view .LVU323
 1430 0120 A4B2     		uxth	r4, r4
 1431              	.LVL85:
 1432              	.LBB775:
 1433              	.LBI768:
 171:../../libDaisy//src/hid/disp/display.h ****     {
 1434              		.loc 9 171 10 is_stmt 1 view .LVU324
 1435              	.LBB771:
 173:../../libDaisy//src/hid/disp/display.h ****         currentY_ = (y >= Height()) ? Height() - 1 : y;
 1436              		.loc 9 173 9 view .LVU325
 1437 0122 8B42     		cmp	r3, r1
 1438 0124 34D1     		bne	.L113
 173:../../libDaisy//src/hid/disp/display.h ****         currentY_ = (y >= Height()) ? Height() - 1 : y;
 1439              		.loc 9 173 33 is_stmt 0 view .LVU326
 1440 0126 8020     		movs	r0, #128
 1441              	.L89:
 173:../../libDaisy//src/hid/disp/display.h ****         currentY_ = (y >= Height()) ? Height() - 1 : y;
 1442              		.loc 9 173 19 view .LVU327
 1443 0128 8442     		cmp	r4, r0
 1444 012a 04D3     		bcc	.L90
 173:../../libDaisy//src/hid/disp/display.h ****         currentY_ = (y >= Height()) ? Height() - 1 : y;
 1445              		.loc 9 173 44 view .LVU328
 1446 012c D368     		ldr	r3, [r2, #12]
 1447 012e 2249     		ldr	r1, .L117
 1448 0130 8B42     		cmp	r3, r1
 1449 0132 3AD1     		bne	.L114
 1450 0134 7F24     		movs	r4, #127
 1451              	.LVL86:
 1452              	.L90:
 174:../../libDaisy//src/hid/disp/display.h ****     }
 1453              		.loc 9 174 34 view .LVU329
 1454 0136 9368     		ldr	r3, [r2, #8]
 1455 0138 204A     		ldr	r2, .L117+4
 173:../../libDaisy//src/hid/disp/display.h ****         currentY_ = (y >= Height()) ? Height() - 1 : y;
 1456              		.loc 9 173 19 view .LVU330
 1457 013a B480     		strh	r4, [r6, #4]	@ movhi
 174:../../libDaisy//src/hid/disp/display.h ****     }
 1458              		.loc 9 174 9 is_stmt 1 view .LVU331
 1459 013c 9342     		cmp	r3, r2
 1460 013e 24D1     		bne	.L115
 174:../../libDaisy//src/hid/disp/display.h ****     }
 1461              		.loc 9 174 34 is_stmt 0 view .LVU332
 1462 0140 4020     		movs	r0, #64
 1463              	.L92:
 174:../../libDaisy//src/hid/disp/display.h ****     }
 1464              		.loc 9 174 19 view .LVU333
 1465 0142 029B     		ldr	r3, [sp, #8]
 1466 0144 8342     		cmp	r3, r0
 1467 0146 06D3     		bcc	.L93
 174:../../libDaisy//src/hid/disp/display.h ****     }
 1468              		.loc 9 174 46 view .LVU334
 1469 0148 3368     		ldr	r3, [r6]
 1470 014a 1C4A     		ldr	r2, .L117+4
ARM GAS  /var/folders/hl/qgbwny5j0fd895c2c41bk3tw0000gp/T//cc804SGY.s 			page 59


 1471 014c 9B68     		ldr	r3, [r3, #8]
 1472 014e 9342     		cmp	r3, r2
 1473 0150 25D1     		bne	.L116
 1474 0152 3F23     		movs	r3, #63
 1475 0154 0293     		str	r3, [sp, #8]
 1476              	.LVL87:
 1477              	.L93:
 174:../../libDaisy//src/hid/disp/display.h ****     }
 1478              		.loc 9 174 19 view .LVU335
 1479 0156 029B     		ldr	r3, [sp, #8]
 1480 0158 F380     		strh	r3, [r6, #6]	@ movhi
 1481              	.LVL88:
 1482              	.L75:
 174:../../libDaisy//src/hid/disp/display.h ****     }
 1483              		.loc 9 174 19 view .LVU336
 1484              	.LBE771:
 1485              	.LBE775:
 1486              	.LBE737:
 1487              	.LBE736:
 444:../../libDaisy//src/hid/disp/display.h ****         {
 445:../../libDaisy//src/hid/disp/display.h ****             if(((ChildType*)(this))->ChildType::WriteChar(*str, font, on)
 446:../../libDaisy//src/hid/disp/display.h ****                != *str)
 1488              		.loc 9 446 16 view .LVU337
 1489 015a 019B     		ldr	r3, [sp, #4]
 1490 015c 1878     		ldrb	r0, [r3]	@ zero_extendqisi2
 445:../../libDaisy//src/hid/disp/display.h ****                != *str)
 1491              		.loc 9 445 13 view .LVU338
 1492 015e 4045     		cmp	r0, r8
 1493 0160 07D1     		bne	.L73
 1494              	.LVL89:
 443:../../libDaisy//src/hid/disp/display.h ****         {
 1495              		.loc 9 443 9 is_stmt 1 view .LVU339
 1496 0162 13F8018F 		ldrb	r8, [r3, #1]!	@ zero_extendqisi2
 1497              	.LVL90:
 443:../../libDaisy//src/hid/disp/display.h ****         {
 1498              		.loc 9 443 9 is_stmt 0 view .LVU340
 1499 0166 0193     		str	r3, [sp, #4]
 1500 0168 B8F1000F 		cmp	r8, #0
 1501 016c 7FF460AF 		bne	.L96
 1502              	.LVL91:
 1503              	.L95:
 1504              	.LBB780:
 1505              	.LBB778:
 402:../../libDaisy//src/hid/disp/display.h **** 
 1506              		.loc 9 402 20 view .LVU341
 1507 0170 0020     		movs	r0, #0
 1508              	.L73:
 1509              	.LBE778:
 1510              	.LBE780:
 447:../../libDaisy//src/hid/disp/display.h ****             {
 448:../../libDaisy//src/hid/disp/display.h ****                 // Char could not be written
 449:../../libDaisy//src/hid/disp/display.h ****                 return *str;
 450:../../libDaisy//src/hid/disp/display.h ****             }
 451:../../libDaisy//src/hid/disp/display.h **** 
 452:../../libDaisy//src/hid/disp/display.h ****             // Next char
 453:../../libDaisy//src/hid/disp/display.h ****             str++;
 454:../../libDaisy//src/hid/disp/display.h ****         }
ARM GAS  /var/folders/hl/qgbwny5j0fd895c2c41bk3tw0000gp/T//cc804SGY.s 			page 60


 455:../../libDaisy//src/hid/disp/display.h **** 
 456:../../libDaisy//src/hid/disp/display.h ****         // Everything ok
 457:../../libDaisy//src/hid/disp/display.h ****         return *str;
 458:../../libDaisy//src/hid/disp/display.h ****     }
 1511              		.loc 9 458 5 view .LVU342
 1512 0172 09B0     		add	sp, sp, #36
 1513              		.cfi_remember_state
 1514              		.cfi_def_cfa_offset 36
 1515              		@ sp needed
 1516 0174 BDE8F08F 		pop	{r4, r5, r6, r7, r8, r9, r10, fp, pc}
 1517              	.LVL92:
 1518              	.L77:
 1519              		.cfi_restore_state
 1520              	.LBB781:
 1521              	.LBB779:
 402:../../libDaisy//src/hid/disp/display.h **** 
 1522              		.loc 9 402 20 view .LVU343
 1523 0178 4FF00008 		mov	r8, #0
 1524              	.LVL93:
 402:../../libDaisy//src/hid/disp/display.h **** 
 1525              		.loc 9 402 20 view .LVU344
 1526 017c EDE7     		b	.L75
 1527              	.LVL94:
 1528              	.L110:
 405:../../libDaisy//src/hid/disp/display.h ****            || Height() < (currentY_ + font.FontHeight))
 1529              		.loc 9 405 17 view .LVU345
 1530 017e 3046     		mov	r0, r6
 1531 0180 9847     		blx	r3
 1532              	.LVL95:
 1533 0182 62E7     		b	.L76
 1534              	.L111:
 406:../../libDaisy//src/hid/disp/display.h ****         {
 1535              		.loc 9 406 21 view .LVU346
 1536 0184 3046     		mov	r0, r6
 1537 0186 9847     		blx	r3
 1538              	.LVL96:
 1539 0188 6BE7     		b	.L78
 1540              	.LVL97:
 1541              	.L115:
 1542              	.LBB776:
 1543              	.LBB772:
 174:../../libDaisy//src/hid/disp/display.h ****     }
 1544              		.loc 9 174 33 view .LVU347
 1545 018a 3046     		mov	r0, r6
 1546 018c 9847     		blx	r3
 1547              	.LVL98:
 1548 018e D8E7     		b	.L92
 1549              	.LVL99:
 1550              	.L113:
 173:../../libDaisy//src/hid/disp/display.h ****         currentY_ = (y >= Height()) ? Height() - 1 : y;
 1551              		.loc 9 173 32 view .LVU348
 1552 0190 3046     		mov	r0, r6
 1553 0192 9847     		blx	r3
 1554              	.LVL100:
 173:../../libDaisy//src/hid/disp/display.h ****         currentY_ = (y >= Height()) ? Height() - 1 : y;
 1555              		.loc 9 173 44 view .LVU349
 1556 0194 3268     		ldr	r2, [r6]
ARM GAS  /var/folders/hl/qgbwny5j0fd895c2c41bk3tw0000gp/T//cc804SGY.s 			page 61


 1557 0196 C7E7     		b	.L89
 1558              	.LVL101:
 1559              	.L79:
 173:../../libDaisy//src/hid/disp/display.h ****         currentY_ = (y >= Height()) ? Height() - 1 : y;
 1560              		.loc 9 173 44 view .LVU350
 1561              	.LBE772:
 1562              	.LBE776:
 434:../../libDaisy//src/hid/disp/display.h **** 
 1563              		.loc 9 434 19 view .LVU351
 1564 0198 B6F804B0 		ldrh	fp, [r6, #4]
 1565 019c BBE7     		b	.L81
 1566              	.LVL102:
 1567              	.L116:
 1568              	.LBB777:
 1569              	.LBB773:
 174:../../libDaisy//src/hid/disp/display.h ****     }
 1570              		.loc 9 174 45 view .LVU352
 1571 019e 3046     		mov	r0, r6
 1572 01a0 9847     		blx	r3
 1573              	.LVL103:
 174:../../libDaisy//src/hid/disp/display.h ****     }
 1574              		.loc 9 174 19 view .LVU353
 1575 01a2 0138     		subs	r0, r0, #1
 1576 01a4 83B2     		uxth	r3, r0
 1577 01a6 0293     		str	r3, [sp, #8]
 1578              	.LVL104:
 174:../../libDaisy//src/hid/disp/display.h ****     }
 1579              		.loc 9 174 19 view .LVU354
 1580 01a8 D5E7     		b	.L93
 1581              	.LVL105:
 1582              	.L114:
 173:../../libDaisy//src/hid/disp/display.h ****         currentY_ = (y >= Height()) ? Height() - 1 : y;
 1583              		.loc 9 173 43 view .LVU355
 1584 01aa 3046     		mov	r0, r6
 1585 01ac 9847     		blx	r3
 1586              	.LVL106:
 173:../../libDaisy//src/hid/disp/display.h ****         currentY_ = (y >= Height()) ? Height() - 1 : y;
 1587              		.loc 9 173 19 view .LVU356
 1588 01ae 0138     		subs	r0, r0, #1
 174:../../libDaisy//src/hid/disp/display.h ****     }
 1589              		.loc 9 174 34 view .LVU357
 1590 01b0 3268     		ldr	r2, [r6]
 173:../../libDaisy//src/hid/disp/display.h ****         currentY_ = (y >= Height()) ? Height() - 1 : y;
 1591              		.loc 9 173 19 view .LVU358
 1592 01b2 84B2     		uxth	r4, r0
 1593              	.LVL107:
 173:../../libDaisy//src/hid/disp/display.h ****         currentY_ = (y >= Height()) ? Height() - 1 : y;
 1594              		.loc 9 173 19 view .LVU359
 1595 01b4 BFE7     		b	.L90
 1596              	.L118:
 1597 01b6 00BF     		.align	2
 1598              	.L117:
 1599 01b8 00000000 		.word	_ZNK5daisy11OledDisplayINS_13SSD130xDriverILj128ELj64ENS_19SSD130xI2CTransportEEEE5WidthEv
 1600 01bc 00000000 		.word	_ZNK5daisy11OledDisplayINS_13SSD130xDriverILj128ELj64ENS_19SSD130xI2CTransportEEEE6HeightEv
 1601              	.LBE773:
 1602              	.LBE777:
 1603              	.LBE779:
ARM GAS  /var/folders/hl/qgbwny5j0fd895c2c41bk3tw0000gp/T//cc804SGY.s 			page 62


 1604              	.LBE781:
 1605              		.cfi_endproc
 1606              	.LFE5181:
 1608              		.section	.text._ZN5daisy11OledDisplayINS_13SSD130xDriverILj128ELj64ENS_19SSD130xI2CTransportEEEE9D
 1609              		.align	1
 1610              		.p2align 2,,3
 1611              		.weak	_ZN5daisy11OledDisplayINS_13SSD130xDriverILj128ELj64ENS_19SSD130xI2CTransportEEEE9DrawPixelE
 1612              		.syntax unified
 1613              		.thumb
 1614              		.thumb_func
 1615              		.fpu fpv5-d16
 1617              	_ZN5daisy11OledDisplayINS_13SSD130xDriverILj128ELj64ENS_19SSD130xI2CTransportEEEE9DrawPixelEjjb:
 1618              	.LVL108:
 1619              	.LFB5185:
  42:../../libDaisy//src/hid/disp/oled_display.h ****     {
 1620              		.loc 8 42 10 is_stmt 1 view -0
 1621              		.cfi_startproc
 1622              		@ args = 0, pretend = 0, frame = 0
 1623              		@ frame_needed = 0, uses_anonymous_args = 0
 1624              		@ link register save eliminated.
 1625              	.LBB786:
 1626              	.LBI786:
 352:../../libDaisy//src/dev/oled_ssd130x.h ****     {
 1627              		.loc 10 352 10 view .LVU361
 1628              	.LBB787:
 354:../../libDaisy//src/dev/oled_ssd130x.h ****             return;
 1629              		.loc 10 354 9 is_stmt 0 view .LVU362
 1630 0000 7F29     		cmp	r1, #127
 1631 0002 1ED8     		bhi	.L119
 1632 0004 3F2A     		cmp	r2, #63
 1633 0006 1CD8     		bhi	.L119
 356:../../libDaisy//src/dev/oled_ssd130x.h ****             buffer_[x + (y / 8) * width] |= (1 << (y % 8));
 1634              		.loc 10 356 9 view .LVU363
 1635 0008 6BB1     		cbz	r3, .L121
 357:../../libDaisy//src/dev/oled_ssd130x.h ****         else
 1636              		.loc 10 357 28 view .LVU364
 1637 000a D308     		lsrs	r3, r2, #3
 1638              	.LVL109:
 357:../../libDaisy//src/dev/oled_ssd130x.h ****         else
 1639              		.loc 10 357 48 view .LVU365
 1640 000c 4FF0010C 		mov	ip, #1
 357:../../libDaisy//src/dev/oled_ssd130x.h ****         else
 1641              		.loc 10 357 54 view .LVU366
 1642 0010 02F00702 		and	r2, r2, #7
 1643              	.LVL110:
 357:../../libDaisy//src/dev/oled_ssd130x.h ****         else
 1644              		.loc 10 357 42 view .LVU367
 1645 0014 01EBC313 		add	r3, r1, r3, lsl #7
 357:../../libDaisy//src/dev/oled_ssd130x.h ****         else
 1646              		.loc 10 357 48 view .LVU368
 1647 0018 0CFA02F2 		lsl	r2, ip, r2
 357:../../libDaisy//src/dev/oled_ssd130x.h ****         else
 1648              		.loc 10 357 42 view .LVU369
 1649 001c C118     		adds	r1, r0, r3
 1650              	.LVL111:
 357:../../libDaisy//src/dev/oled_ssd130x.h ****         else
 1651              		.loc 10 357 42 view .LVU370
ARM GAS  /var/folders/hl/qgbwny5j0fd895c2c41bk3tw0000gp/T//cc804SGY.s 			page 63


 1652 001e 0B7C     		ldrb	r3, [r1, #16]	@ zero_extendqisi2
 1653 0020 1A43     		orrs	r2, r2, r3
 1654 0022 0A74     		strb	r2, [r1, #16]
 1655 0024 7047     		bx	lr
 1656              	.LVL112:
 1657              	.L121:
 1658              	.LBB788:
 1659              	.LBI788:
 352:../../libDaisy//src/dev/oled_ssd130x.h ****     {
 1660              		.loc 10 352 10 is_stmt 1 view .LVU371
 1661              	.LBB789:
 359:../../libDaisy//src/dev/oled_ssd130x.h ****     }
 1662              		.loc 10 359 28 is_stmt 0 view .LVU372
 1663 0026 D308     		lsrs	r3, r2, #3
 1664              	.LVL113:
 359:../../libDaisy//src/dev/oled_ssd130x.h ****     }
 1665              		.loc 10 359 49 view .LVU373
 1666 0028 4FF0010C 		mov	ip, #1
 359:../../libDaisy//src/dev/oled_ssd130x.h ****     }
 1667              		.loc 10 359 55 view .LVU374
 1668 002c 02F00702 		and	r2, r2, #7
 1669              	.LVL114:
 359:../../libDaisy//src/dev/oled_ssd130x.h ****     }
 1670              		.loc 10 359 42 view .LVU375
 1671 0030 01EBC313 		add	r3, r1, r3, lsl #7
 359:../../libDaisy//src/dev/oled_ssd130x.h ****     }
 1672              		.loc 10 359 49 view .LVU376
 1673 0034 0CFA02FC 		lsl	ip, ip, r2
 359:../../libDaisy//src/dev/oled_ssd130x.h ****     }
 1674              		.loc 10 359 42 view .LVU377
 1675 0038 C118     		adds	r1, r0, r3
 1676              	.LVL115:
 359:../../libDaisy//src/dev/oled_ssd130x.h ****     }
 1677              		.loc 10 359 42 view .LVU378
 1678 003a 0A7C     		ldrb	r2, [r1, #16]	@ zero_extendqisi2
 1679 003c 22EA0C02 		bic	r2, r2, ip
 1680 0040 0A74     		strb	r2, [r1, #16]
 1681              	.LVL116:
 1682              	.L119:
 359:../../libDaisy//src/dev/oled_ssd130x.h ****     }
 1683              		.loc 10 359 42 view .LVU379
 1684              	.LBE789:
 1685              	.LBE788:
 1686              	.LBE787:
 1687              	.LBE786:
  45:../../libDaisy//src/hid/disp/oled_display.h **** 
 1688              		.loc 8 45 5 view .LVU380
 1689 0042 7047     		bx	lr
 1690              		.cfi_endproc
 1691              	.LFE5185:
 1693              		.section	.text._ZN5daisy25OneBitGraphicsDisplayImplINS_11OledDisplayINS_13SSD130xDriverILj128ELj64
 1694              		.align	1
 1695              		.p2align 2,,3
 1696              		.weak	_ZN5daisy25OneBitGraphicsDisplayImplINS_11OledDisplayINS_13SSD130xDriverILj128ELj64ENS_19SSD
 1697              		.syntax unified
 1698              		.thumb
 1699              		.thumb_func
ARM GAS  /var/folders/hl/qgbwny5j0fd895c2c41bk3tw0000gp/T//cc804SGY.s 			page 64


 1700              		.fpu fpv5-d16
 1702              	_ZN5daisy25OneBitGraphicsDisplayImplINS_11OledDisplayINS_13SSD130xDriverILj128ELj64ENS_19SSD130xI2C
 1703              	.LVL117:
 1704              	.LFB5460:
 459:../../libDaisy//src/hid/disp/display.h **** 
 460:../../libDaisy//src/hid/disp/display.h ****     Rectangle WriteStringAligned(const char*    str,
 1705              		.loc 9 460 15 is_stmt 1 view -0
 1706              		.cfi_startproc
 1707              		@ args = 12, pretend = 0, frame = 32
 1708              		@ frame_needed = 0, uses_anonymous_args = 0
 1709              		.loc 9 460 15 is_stmt 0 view .LVU382
 1710 0000 2DE9F04F 		push	{r4, r5, r6, r7, r8, r9, r10, fp, lr}
 1711              		.cfi_def_cfa_offset 36
 1712              		.cfi_offset 4, -36
 1713              		.cfi_offset 5, -32
 1714              		.cfi_offset 6, -28
 1715              		.cfi_offset 7, -24
 1716              		.cfi_offset 8, -20
 1717              		.cfi_offset 9, -16
 1718              		.cfi_offset 10, -12
 1719              		.cfi_offset 11, -8
 1720              		.cfi_offset 14, -4
 1721 0004 89B0     		sub	sp, sp, #36
 1722              		.cfi_def_cfa_offset 72
 1723              		.loc 9 460 15 view .LVU383
 1724 0006 1D46     		mov	r5, r3
 1725 0008 8846     		mov	r8, r1
 1726              	.LVL118:
 1727              	.LBB928:
 1728              	.LBI928:
 461:../../libDaisy//src/hid/disp/display.h ****                                  const FontDef& font,
 462:../../libDaisy//src/hid/disp/display.h ****                                  Rectangle      boundingBox,
 463:../../libDaisy//src/hid/disp/display.h ****                                  Alignment      alignment,
 464:../../libDaisy//src/hid/disp/display.h ****                                  bool           on) override
 465:../../libDaisy//src/hid/disp/display.h ****     {
 466:../../libDaisy//src/hid/disp/display.h ****         const auto alignedRect
 467:../../libDaisy//src/hid/disp/display.h ****             = GetTextRect(str, font).AlignedWithin(boundingBox, alignment);
 468:../../libDaisy//src/hid/disp/display.h ****         SetCursor(alignedRect.GetX(), alignedRect.GetY());
 469:../../libDaisy//src/hid/disp/display.h ****         ((ChildType*)(this))->ChildType::WriteString(str, font, on);
 470:../../libDaisy//src/hid/disp/display.h ****         return alignedRect;
 471:../../libDaisy//src/hid/disp/display.h ****     }
 472:../../libDaisy//src/hid/disp/display.h **** 
 473:../../libDaisy//src/hid/disp/display.h ****   private:
 474:../../libDaisy//src/hid/disp/display.h ****     uint32_t strlen(const char* string)
 475:../../libDaisy//src/hid/disp/display.h ****     {
 476:../../libDaisy//src/hid/disp/display.h ****         uint32_t result = 0;
 477:../../libDaisy//src/hid/disp/display.h ****         while(*string++ != '\0')
 478:../../libDaisy//src/hid/disp/display.h ****             result++;
 479:../../libDaisy//src/hid/disp/display.h ****         return result;
 480:../../libDaisy//src/hid/disp/display.h ****     }
 481:../../libDaisy//src/hid/disp/display.h **** 
 482:../../libDaisy//src/hid/disp/display.h ****     Rectangle GetTextRect(const char* text, const FontDef& font)
 1729              		.loc 9 482 15 is_stmt 1 view .LVU384
 1730              	.LBB929:
 1731              	.LBB930:
 1732              	.LBI930:
 474:../../libDaisy//src/hid/disp/display.h ****     {
ARM GAS  /var/folders/hl/qgbwny5j0fd895c2c41bk3tw0000gp/T//cc804SGY.s 			page 65


 1733              		.loc 9 474 14 view .LVU385
 1734              	.LBB931:
 477:../../libDaisy//src/hid/disp/display.h ****             result++;
 1735              		.loc 9 477 25 view .LVU386
 1736              	.LBE931:
 1737              	.LBE930:
 1738              	.LBE929:
 1739              	.LBE928:
 460:../../libDaisy//src/hid/disp/display.h ****                                  const FontDef& font,
 1740              		.loc 9 460 15 is_stmt 0 view .LVU387
 1741 000a 0690     		str	r0, [sp, #24]
 1742              	.LBB946:
 1743              	.LBB942:
 1744              	.LBB935:
 1745              	.LBB932:
 477:../../libDaisy//src/hid/disp/display.h ****             result++;
 1746              		.loc 9 477 25 view .LVU388
 1747 000c 1046     		mov	r0, r2
 1748              	.LVL119:
 477:../../libDaisy//src/hid/disp/display.h ****             result++;
 1749              		.loc 9 477 25 view .LVU389
 1750              	.LBE932:
 1751              	.LBE935:
 1752              	.LBE942:
 1753              	.LBE946:
 460:../../libDaisy//src/hid/disp/display.h ****                                  const FontDef& font,
 1754              		.loc 9 460 15 view .LVU390
 1755 000e 129C     		ldr	r4, [sp, #72]
 1756              	.LBB947:
 1757              	.LBB943:
 1758              	.LBB936:
 1759              	.LBB933:
 477:../../libDaisy//src/hid/disp/display.h ****             result++;
 1760              		.loc 9 477 25 view .LVU391
 1761 0010 10F8013B 		ldrb	r3, [r0], #1	@ zero_extendqisi2
 1762              	.LVL120:
 477:../../libDaisy//src/hid/disp/display.h ****             result++;
 1763              		.loc 9 477 25 view .LVU392
 1764              	.LBE933:
 1765              	.LBE936:
 1766              	.LBE943:
 1767              	.LBE947:
 460:../../libDaisy//src/hid/disp/display.h ****                                  const FontDef& font,
 1768              		.loc 9 460 15 view .LVU393
 1769 0014 1399     		ldr	r1, [sp, #76]
 1770              	.LVL121:
 460:../../libDaisy//src/hid/disp/display.h ****                                  const FontDef& font,
 1771              		.loc 9 460 15 view .LVU394
 1772 0016 9DF85060 		ldrb	r6, [sp, #80]	@ zero_extendqisi2
 1773 001a 0092     		str	r2, [sp]
 1774              	.LBB948:
 1775              	.LBB944:
 1776              	.LBB937:
 1777              	.LBB934:
 477:../../libDaisy//src/hid/disp/display.h ****             result++;
 1778              		.loc 9 477 25 view .LVU395
 1779 001c 33B1     		cbz	r3, .L123
ARM GAS  /var/folders/hl/qgbwny5j0fd895c2c41bk3tw0000gp/T//cc804SGY.s 			page 66


 476:../../libDaisy//src/hid/disp/display.h ****         while(*string++ != '\0')
 1780              		.loc 9 476 18 view .LVU396
 1781 001e 0022     		movs	r2, #0
 1782              	.LVL122:
 1783              	.L124:
 477:../../libDaisy//src/hid/disp/display.h ****             result++;
 1784              		.loc 9 477 25 view .LVU397
 1785 0020 10F8013B 		ldrb	r3, [r0], #1	@ zero_extendqisi2
 1786              	.LVL123:
 478:../../libDaisy//src/hid/disp/display.h ****         return result;
 1787              		.loc 9 478 13 view .LVU398
 1788 0024 0132     		adds	r2, r2, #1
 1789              	.LVL124:
 477:../../libDaisy//src/hid/disp/display.h ****             result++;
 1790              		.loc 9 477 25 is_stmt 1 view .LVU399
 1791 0026 002B     		cmp	r3, #0
 1792 0028 FAD1     		bne	.L124
 1793              	.LBE934:
 1794              	.LBE937:
 483:../../libDaisy//src/hid/disp/display.h ****     {
 484:../../libDaisy//src/hid/disp/display.h ****         const auto numChars = strlen(text);
 485:../../libDaisy//src/hid/disp/display.h ****         return {int16_t(numChars * font.FontWidth), font.FontHeight};
 1795              		.loc 9 485 68 is_stmt 0 view .LVU400
 1796 002a 93B2     		uxth	r3, r2
 1797              	.LVL125:
 1798              	.L123:
 1799              		.loc 9 485 68 view .LVU401
 1800 002c 2A78     		ldrb	r2, [r5]	@ zero_extendqisi2
 1801              		.loc 9 485 58 view .LVU402
 1802 002e 6878     		ldrb	r0, [r5, #1]	@ zero_extendqisi2
 1803              		.loc 9 485 68 view .LVU403
 1804 0030 12FB03F3 		smulbb	r3, r2, r3
 1805 0034 02B2     		sxth	r2, r0
 1806              	.LVL126:
 1807              	.LBB938:
 1808              	.LBI938:
 1809              		.file 17 "../../libDaisy//src/hid/disp/graphics_common.h"
   1:../../libDaisy//src/hid/disp/graphics_common.h **** #pragma once
   2:../../libDaisy//src/hid/disp/graphics_common.h **** 
   3:../../libDaisy//src/hid/disp/graphics_common.h **** #include <cstdint>
   4:../../libDaisy//src/hid/disp/graphics_common.h **** 
   5:../../libDaisy//src/hid/disp/graphics_common.h **** namespace daisy
   6:../../libDaisy//src/hid/disp/graphics_common.h **** {
   7:../../libDaisy//src/hid/disp/graphics_common.h **** /** Justifications */
   8:../../libDaisy//src/hid/disp/graphics_common.h **** enum class Alignment
   9:../../libDaisy//src/hid/disp/graphics_common.h **** {
  10:../../libDaisy//src/hid/disp/graphics_common.h ****     centered,
  11:../../libDaisy//src/hid/disp/graphics_common.h ****     topLeft,
  12:../../libDaisy//src/hid/disp/graphics_common.h ****     topCentered,
  13:../../libDaisy//src/hid/disp/graphics_common.h ****     topRight,
  14:../../libDaisy//src/hid/disp/graphics_common.h ****     bottomLeft,
  15:../../libDaisy//src/hid/disp/graphics_common.h ****     bottomCentered,
  16:../../libDaisy//src/hid/disp/graphics_common.h ****     bottomRight,
  17:../../libDaisy//src/hid/disp/graphics_common.h ****     centeredLeft,
  18:../../libDaisy//src/hid/disp/graphics_common.h ****     centeredRight
  19:../../libDaisy//src/hid/disp/graphics_common.h **** };
  20:../../libDaisy//src/hid/disp/graphics_common.h **** 
ARM GAS  /var/folders/hl/qgbwny5j0fd895c2c41bk3tw0000gp/T//cc804SGY.s 			page 67


  21:../../libDaisy//src/hid/disp/graphics_common.h **** class Rectangle
  22:../../libDaisy//src/hid/disp/graphics_common.h **** {
  23:../../libDaisy//src/hid/disp/graphics_common.h ****   public:
  24:../../libDaisy//src/hid/disp/graphics_common.h ****     Rectangle() : x_(0), y_(0), width_(0), height_(0) {}
  25:../../libDaisy//src/hid/disp/graphics_common.h **** 
  26:../../libDaisy//src/hid/disp/graphics_common.h ****     Rectangle(int16_t width, int16_t height)
 1810              		.loc 17 26 5 is_stmt 1 view .LVU404
 1811              	.LBB939:
 1812              	.LBI939:
  27:../../libDaisy//src/hid/disp/graphics_common.h ****     : x_(0), y_(0), width_(max(0, width)), height_(max(0, height))
  28:../../libDaisy//src/hid/disp/graphics_common.h ****     {
  29:../../libDaisy//src/hid/disp/graphics_common.h ****     }
  30:../../libDaisy//src/hid/disp/graphics_common.h **** 
  31:../../libDaisy//src/hid/disp/graphics_common.h ****     Rectangle(int16_t x, int16_t y, int16_t width, int16_t height)
  32:../../libDaisy//src/hid/disp/graphics_common.h ****     : x_(x), y_(y), width_(max(0, width)), height_(max(0, height))
  33:../../libDaisy//src/hid/disp/graphics_common.h ****     {
  34:../../libDaisy//src/hid/disp/graphics_common.h ****     }
  35:../../libDaisy//src/hid/disp/graphics_common.h **** 
  36:../../libDaisy//src/hid/disp/graphics_common.h ****     Rectangle(const Rectangle& other) { *this = other; }
  37:../../libDaisy//src/hid/disp/graphics_common.h **** 
  38:../../libDaisy//src/hid/disp/graphics_common.h ****     Rectangle& operator=(const Rectangle& other)
  39:../../libDaisy//src/hid/disp/graphics_common.h ****     {
  40:../../libDaisy//src/hid/disp/graphics_common.h ****         x_      = other.x_;
  41:../../libDaisy//src/hid/disp/graphics_common.h ****         y_      = other.y_;
  42:../../libDaisy//src/hid/disp/graphics_common.h ****         width_  = other.width_;
  43:../../libDaisy//src/hid/disp/graphics_common.h ****         height_ = other.height_;
  44:../../libDaisy//src/hid/disp/graphics_common.h ****         return *this;
  45:../../libDaisy//src/hid/disp/graphics_common.h ****     }
  46:../../libDaisy//src/hid/disp/graphics_common.h **** 
  47:../../libDaisy//src/hid/disp/graphics_common.h ****     bool operator==(const Rectangle& other) const
  48:../../libDaisy//src/hid/disp/graphics_common.h ****     {
  49:../../libDaisy//src/hid/disp/graphics_common.h ****         return (x_ == other.x_) && (y_ == other.y_) && (width_ == other.width_)
  50:../../libDaisy//src/hid/disp/graphics_common.h ****                && (height_ == other.height_);
  51:../../libDaisy//src/hid/disp/graphics_common.h ****     }
  52:../../libDaisy//src/hid/disp/graphics_common.h ****     bool operator!=(const Rectangle& other) const { return !(*this == other); }
  53:../../libDaisy//src/hid/disp/graphics_common.h **** 
  54:../../libDaisy//src/hid/disp/graphics_common.h ****     bool IsEmpty() const { return (width_ <= 0) || (height_ <= 0); }
  55:../../libDaisy//src/hid/disp/graphics_common.h **** 
  56:../../libDaisy//src/hid/disp/graphics_common.h ****     int16_t GetX() const { return x_; }
  57:../../libDaisy//src/hid/disp/graphics_common.h ****     int16_t GetY() const { return y_; }
  58:../../libDaisy//src/hid/disp/graphics_common.h ****     int16_t GetWidth() const { return width_; }
  59:../../libDaisy//src/hid/disp/graphics_common.h ****     int16_t GetHeight() const { return height_; }
  60:../../libDaisy//src/hid/disp/graphics_common.h ****     int16_t GetRight() const { return x_ + width_; }
  61:../../libDaisy//src/hid/disp/graphics_common.h ****     int16_t GetBottom() const { return y_ + height_; }
  62:../../libDaisy//src/hid/disp/graphics_common.h ****     int16_t GetCenterX() const { return x_ + width_ / 2; }
  63:../../libDaisy//src/hid/disp/graphics_common.h ****     int16_t GetCenterY() const { return y_ + height_ / 2; }
  64:../../libDaisy//src/hid/disp/graphics_common.h **** 
  65:../../libDaisy//src/hid/disp/graphics_common.h ****     Rectangle WithX(int16_t x) const { return {x, y_, width_, height_}; }
  66:../../libDaisy//src/hid/disp/graphics_common.h ****     Rectangle WithY(int16_t y) const { return {x_, y, width_, height_}; }
  67:../../libDaisy//src/hid/disp/graphics_common.h ****     Rectangle WithWidth(int16_t width) const
  68:../../libDaisy//src/hid/disp/graphics_common.h ****     {
  69:../../libDaisy//src/hid/disp/graphics_common.h ****         return {x_, y_, width, height_};
  70:../../libDaisy//src/hid/disp/graphics_common.h ****     }
  71:../../libDaisy//src/hid/disp/graphics_common.h ****     Rectangle WithHeight(int16_t height) const
  72:../../libDaisy//src/hid/disp/graphics_common.h ****     {
  73:../../libDaisy//src/hid/disp/graphics_common.h ****         return {x_, y_, width_, height};
  74:../../libDaisy//src/hid/disp/graphics_common.h ****     }
ARM GAS  /var/folders/hl/qgbwny5j0fd895c2c41bk3tw0000gp/T//cc804SGY.s 			page 68


  75:../../libDaisy//src/hid/disp/graphics_common.h ****     Rectangle WithSize(int16_t width, int16_t height) const
  76:../../libDaisy//src/hid/disp/graphics_common.h ****     {
  77:../../libDaisy//src/hid/disp/graphics_common.h ****         return {x_, y_, width, height};
  78:../../libDaisy//src/hid/disp/graphics_common.h ****     }
  79:../../libDaisy//src/hid/disp/graphics_common.h ****     Rectangle WithWidthKeepingCenter(int16_t width) const
  80:../../libDaisy//src/hid/disp/graphics_common.h ****     {
  81:../../libDaisy//src/hid/disp/graphics_common.h ****         return Rectangle(x_, y_, width, height_)
  82:../../libDaisy//src/hid/disp/graphics_common.h ****             .WithCenter(GetCenterX(), GetCenterY());
  83:../../libDaisy//src/hid/disp/graphics_common.h ****     }
  84:../../libDaisy//src/hid/disp/graphics_common.h ****     Rectangle WithHeightKeepingCenter(int16_t height) const
  85:../../libDaisy//src/hid/disp/graphics_common.h ****     {
  86:../../libDaisy//src/hid/disp/graphics_common.h ****         return Rectangle(x_, y_, width_, height)
  87:../../libDaisy//src/hid/disp/graphics_common.h ****             .WithCenter(GetCenterX(), GetCenterY());
  88:../../libDaisy//src/hid/disp/graphics_common.h ****     }
  89:../../libDaisy//src/hid/disp/graphics_common.h ****     Rectangle WithSizeKeepingCenter(int16_t width, int16_t height) const
  90:../../libDaisy//src/hid/disp/graphics_common.h ****     {
  91:../../libDaisy//src/hid/disp/graphics_common.h ****         return Rectangle(x_, y_, width, height)
  92:../../libDaisy//src/hid/disp/graphics_common.h ****             .WithCenter(GetCenterX(), GetCenterY());
  93:../../libDaisy//src/hid/disp/graphics_common.h ****     }
  94:../../libDaisy//src/hid/disp/graphics_common.h **** 
  95:../../libDaisy//src/hid/disp/graphics_common.h ****     Rectangle Reduced(int16_t sizeToReduce) const
  96:../../libDaisy//src/hid/disp/graphics_common.h ****     {
  97:../../libDaisy//src/hid/disp/graphics_common.h ****         return {int16_t(x_ + sizeToReduce),
  98:../../libDaisy//src/hid/disp/graphics_common.h ****                 int16_t(y_ + sizeToReduce),
  99:../../libDaisy//src/hid/disp/graphics_common.h ****                 int16_t(width_ - 2 * sizeToReduce),
 100:../../libDaisy//src/hid/disp/graphics_common.h ****                 int16_t(height_ - 2 * sizeToReduce)};
 101:../../libDaisy//src/hid/disp/graphics_common.h ****     }
 102:../../libDaisy//src/hid/disp/graphics_common.h ****     Rectangle Reduced(int16_t xToReduce, int16_t yToReduce) const
 103:../../libDaisy//src/hid/disp/graphics_common.h ****     {
 104:../../libDaisy//src/hid/disp/graphics_common.h ****         return {int16_t(x_ + xToReduce),
 105:../../libDaisy//src/hid/disp/graphics_common.h ****                 int16_t(y_ + yToReduce),
 106:../../libDaisy//src/hid/disp/graphics_common.h ****                 int16_t(width_ - 2 * xToReduce),
 107:../../libDaisy//src/hid/disp/graphics_common.h ****                 int16_t(height_ - 2 * yToReduce)};
 108:../../libDaisy//src/hid/disp/graphics_common.h ****     }
 109:../../libDaisy//src/hid/disp/graphics_common.h **** 
 110:../../libDaisy//src/hid/disp/graphics_common.h ****     Rectangle Translated(int16_t x, int16_t y) const
 111:../../libDaisy//src/hid/disp/graphics_common.h ****     {
 112:../../libDaisy//src/hid/disp/graphics_common.h ****         return {int16_t(x_ + x), int16_t(y_ + y), width_, height_};
 113:../../libDaisy//src/hid/disp/graphics_common.h ****     }
 114:../../libDaisy//src/hid/disp/graphics_common.h **** 
 115:../../libDaisy//src/hid/disp/graphics_common.h ****     Rectangle WithLeft(int16_t left) const
 116:../../libDaisy//src/hid/disp/graphics_common.h ****     {
 117:../../libDaisy//src/hid/disp/graphics_common.h ****         const auto newWidth = int16_t((x_ - left) + width_);
 118:../../libDaisy//src/hid/disp/graphics_common.h ****         return {left, y_, newWidth, height_};
 119:../../libDaisy//src/hid/disp/graphics_common.h ****     }
 120:../../libDaisy//src/hid/disp/graphics_common.h **** 
 121:../../libDaisy//src/hid/disp/graphics_common.h ****     Rectangle WithRight(int16_t right) const
 122:../../libDaisy//src/hid/disp/graphics_common.h ****     {
 123:../../libDaisy//src/hid/disp/graphics_common.h ****         const auto newWidth = int16_t(right - x_);
 124:../../libDaisy//src/hid/disp/graphics_common.h ****         return {x_, y_, newWidth, height_};
 125:../../libDaisy//src/hid/disp/graphics_common.h ****     }
 126:../../libDaisy//src/hid/disp/graphics_common.h **** 
 127:../../libDaisy//src/hid/disp/graphics_common.h ****     Rectangle WithTop(int16_t top) const
 128:../../libDaisy//src/hid/disp/graphics_common.h ****     {
 129:../../libDaisy//src/hid/disp/graphics_common.h ****         const auto newHeight = int16_t((y_ - top) + height_);
 130:../../libDaisy//src/hid/disp/graphics_common.h ****         return {x_, top, width_, newHeight};
 131:../../libDaisy//src/hid/disp/graphics_common.h ****     }
ARM GAS  /var/folders/hl/qgbwny5j0fd895c2c41bk3tw0000gp/T//cc804SGY.s 			page 69


 132:../../libDaisy//src/hid/disp/graphics_common.h **** 
 133:../../libDaisy//src/hid/disp/graphics_common.h ****     Rectangle WithBottom(int16_t bottom) const
 134:../../libDaisy//src/hid/disp/graphics_common.h ****     {
 135:../../libDaisy//src/hid/disp/graphics_common.h ****         const auto newHeight = int16_t(bottom - y_);
 136:../../libDaisy//src/hid/disp/graphics_common.h ****         return {x_, y_, width_, newHeight};
 137:../../libDaisy//src/hid/disp/graphics_common.h ****     }
 138:../../libDaisy//src/hid/disp/graphics_common.h **** 
 139:../../libDaisy//src/hid/disp/graphics_common.h ****     Rectangle WithTrimmedLeft(int16_t pxToTrim) const
 140:../../libDaisy//src/hid/disp/graphics_common.h ****     {
 141:../../libDaisy//src/hid/disp/graphics_common.h ****         return {
 142:../../libDaisy//src/hid/disp/graphics_common.h ****             int16_t(x_ + pxToTrim), y_, int16_t(width_ - pxToTrim), height_};
 143:../../libDaisy//src/hid/disp/graphics_common.h ****     }
 144:../../libDaisy//src/hid/disp/graphics_common.h **** 
 145:../../libDaisy//src/hid/disp/graphics_common.h ****     Rectangle WithTrimmedRight(int16_t pxToTrim) const
 146:../../libDaisy//src/hid/disp/graphics_common.h ****     {
 147:../../libDaisy//src/hid/disp/graphics_common.h ****         return {x_, y_, int16_t(width_ - pxToTrim), height_};
 148:../../libDaisy//src/hid/disp/graphics_common.h ****     }
 149:../../libDaisy//src/hid/disp/graphics_common.h **** 
 150:../../libDaisy//src/hid/disp/graphics_common.h ****     Rectangle WithTrimmedTop(int16_t pxToTrim) const
 151:../../libDaisy//src/hid/disp/graphics_common.h ****     {
 152:../../libDaisy//src/hid/disp/graphics_common.h ****         return {
 153:../../libDaisy//src/hid/disp/graphics_common.h ****             x_, int16_t(y_ + pxToTrim), width_, int16_t(height_ - pxToTrim)};
 154:../../libDaisy//src/hid/disp/graphics_common.h ****     }
 155:../../libDaisy//src/hid/disp/graphics_common.h **** 
 156:../../libDaisy//src/hid/disp/graphics_common.h ****     Rectangle WithTrimmedBottom(int16_t pxToTrim) const
 157:../../libDaisy//src/hid/disp/graphics_common.h ****     {
 158:../../libDaisy//src/hid/disp/graphics_common.h ****         return {x_, y_, width_, int16_t(height_ - pxToTrim)};
 159:../../libDaisy//src/hid/disp/graphics_common.h ****     }
 160:../../libDaisy//src/hid/disp/graphics_common.h **** 
 161:../../libDaisy//src/hid/disp/graphics_common.h ****     Rectangle WithCenterX(int16_t centerX) const
 162:../../libDaisy//src/hid/disp/graphics_common.h ****     {
 163:../../libDaisy//src/hid/disp/graphics_common.h ****         return {int16_t(x_ + centerX - GetCenterX()), y_, width_, height_};
 164:../../libDaisy//src/hid/disp/graphics_common.h ****     }
 165:../../libDaisy//src/hid/disp/graphics_common.h **** 
 166:../../libDaisy//src/hid/disp/graphics_common.h ****     Rectangle WithCenterY(int16_t centerY) const
 167:../../libDaisy//src/hid/disp/graphics_common.h ****     {
 168:../../libDaisy//src/hid/disp/graphics_common.h ****         return {x_, int16_t(y_ + centerY - GetCenterY()), width_, height_};
 169:../../libDaisy//src/hid/disp/graphics_common.h ****     }
 170:../../libDaisy//src/hid/disp/graphics_common.h **** 
 171:../../libDaisy//src/hid/disp/graphics_common.h ****     Rectangle WithCenter(int16_t centerX, int16_t centerY) const
 172:../../libDaisy//src/hid/disp/graphics_common.h ****     {
 173:../../libDaisy//src/hid/disp/graphics_common.h ****         return {int16_t(x_ + centerX - GetCenterX()),
 174:../../libDaisy//src/hid/disp/graphics_common.h ****                 int16_t(y_ + centerY - GetCenterY()),
 175:../../libDaisy//src/hid/disp/graphics_common.h ****                 width_,
 176:../../libDaisy//src/hid/disp/graphics_common.h ****                 height_};
 177:../../libDaisy//src/hid/disp/graphics_common.h ****     }
 178:../../libDaisy//src/hid/disp/graphics_common.h **** 
 179:../../libDaisy//src/hid/disp/graphics_common.h ****     Rectangle RemoveFromLeft(int16_t pxToRemove)
 180:../../libDaisy//src/hid/disp/graphics_common.h ****     {
 181:../../libDaisy//src/hid/disp/graphics_common.h ****         const auto result = this->WithWidth(min(pxToRemove, width_));
 182:../../libDaisy//src/hid/disp/graphics_common.h ****         x_ += min(pxToRemove, width_);
 183:../../libDaisy//src/hid/disp/graphics_common.h ****         width_ = max(int16_t(width_ - pxToRemove), 0);
 184:../../libDaisy//src/hid/disp/graphics_common.h ****         return result;
 185:../../libDaisy//src/hid/disp/graphics_common.h ****     }
 186:../../libDaisy//src/hid/disp/graphics_common.h **** 
 187:../../libDaisy//src/hid/disp/graphics_common.h ****     Rectangle RemoveFromRight(int16_t pxToRemove)
 188:../../libDaisy//src/hid/disp/graphics_common.h ****     {
ARM GAS  /var/folders/hl/qgbwny5j0fd895c2c41bk3tw0000gp/T//cc804SGY.s 			page 70


 189:../../libDaisy//src/hid/disp/graphics_common.h ****         const auto canRemove = min(pxToRemove, width_);
 190:../../libDaisy//src/hid/disp/graphics_common.h ****         width_ -= canRemove;
 191:../../libDaisy//src/hid/disp/graphics_common.h ****         return {int16_t(x_ + width_), y_, canRemove, height_};
 192:../../libDaisy//src/hid/disp/graphics_common.h ****     }
 193:../../libDaisy//src/hid/disp/graphics_common.h **** 
 194:../../libDaisy//src/hid/disp/graphics_common.h ****     Rectangle RemoveFromTop(int16_t pxToRemove)
 195:../../libDaisy//src/hid/disp/graphics_common.h ****     {
 196:../../libDaisy//src/hid/disp/graphics_common.h ****         const auto result = this->WithHeight(min(pxToRemove, height_));
 197:../../libDaisy//src/hid/disp/graphics_common.h ****         y_ += min(pxToRemove, height_);
 198:../../libDaisy//src/hid/disp/graphics_common.h ****         height_ = max(height_ - pxToRemove, 0);
 199:../../libDaisy//src/hid/disp/graphics_common.h ****         return result;
 200:../../libDaisy//src/hid/disp/graphics_common.h ****     }
 201:../../libDaisy//src/hid/disp/graphics_common.h **** 
 202:../../libDaisy//src/hid/disp/graphics_common.h ****     Rectangle RemoveFromBottom(int16_t pxToRemove)
 203:../../libDaisy//src/hid/disp/graphics_common.h ****     {
 204:../../libDaisy//src/hid/disp/graphics_common.h ****         const auto canRemove = min(pxToRemove, height_);
 205:../../libDaisy//src/hid/disp/graphics_common.h ****         height_ -= canRemove;
 206:../../libDaisy//src/hid/disp/graphics_common.h ****         return {x_, int16_t(y_ + height_), width_, canRemove};
 207:../../libDaisy//src/hid/disp/graphics_common.h ****     }
 208:../../libDaisy//src/hid/disp/graphics_common.h **** 
 209:../../libDaisy//src/hid/disp/graphics_common.h ****     Rectangle AlignedWithin(const Rectangle& other, Alignment alignment) const
 210:../../libDaisy//src/hid/disp/graphics_common.h ****     {
 211:../../libDaisy//src/hid/disp/graphics_common.h ****         switch(alignment)
 212:../../libDaisy//src/hid/disp/graphics_common.h ****         {
 213:../../libDaisy//src/hid/disp/graphics_common.h ****             case Alignment::topLeft:
 214:../../libDaisy//src/hid/disp/graphics_common.h ****                 return {other.x_, other.y_, width_, height_};
 215:../../libDaisy//src/hid/disp/graphics_common.h ****             case Alignment::topRight:
 216:../../libDaisy//src/hid/disp/graphics_common.h ****                 return {int16_t(other.GetRight() - width_),
 217:../../libDaisy//src/hid/disp/graphics_common.h ****                         other.y_,
 218:../../libDaisy//src/hid/disp/graphics_common.h ****                         width_,
 219:../../libDaisy//src/hid/disp/graphics_common.h ****                         height_};
 220:../../libDaisy//src/hid/disp/graphics_common.h ****             case Alignment::topCentered:
 221:../../libDaisy//src/hid/disp/graphics_common.h ****                 return {int16_t(x_ + (other.GetCenterX() - GetCenterX())),
 222:../../libDaisy//src/hid/disp/graphics_common.h ****                         other.y_,
 223:../../libDaisy//src/hid/disp/graphics_common.h ****                         width_,
 224:../../libDaisy//src/hid/disp/graphics_common.h ****                         height_};
 225:../../libDaisy//src/hid/disp/graphics_common.h ****             case Alignment::bottomLeft:
 226:../../libDaisy//src/hid/disp/graphics_common.h ****                 return {other.x_,
 227:../../libDaisy//src/hid/disp/graphics_common.h ****                         int16_t(other.GetBottom() - height_),
 228:../../libDaisy//src/hid/disp/graphics_common.h ****                         width_,
 229:../../libDaisy//src/hid/disp/graphics_common.h ****                         height_};
 230:../../libDaisy//src/hid/disp/graphics_common.h ****             case Alignment::bottomRight:
 231:../../libDaisy//src/hid/disp/graphics_common.h ****                 return {int16_t(other.GetRight() - width_),
 232:../../libDaisy//src/hid/disp/graphics_common.h ****                         int16_t(other.GetBottom() - height_),
 233:../../libDaisy//src/hid/disp/graphics_common.h ****                         width_,
 234:../../libDaisy//src/hid/disp/graphics_common.h ****                         height_};
 235:../../libDaisy//src/hid/disp/graphics_common.h ****             case Alignment::bottomCentered:
 236:../../libDaisy//src/hid/disp/graphics_common.h ****                 return {int16_t(x_ + (other.GetCenterX() - GetCenterX())),
 237:../../libDaisy//src/hid/disp/graphics_common.h ****                         int16_t(other.GetBottom() - height_),
 238:../../libDaisy//src/hid/disp/graphics_common.h ****                         width_,
 239:../../libDaisy//src/hid/disp/graphics_common.h ****                         height_};
 240:../../libDaisy//src/hid/disp/graphics_common.h ****             case Alignment::centeredLeft:
 241:../../libDaisy//src/hid/disp/graphics_common.h ****                 return {other.x_,
 242:../../libDaisy//src/hid/disp/graphics_common.h ****                         int16_t(y_ + (other.GetCenterY() - GetCenterY())),
 243:../../libDaisy//src/hid/disp/graphics_common.h ****                         width_,
 244:../../libDaisy//src/hid/disp/graphics_common.h ****                         height_};
 245:../../libDaisy//src/hid/disp/graphics_common.h ****             case Alignment::centeredRight:
ARM GAS  /var/folders/hl/qgbwny5j0fd895c2c41bk3tw0000gp/T//cc804SGY.s 			page 71


 246:../../libDaisy//src/hid/disp/graphics_common.h ****                 return {int16_t(other.GetRight() - width_),
 247:../../libDaisy//src/hid/disp/graphics_common.h ****                         int16_t(y_ + (other.GetCenterY() - GetCenterY())),
 248:../../libDaisy//src/hid/disp/graphics_common.h ****                         width_,
 249:../../libDaisy//src/hid/disp/graphics_common.h ****                         height_};
 250:../../libDaisy//src/hid/disp/graphics_common.h ****             case Alignment::centered:
 251:../../libDaisy//src/hid/disp/graphics_common.h ****                 return {int16_t(x_ + (other.GetCenterX() - GetCenterX())),
 252:../../libDaisy//src/hid/disp/graphics_common.h ****                         int16_t(y_ + (other.GetCenterY() - GetCenterY())),
 253:../../libDaisy//src/hid/disp/graphics_common.h ****                         width_,
 254:../../libDaisy//src/hid/disp/graphics_common.h ****                         height_};
 255:../../libDaisy//src/hid/disp/graphics_common.h ****             default: return {};
 256:../../libDaisy//src/hid/disp/graphics_common.h ****         }
 257:../../libDaisy//src/hid/disp/graphics_common.h ****     }
 258:../../libDaisy//src/hid/disp/graphics_common.h **** 
 259:../../libDaisy//src/hid/disp/graphics_common.h ****   private:
 260:../../libDaisy//src/hid/disp/graphics_common.h ****     int16_t x_, y_, width_, height_;
 261:../../libDaisy//src/hid/disp/graphics_common.h ****     int16_t max(int16_t a, int16_t b) { return (a > b) ? a : b; }
 1813              		.loc 17 261 13 view .LVU405
 1814              	.LBE939:
 1815              	.LBE938:
 1816              	.LBE944:
 1817              	.LBE948:
 1818              		.loc 17 261 41 view .LVU406
 1819              	.LBB949:
 1820              	.LBB945:
 1821              	.LBB941:
 1822              	.LBB940:
 1823              	.LBI940:
 1824              		.loc 17 261 13 view .LVU407
 1825              	.LBE940:
 1826              	.LBE941:
 1827              	.LBE945:
 1828              	.LBE949:
 1829              		.loc 17 261 41 view .LVU408
 1830              	.LBB950:
 1831              	.LBI950:
 209:../../libDaisy//src/hid/disp/graphics_common.h ****     {
 1832              		.loc 17 209 15 view .LVU409
 1833              	.LBB951:
 211:../../libDaisy//src/hid/disp/graphics_common.h ****         {
 1834              		.loc 17 211 9 view .LVU410
 1835 0036 1BB2     		sxth	r3, r3
 1836 0038 23EAE373 		bic	r3, r3, r3, asr #31
 1837 003c 0829     		cmp	r1, #8
 1838 003e 00F2A681 		bhi	.L125
 1839 0042 DFE811F0 		tbh	[pc, r1, lsl #1]
 1840              	.L127:
 1841 0046 0101     		.2byte	(.L135-.L127)/2
 1842 0048 1301     		.2byte	(.L134-.L127)/2
 1843 004a 1F01     		.2byte	(.L133-.L127)/2
 1844 004c 3301     		.2byte	(.L132-.L127)/2
 1845 004e 4101     		.2byte	(.L131-.L127)/2
 1846 0050 4F01     		.2byte	(.L130-.L127)/2
 1847 0052 6601     		.2byte	(.L129-.L127)/2
 1848 0054 6F01     		.2byte	(.L128-.L127)/2
 1849 0056 0900     		.2byte	(.L126-.L127)/2
 1850              		.p2align 1
 1851              	.L126:
ARM GAS  /var/folders/hl/qgbwny5j0fd895c2c41bk3tw0000gp/T//cc804SGY.s 			page 72


 245:../../libDaisy//src/hid/disp/graphics_common.h ****                 return {int16_t(other.GetRight() - width_),
 1852              		.loc 17 245 13 view .LVU411
 246:../../libDaisy//src/hid/disp/graphics_common.h ****                         int16_t(y_ + (other.GetCenterY() - GetCenterY())),
 1853              		.loc 17 246 17 view .LVU412
 1854              	.LVL127:
 1855              	.LBB952:
 1856              	.LBI952:
  60:../../libDaisy//src/hid/disp/graphics_common.h ****     int16_t GetBottom() const { return y_ + height_; }
 1857              		.loc 17 60 13 view .LVU413
 1858              	.LBB953:
  60:../../libDaisy//src/hid/disp/graphics_common.h ****     int16_t GetBottom() const { return y_ + height_; }
 1859              		.loc 17 60 32 view .LVU414
  60:../../libDaisy//src/hid/disp/graphics_common.h ****     int16_t GetBottom() const { return y_ + height_; }
 1860              		.loc 17 60 42 is_stmt 0 view .LVU415
 1861 0058 A188     		ldrh	r1, [r4, #4]
 1862              	.LVL128:
  60:../../libDaisy//src/hid/disp/graphics_common.h ****     int16_t GetBottom() const { return y_ + height_; }
 1863              		.loc 17 60 42 view .LVU416
 1864 005a 2788     		ldrh	r7, [r4]
 1865 005c 0F44     		add	r7, r7, r1
 1866              	.LBE953:
 1867              	.LBE952:
 1868              	.LBB954:
 1869              	.LBB955:
  63:../../libDaisy//src/hid/disp/graphics_common.h **** 
 1870              		.loc 17 63 54 view .LVU417
 1871 005e B4F90610 		ldrsh	r1, [r4, #6]
 1872              	.LBE955:
 1873              	.LBE954:
 246:../../libDaisy//src/hid/disp/graphics_common.h ****                         int16_t(y_ + (other.GetCenterY() - GetCenterY())),
 1874              		.loc 17 246 50 view .LVU418
 1875 0062 FF1A     		subs	r7, r7, r3
 1876              	.LBB959:
 1877              	.LBB956:
  63:../../libDaisy//src/hid/disp/graphics_common.h **** 
 1878              		.loc 17 63 54 view .LVU419
 1879 0064 0029     		cmp	r1, #0
 1880              	.LBE956:
 1881              	.LBE959:
 246:../../libDaisy//src/hid/disp/graphics_common.h ****                         int16_t(y_ + (other.GetCenterY() - GetCenterY())),
 1882              		.loc 17 246 50 view .LVU420
 1883 0066 BFB2     		uxth	r7, r7
 1884              	.LVL129:
 1885              	.LBB960:
 1886              	.LBI954:
  63:../../libDaisy//src/hid/disp/graphics_common.h **** 
 1887              		.loc 17 63 13 is_stmt 1 view .LVU421
 1888              	.LBB957:
  63:../../libDaisy//src/hid/disp/graphics_common.h **** 
 1889              		.loc 17 63 34 view .LVU422
  63:../../libDaisy//src/hid/disp/graphics_common.h **** 
 1890              		.loc 17 63 34 is_stmt 0 view .LVU423
 1891              	.LBE957:
 1892              	.LBE960:
 1893              	.LBB961:
 1894              	.LBI961:
  63:../../libDaisy//src/hid/disp/graphics_common.h **** 
ARM GAS  /var/folders/hl/qgbwny5j0fd895c2c41bk3tw0000gp/T//cc804SGY.s 			page 73


 1895              		.loc 17 63 13 is_stmt 1 view .LVU424
 1896              	.LBB962:
  63:../../libDaisy//src/hid/disp/graphics_common.h **** 
 1897              		.loc 17 63 34 view .LVU425
  63:../../libDaisy//src/hid/disp/graphics_common.h **** 
 1898              		.loc 17 63 34 is_stmt 0 view .LVU426
 1899              	.LBE962:
 1900              	.LBE961:
 1901              	.LBB963:
 1902              	.LBB958:
  63:../../libDaisy//src/hid/disp/graphics_common.h **** 
 1903              		.loc 17 63 54 view .LVU427
 1904 0068 C0F2FE80 		blt	.L198
 1905              	.L142:
  63:../../libDaisy//src/hid/disp/graphics_common.h **** 
 1906              		.loc 17 63 54 view .LVU428
 1907              	.LBE958:
 1908              	.LBE963:
 1909              	.LBB964:
 1910              	.LBB965:
  63:../../libDaisy//src/hid/disp/graphics_common.h **** 
 1911              		.loc 17 63 44 view .LVU429
 1912 006c 6488     		ldrh	r4, [r4, #2]
 1913              	.LVL130:
  63:../../libDaisy//src/hid/disp/graphics_common.h **** 
 1914              		.loc 17 63 44 view .LVU430
 1915              	.LBE965:
 1916              	.LBE964:
 1917              	.LBB971:
 1918              	.LBB972:
 1919              	.LBB973:
  32:../../libDaisy//src/hid/disp/graphics_common.h ****     {
 1920              		.loc 17 32 66 view .LVU431
 1921 006e 0698     		ldr	r0, [sp, #24]
 1922              	.LBE973:
 1923              	.LBE972:
 1924              	.LBE971:
 1925              	.LBB984:
 1926              	.LBB966:
  63:../../libDaisy//src/hid/disp/graphics_common.h **** 
 1927              		.loc 17 63 44 view .LVU432
 1928 0070 04EB6104 		add	r4, r4, r1, asr #1
 1929              	.LBE966:
 1930              	.LBE984:
 1931              	.LBB985:
 1932              	.LBB980:
 1933              	.LBB976:
  32:../../libDaisy//src/hid/disp/graphics_common.h ****     {
 1934              		.loc 17 32 66 view .LVU433
 1935 0074 C280     		strh	r2, [r0, #6]	@ movhi
 1936              	.LBE976:
 1937              	.LBE980:
 1938              	.LBE985:
 252:../../libDaisy//src/hid/disp/graphics_common.h ****                         width_,
 1939              		.loc 17 252 58 view .LVU434
 1940 0076 A4EB5202 		sub	r2, r4, r2, lsr #1
 1941              	.LBB986:
